	.text
	.def	 @feat.00;
	.scl	3;
	.type	0;
	.endef
	.globl	@feat.00
@feat.00 = 1
	.def	 __ZN5alloc5boxed15exchange_malloc20hda30084882442f38LaaE;
	.scl	2;
	.type	32;
	.endef
	.globl	__ZN5alloc5boxed15exchange_malloc20hda30084882442f38LaaE
	.align	16, 0x90
__ZN5alloc5boxed15exchange_malloc20hda30084882442f38LaaE:
	.cfi_startproc
	pushl	%ebp
Ltmp0:
	.cfi_def_cfa_offset 8
	pushl	%ebx
Ltmp1:
	.cfi_def_cfa_offset 12
	pushl	%edi
Ltmp2:
	.cfi_def_cfa_offset 16
	pushl	%esi
Ltmp3:
	.cfi_def_cfa_offset 20
Ltmp4:
	.cfi_offset %esi, -20
Ltmp5:
	.cfi_offset %edi, -16
Ltmp6:
	.cfi_offset %ebx, -12
Ltmp7:
	.cfi_offset %ebp, -8
	xorl	%eax, %eax
	cmpl	$0, 20(%esp)
	je	LBB0_11
	xorl	%esi, %esi
	xorl	%ebx, %ebx
	xorl	%ecx, %ecx
LBB0_2:
	leal	7344128(,%esi,4), %ebp
	.align	16, 0x90
LBB0_3:
	movl	%ebx, %edx
	movl	%esi, %edi
	cmpl	$1048575, %edi
	ja	LBB0_6
	leal	1(%edi), %esi
	xorl	%ebx, %ebx
	cmpl	$0, (%ebp)
	leal	4(%ebp), %ebp
	jne	LBB0_3
	testl	%edx, %edx
	cmovel	%edi, %ecx
	incl	%edx
	movl	%edx, %edi
	shll	$12, %edi
	cmpl	20(%esp), %edi
	movl	%edx, %ebx
	jbe	LBB0_2
LBB0_6:
	movl	%edx, %esi
	shll	$12, %esi
	cmpl	20(%esp), %esi
	jbe	LBB0_11
	movl	%ecx, %eax
	shll	$12, %eax
	addl	$11538432, %eax
	leal	(%ecx,%edx), %esi
	cmpl	%esi, %ecx
	jae	LBB0_11
	leal	7344128(,%ecx,4), %esi
	.align	16, 0x90
LBB0_9:
	cmpl	$1048576, %ecx
	jae	LBB0_10
	movl	%eax, (%esi)
LBB0_10:
	incl	%ecx
	addl	$4, %esi
	decl	%edx
	jne	LBB0_9
LBB0_11:
	popl	%esi
	popl	%edi
	popl	%ebx
	popl	%ebp
	retl
	.cfi_endproc

	.def	 __ZN6common6memory5alloc20hc57ad9068577ec4dqvaE;
	.scl	2;
	.type	32;
	.endef
	.globl	__ZN6common6memory5alloc20hc57ad9068577ec4dqvaE
	.align	16, 0x90
__ZN6common6memory5alloc20hc57ad9068577ec4dqvaE:
	.cfi_startproc
	pushl	%ebp
Ltmp8:
	.cfi_def_cfa_offset 8
	pushl	%ebx
Ltmp9:
	.cfi_def_cfa_offset 12
	pushl	%edi
Ltmp10:
	.cfi_def_cfa_offset 16
	pushl	%esi
Ltmp11:
	.cfi_def_cfa_offset 20
Ltmp12:
	.cfi_offset %esi, -20
Ltmp13:
	.cfi_offset %edi, -16
Ltmp14:
	.cfi_offset %ebx, -12
Ltmp15:
	.cfi_offset %ebp, -8
	xorl	%eax, %eax
	cmpl	$0, 20(%esp)
	je	LBB1_11
	xorl	%esi, %esi
	xorl	%ebx, %ebx
	xorl	%ecx, %ecx
LBB1_2:
	leal	7344128(,%esi,4), %ebp
	.align	16, 0x90
LBB1_3:
	movl	%ebx, %edx
	movl	%esi, %edi
	cmpl	$1048575, %edi
	ja	LBB1_6
	leal	1(%edi), %esi
	xorl	%ebx, %ebx
	cmpl	$0, (%ebp)
	leal	4(%ebp), %ebp
	jne	LBB1_3
	testl	%edx, %edx
	cmovel	%edi, %ecx
	incl	%edx
	movl	%edx, %edi
	shll	$12, %edi
	cmpl	20(%esp), %edi
	movl	%edx, %ebx
	jbe	LBB1_2
LBB1_6:
	movl	%edx, %esi
	shll	$12, %esi
	cmpl	20(%esp), %esi
	jbe	LBB1_11
	movl	%ecx, %eax
	shll	$12, %eax
	addl	$11538432, %eax
	leal	(%ecx,%edx), %esi
	cmpl	%esi, %ecx
	jae	LBB1_11
	leal	7344128(,%ecx,4), %esi
	.align	16, 0x90
LBB1_9:
	cmpl	$1048576, %ecx
	jae	LBB1_10
	movl	%eax, (%esi)
LBB1_10:
	incl	%ecx
	addl	$4, %esi
	decl	%edx
	jne	LBB1_9
LBB1_11:
	popl	%esi
	popl	%edi
	popl	%ebx
	popl	%ebp
	retl
	.cfi_endproc

	.def	 __ZN5alloc5boxed13exchange_free20h5eeeca9a17425a792aaE;
	.scl	2;
	.type	32;
	.endef
	.globl	__ZN5alloc5boxed13exchange_free20h5eeeca9a17425a792aaE
	.align	16, 0x90
__ZN5alloc5boxed13exchange_free20h5eeeca9a17425a792aaE:
	.cfi_startproc
	movl	4(%esp), %eax
	testl	%eax, %eax
	je	LBB2_4
	movl	$7344128, %ecx
	.align	16, 0x90
LBB2_2:
	cmpl	%eax, (%ecx)
	jne	LBB2_3
	movl	$0, (%ecx)
LBB2_3:
	addl	$4, %ecx
	cmpl	$11538432, %ecx
	jne	LBB2_2
LBB2_4:
	retl
	.cfi_endproc

	.def	 __ZN6common6memory7unalloc20h1659865a0cff7c776AaE;
	.scl	2;
	.type	32;
	.endef
	.globl	__ZN6common6memory7unalloc20h1659865a0cff7c776AaE
	.align	16, 0x90
__ZN6common6memory7unalloc20h1659865a0cff7c776AaE:
	.cfi_startproc
	movl	4(%esp), %eax
	testl	%eax, %eax
	je	LBB3_4
	movl	$7344128, %ecx
	.align	16, 0x90
LBB3_2:
	cmpl	%eax, (%ecx)
	jne	LBB3_3
	movl	$0, (%ecx)
LBB3_3:
	addl	$4, %ecx
	cmpl	$11538432, %ecx
	jne	LBB3_2
LBB3_4:
	retl
	.cfi_endproc

	.def	 __ZN6common6string33_$RF$$u27$static$u20$str.ToString9to_string20h20a7cf1a9dac46bdQJaE;
	.scl	2;
	.type	32;
	.endef
	.globl	__ZN6common6string33_$RF$$u27$static$u20$str.ToString9to_string20h20a7cf1a9dac46bdQJaE
	.align	16, 0x90
__ZN6common6string33_$RF$$u27$static$u20$str.ToString9to_string20h20a7cf1a9dac46bdQJaE:
	.cfi_startproc
	pushl	%esi
Ltmp16:
	.cfi_def_cfa_offset 8
	pushl	%eax
Ltmp17:
	.cfi_def_cfa_offset 12
Ltmp18:
	.cfi_offset %esi, -8
	movl	12(%esp), %esi
	movl	16(%esp), %eax
	movl	(%eax), %edx
	movl	4(%eax), %eax
	movl	%eax, (%esp)
	movl	%esi, %ecx
	calll	__ZN6common6string6String8from_str20hec6818acef1847f3cNaE
	movl	%esi, %eax
	addl	$4, %esp
	popl	%esi
	retl
	.cfi_endproc

	.def	 __ZN6common6string6String8from_str20hec6818acef1847f3cNaE;
	.scl	3;
	.type	32;
	.endef
	.align	16, 0x90
__ZN6common6string6String8from_str20hec6818acef1847f3cNaE:
	.cfi_startproc
	pushl	%ebp
Ltmp19:
	.cfi_def_cfa_offset 8
	pushl	%ebx
Ltmp20:
	.cfi_def_cfa_offset 12
	pushl	%edi
Ltmp21:
	.cfi_def_cfa_offset 16
	pushl	%esi
Ltmp22:
	.cfi_def_cfa_offset 20
	subl	$24, %esp
Ltmp23:
	.cfi_def_cfa_offset 44
Ltmp24:
	.cfi_offset %esi, -20
Ltmp25:
	.cfi_offset %edi, -16
Ltmp26:
	.cfi_offset %ebx, -12
Ltmp27:
	.cfi_offset %ebp, -8
	movl	%ecx, 4(%esp)
	movl	44(%esp), %eax
	testl	%eax, %eax
	je	LBB5_8
	leal	(%eax,%edx), %ecx
	movl	%ecx, 8(%esp)
	xorl	%edi, %edi
	movl	%edx, %ebp
	.align	16, 0x90
LBB5_2:
	leal	1(%ebp), %eax
	movb	(%ebp), %bl
	testb	%bl, %bl
	jns	LBB5_6
	addl	$2, %ebp
	cmpl	%ecx, %eax
	cmovnel	%ebp, %eax
	cmovel	%ecx, %ebp
	movzbl	%bl, %esi
	cmpl	$224, %esi
	jb	LBB5_6
	cmpl	%ecx, %ebp
	leal	1(%ebp), %ebx
	cmovnel	%ebx, %eax
	cmovel	%ecx, %ebx
	cmpl	$240, %esi
	jb	LBB5_6
	cmpl	%ecx, %ebx
	leal	1(%ebx), %esi
	cmovnel	%esi, %eax
	.align	16, 0x90
LBB5_6:
	incl	%edi
	cmpl	%ecx, %eax
	movl	%eax, %ebp
	jne	LBB5_2
	testl	%edi, %edi
	je	LBB5_8
	leal	(,%edi,4), %eax
	movl	%eax, 16(%esp)
	xorl	%esi, %esi
	testl	%eax, %eax
	je	LBB5_11
	movl	%edx, 20(%esp)
	xorl	%ebx, %ebx
	xorl	%edx, %edx
	movl	$0, 12(%esp)
LBB5_13:
	leal	7344128(,%ebx,4), %eax
	.align	16, 0x90
LBB5_14:
	movl	%edx, %ebp
	movl	%ebx, %esi
	cmpl	$1048575, %esi
	ja	LBB5_17
	leal	1(%esi), %ebx
	xorl	%edx, %edx
	cmpl	$0, (%eax)
	leal	4(%eax), %eax
	jne	LBB5_14
	testl	%ebp, %ebp
	movl	12(%esp), %eax
	cmovel	%esi, %eax
	movl	%eax, 12(%esp)
	incl	%ebp
	movl	%ebp, %eax
	shll	$12, %eax
	cmpl	16(%esp), %eax
	movl	%ebp, %edx
	jbe	LBB5_13
LBB5_17:
	movl	%ebp, %eax
	shll	$12, %eax
	cmpl	16(%esp), %eax
	movl	$0, %esi
	jbe	LBB5_22
	movl	12(%esp), %edx
	movl	%edx, %esi
	shll	$12, %esi
	addl	$11538432, %esi
	leal	(%edx,%ebp), %eax
	cmpl	%eax, %edx
	jae	LBB5_22
	leal	7344128(,%edx,4), %eax
	.align	16, 0x90
LBB5_20:
	cmpl	$1048576, %edx
	jae	LBB5_21
	movl	%esi, (%eax)
LBB5_21:
	incl	%edx
	addl	$4, %eax
	decl	%ebp
	jne	LBB5_20
	jmp	LBB5_22
LBB5_8:
	movl	4(%esp), %eax
	movl	$0, (%eax)
	movl	$0, 4(%eax)
	jmp	LBB5_9
LBB5_11:
	movl	%edx, 20(%esp)
LBB5_22:
	movl	%esi, (%esp)
	movl	%esi, %ebx
	movl	20(%esp), %esi
	.align	16, 0x90
LBB5_23:
	leal	1(%esi), %edx
	movzbl	(%esi), %eax
	testb	%al, %al
	js	LBB5_25
	movl	%edx, %esi
	jmp	LBB5_39
	.align	16, 0x90
LBB5_25:
	cmpl	%ecx, %edx
	je	LBB5_26
	movl	%esi, %edx
	movzbl	1(%edx), %ebp
	addl	$2, %edx
	movl	%edx, 20(%esp)
	andl	$63, %ebp
	jmp	LBB5_28
LBB5_26:
	xorl	%ebp, %ebp
	movl	%edx, 20(%esp)
	movl	%ecx, %edx
LBB5_28:
	movl	%eax, %esi
	andl	$31, %esi
	cmpl	$224, %eax
	jb	LBB5_29
	movl	$0, 16(%esp)
	cmpl	%ecx, %edx
	movl	%ecx, 12(%esp)
	je	LBB5_33
	movzbl	(%edx), %ecx
	movl	%ecx, 16(%esp)
	movl	8(%esp), %ecx
	incl	%edx
	andl	$63, 16(%esp)
	movl	%edx, 20(%esp)
	movl	%edx, 12(%esp)
LBB5_33:
	shll	$6, %ebp
	orl	16(%esp), %ebp
	cmpl	$240, %eax
	jb	LBB5_34
	xorl	%eax, %eax
	movl	12(%esp), %edx
	cmpl	%ecx, %edx
	je	LBB5_37
	movzbl	(%edx), %eax
	incl	%edx
	andl	$63, %eax
	movl	%edx, 20(%esp)
LBB5_37:
	andl	$7, %esi
	shll	$18, %esi
	shll	$6, %ebp
	orl	%esi, %ebp
	orl	%eax, %ebp
	jmp	LBB5_38
LBB5_29:
	shll	$6, %esi
	orl	%esi, %ebp
	jmp	LBB5_38
LBB5_34:
	shll	$12, %esi
	orl	%esi, %ebp
LBB5_38:
	movl	%ebp, %eax
	movl	20(%esp), %esi
LBB5_39:
	movl	%eax, (%ebx)
	addl	$4, %ebx
	cmpl	%ecx, %esi
	jne	LBB5_23
	movl	4(%esp), %eax
	movl	(%esp), %ecx
	movl	%ecx, (%eax)
	movl	%edi, 4(%eax)
LBB5_9:
	movb	$-44, 8(%eax)
	addl	$24, %esp
	popl	%esi
	popl	%edi
	popl	%ebx
	popl	%ebp
	retl
	.cfi_endproc

	.def	 __ZN6common6string28Chars$LT$$u27$a$GT$.Iterator4next20hb6d03176517b59c9hKaE;
	.scl	2;
	.type	32;
	.endef
	.globl	__ZN6common6string28Chars$LT$$u27$a$GT$.Iterator4next20hb6d03176517b59c9hKaE
	.align	16, 0x90
__ZN6common6string28Chars$LT$$u27$a$GT$.Iterator4next20hb6d03176517b59c9hKaE:
	.cfi_startproc
	pushl	%esi
Ltmp28:
	.cfi_def_cfa_offset 8
Ltmp29:
	.cfi_offset %esi, -8
	movl	8(%esp), %eax
	movl	12(%esp), %ecx
	movl	(%ecx), %esi
	movl	4(%ecx), %edx
	cmpl	4(%esi), %edx
	jae	LBB6_3
	movl	(%esi), %esi
	movl	(%esi,%edx,4), %esi
	incl	%edx
	movl	%edx, 4(%ecx)
	movl	$1, (%eax)
	movl	%esi, 4(%eax)
	popl	%esi
	retl
LBB6_3:
	movl	$0, 4(%eax)
	movl	$0, (%eax)
	popl	%esi
	retl
	.cfi_endproc

	.def	 __ZN6common6string25String.Index$LT$usize$GT$5index20hdde2b510a915357aS3aE;
	.scl	2;
	.type	32;
	.endef
	.globl	__ZN6common6string25String.Index$LT$usize$GT$5index20hdde2b510a915357aS3aE
	.align	16, 0x90
__ZN6common6string25String.Index$LT$usize$GT$5index20hdde2b510a915357aS3aE:
	.cfi_startproc
	movl	8(%esp), %ecx
	movl	4(%esp), %edx
	movl	$__ZN6common6string9NULL_CHAR20h1eabe1777d5c5e4dM3aE, %eax
	cmpl	%ecx, 4(%edx)
	jbe	LBB7_2
	shll	$2, %ecx
	addl	(%edx), %ecx
	movl	%ecx, %eax
LBB7_2:
	retl
	.cfi_endproc

	.def	 __ZN6common6string28Split$LT$$u27$a$GT$.Iterator4next20hcfbe29560e3403c8dLaE;
	.scl	2;
	.type	32;
	.endef
	.globl	__ZN6common6string28Split$LT$$u27$a$GT$.Iterator4next20hcfbe29560e3403c8dLaE
	.align	16, 0x90
__ZN6common6string28Split$LT$$u27$a$GT$.Iterator4next20hcfbe29560e3403c8dLaE:
	.cfi_startproc
	pushl	%ebp
Ltmp30:
	.cfi_def_cfa_offset 8
	pushl	%ebx
Ltmp31:
	.cfi_def_cfa_offset 12
	pushl	%edi
Ltmp32:
	.cfi_def_cfa_offset 16
	pushl	%esi
Ltmp33:
	.cfi_def_cfa_offset 20
	subl	$36, %esp
Ltmp34:
	.cfi_def_cfa_offset 56
Ltmp35:
	.cfi_offset %esi, -20
Ltmp36:
	.cfi_offset %edi, -16
Ltmp37:
	.cfi_offset %ebx, -12
Ltmp38:
	.cfi_offset %ebp, -8
	movl	56(%esp), %eax
	movl	60(%esp), %ebx
	movl	(%ebx), %edx
	movl	4(%ebx), %ecx
	movl	4(%edx), %esi
	movl	%esi, 12(%esp)
	cmpl	%esi, %ecx
	jae	LBB8_23
	movl	$0, 20(%esp)
	movl	%ecx, 8(%esp)
	movl	%ecx, %edi
	jmp	LBB8_2
	.align	16, 0x90
LBB8_22:
	movl	%eax, 20(%esp)
	movl	(%ebx), %edx
LBB8_2:
	movl	%edi, 16(%esp)
	movl	12(%ebx), %esi
	movl	%esi, 4(%esp)
	movl	%edi, (%esp)
	leal	24(%esp), %ecx
	calll	__ZN6common6string6String6substr20h368d5ca1bfe0df04GVaE
	cmpl	28(%esp), %esi
	jne	LBB8_6
	movl	8(%ebx), %ecx
	xorl	%edx, %edx
	movl	24(%esp), %eax
	xorl	%ebp, %ebp
	.align	16, 0x90
LBB8_4:
	cmpl	%esi, %ebp
	jae	LBB8_13
	incl	%ebp
	movl	(%ecx,%edx), %edi
	cmpl	(%eax,%edx), %edi
	leal	4(%edx), %edx
	je	LBB8_4
LBB8_6:
	movl	16(%esp), %edi
	incl	%edi
	incl	4(%ebx)
	movzbl	32(%esp), %eax
	cmpl	$212, %eax
	jne	LBB8_11
	movl	24(%esp), %eax
	movl	$7344128, %ecx
	testl	%eax, %eax
	je	LBB8_10
	.align	16, 0x90
LBB8_8:
	cmpl	%eax, (%ecx)
	jne	LBB8_9
	movl	$0, (%ecx)
LBB8_9:
	addl	$4, %ecx
	cmpl	$11538432, %ecx
	jne	LBB8_8
LBB8_10:
	movl	$0, 24(%esp)
	movl	$0, 28(%esp)
LBB8_11:
	movl	20(%esp), %eax
	incl	%eax
	cmpl	12(%esp), %edi
	jb	LBB8_22
	movl	56(%esp), %esi
	movl	8(%esp), %edi
	jmp	LBB8_20
LBB8_23:
	movsd	_const5002+8, %xmm0
	movsd	%xmm0, 8(%eax)
	movsd	_const5002, %xmm0
	movsd	%xmm0, (%eax)
	jmp	LBB8_24
LBB8_13:
	addl	%esi, 4(%ebx)
	movzbl	32(%esp), %ecx
	cmpl	$212, %ecx
	movl	8(%esp), %edi
	jne	LBB8_19
	testl	%eax, %eax
	je	LBB8_18
	movl	$7344128, %ecx
	.align	16, 0x90
LBB8_16:
	cmpl	%eax, (%ecx)
	jne	LBB8_17
	movl	$0, (%ecx)
LBB8_17:
	addl	$4, %ecx
	cmpl	$11538432, %ecx
	jne	LBB8_16
LBB8_18:
	movl	$0, 24(%esp)
	movl	$0, 28(%esp)
LBB8_19:
	movl	56(%esp), %esi
	movl	20(%esp), %eax
LBB8_20:
	leal	4(%esi), %ecx
	movl	(%ebx), %edx
	movl	%eax, 4(%esp)
	movl	%edi, (%esp)
	calll	__ZN6common6string6String6substr20h368d5ca1bfe0df04GVaE
	movl	$1, (%esi)
	movl	%esi, %eax
LBB8_24:
	addl	$36, %esp
	popl	%esi
	popl	%edi
	popl	%ebx
	popl	%ebp
	retl
	.cfi_endproc

	.def	 __ZN6common6string6String6substr20h368d5ca1bfe0df04GVaE;
	.scl	3;
	.type	32;
	.endef
	.align	16, 0x90
__ZN6common6string6String6substr20h368d5ca1bfe0df04GVaE:
	.cfi_startproc
	pushl	%ebp
Ltmp39:
	.cfi_def_cfa_offset 8
	pushl	%ebx
Ltmp40:
	.cfi_def_cfa_offset 12
	pushl	%edi
Ltmp41:
	.cfi_def_cfa_offset 16
	pushl	%esi
Ltmp42:
	.cfi_def_cfa_offset 20
	subl	$24, %esp
Ltmp43:
	.cfi_def_cfa_offset 44
Ltmp44:
	.cfi_offset %esi, -20
Ltmp45:
	.cfi_offset %edi, -16
Ltmp46:
	.cfi_offset %ebx, -12
Ltmp47:
	.cfi_offset %ebp, -8
	movl	%ecx, %edi
	movl	44(%esp), %eax
	movl	4(%edx), %esi
	cmpl	%eax, %esi
	cmovbl	%esi, %eax
	movl	48(%esp), %ecx
	addl	%eax, %ecx
	cmpl	%esi, %ecx
	cmoval	%esi, %ecx
	movl	%ecx, %esi
	subl	%eax, %esi
	jne	LBB9_3
	movl	$0, (%edi)
	movl	$0, 4(%edi)
	jmp	LBB9_2
LBB9_3:
	leal	(,%esi,4), %ebx
	movl	%ebx, 16(%esp)
	movl	%esi, 8(%esp)
	movl	$0, 20(%esp)
	testl	%ebx, %ebx
	je	LBB9_4
	movl	%ecx, (%esp)
	movl	%edx, 4(%esp)
	movl	%edi, 12(%esp)
	xorl	%edx, %edx
	xorl	%ebx, %ebx
	xorl	%ebp, %ebp
LBB9_6:
	leal	7344128(,%edx,4), %ecx
	.align	16, 0x90
LBB9_7:
	movl	%ebx, %esi
	movl	%edx, %edi
	cmpl	$1048575, %edi
	ja	LBB9_10
	leal	1(%edi), %edx
	xorl	%ebx, %ebx
	cmpl	$0, (%ecx)
	leal	4(%ecx), %ecx
	jne	LBB9_7
	testl	%esi, %esi
	cmovel	%edi, %ebp
	incl	%esi
	movl	%esi, %ecx
	shll	$12, %ecx
	cmpl	16(%esp), %ecx
	movl	%esi, %ebx
	jbe	LBB9_6
LBB9_10:
	movl	%esi, %ecx
	shll	$12, %ecx
	cmpl	16(%esp), %ecx
	movl	4(%esp), %edx
	movl	(%esp), %ecx
	jbe	LBB9_15
	movl	%ebp, %edi
	shll	$12, %edi
	addl	$11538432, %edi
	movl	%edi, 20(%esp)
	leal	(%ebp,%esi), %edi
	cmpl	%edi, %ebp
	jae	LBB9_15
	leal	7344128(,%ebp,4), %edi
	.align	16, 0x90
LBB9_13:
	cmpl	$1048576, %ebp
	jae	LBB9_14
	movl	20(%esp), %ebx
	movl	%ebx, (%edi)
LBB9_14:
	incl	%ebp
	addl	$4, %edi
	decl	%esi
	jne	LBB9_13
	jmp	LBB9_15
LBB9_4:
	movl	%edi, 12(%esp)
LBB9_15:
	cmpl	%eax, %ecx
	jbe	LBB9_18
	movl	20(%esp), %esi
	.align	16, 0x90
LBB9_17:
	movl	(%edx), %edi
	movl	(%edi,%eax,4), %edi
	incl	%eax
	movl	%edi, (%esi)
	addl	$4, %esi
	cmpl	%ecx, %eax
	jb	LBB9_17
LBB9_18:
	movl	20(%esp), %eax
	movl	12(%esp), %edi
	movl	%eax, (%edi)
	movl	8(%esp), %eax
	movl	%eax, 4(%edi)
LBB9_2:
	movb	$-44, 8(%edi)
	movl	%edi, %eax
	addl	$24, %esp
	popl	%esi
	popl	%edi
	popl	%ebx
	popl	%ebp
	retl
	.cfi_endproc

	.def	 __ZN6common6string16String.PartialEq2eq20h971a5e513301dba5J4aE;
	.scl	2;
	.type	32;
	.endef
	.globl	__ZN6common6string16String.PartialEq2eq20h971a5e513301dba5J4aE
	.align	16, 0x90
__ZN6common6string16String.PartialEq2eq20h971a5e513301dba5J4aE:
	.cfi_startproc
	pushl	%ebx
Ltmp48:
	.cfi_def_cfa_offset 8
	pushl	%edi
Ltmp49:
	.cfi_def_cfa_offset 12
	pushl	%esi
Ltmp50:
	.cfi_def_cfa_offset 16
Ltmp51:
	.cfi_offset %esi, -16
Ltmp52:
	.cfi_offset %edi, -12
Ltmp53:
	.cfi_offset %ebx, -8
	movl	20(%esp), %esi
	movl	16(%esp), %edx
	movl	4(%edx), %eax
	xorl	%ecx, %ecx
	cmpl	4(%esi), %eax
	movl	$0, %ebx
	jne	LBB10_5
	movl	(%edx), %edx
	movl	(%esi), %esi
	.align	16, 0x90
LBB10_2:
	movb	$1, %bl
	cmpl	%eax, %ecx
	jae	LBB10_5
	incl	%ecx
	movl	(%edx), %edi
	addl	$4, %edx
	cmpl	(%esi), %edi
	leal	4(%esi), %esi
	je	LBB10_2
	xorl	%ebx, %ebx
LBB10_5:
	movzbl	%bl, %eax
	popl	%esi
	popl	%edi
	popl	%ebx
	retl
	.cfi_endproc

	.def	 __ZN6common6string11String.Drop4drop20hebf1947b6ed6ee9b95aE;
	.scl	2;
	.type	32;
	.endef
	.globl	__ZN6common6string11String.Drop4drop20hebf1947b6ed6ee9b95aE
	.align	16, 0x90
__ZN6common6string11String.Drop4drop20hebf1947b6ed6ee9b95aE:
	.cfi_startproc
	movl	4(%esp), %eax
	movl	(%eax), %ecx
	testl	%ecx, %ecx
	je	LBB11_4
	movl	$7344128, %edx
	.align	16, 0x90
LBB11_2:
	cmpl	%ecx, (%edx)
	jne	LBB11_3
	movl	$0, (%edx)
LBB11_3:
	addl	$4, %edx
	cmpl	$11538432, %edx
	jne	LBB11_2
LBB11_4:
	movl	$0, (%eax)
	movl	$0, 4(%eax)
	retl
	.cfi_endproc

	.def	 __ZN6common6string12String.Clone5clone20h8aae82949de53d1eR5aE;
	.scl	2;
	.type	32;
	.endef
	.globl	__ZN6common6string12String.Clone5clone20h8aae82949de53d1eR5aE
	.align	16, 0x90
__ZN6common6string12String.Clone5clone20h8aae82949de53d1eR5aE:
	.cfi_startproc
	pushl	%esi
Ltmp54:
	.cfi_def_cfa_offset 8
	subl	$8, %esp
Ltmp55:
	.cfi_def_cfa_offset 16
Ltmp56:
	.cfi_offset %esi, -8
	movl	16(%esp), %esi
	movl	20(%esp), %edx
	movl	4(%edx), %eax
	movl	%eax, 4(%esp)
	movl	$0, (%esp)
	movl	%esi, %ecx
	calll	__ZN6common6string6String6substr20h368d5ca1bfe0df04GVaE
	movl	%esi, %eax
	addl	$8, %esp
	popl	%esi
	retl
	.cfi_endproc

	.def	 __ZN6common6string10String.Add3add20h04bec0cc0ad33a3fH6aE;
	.scl	2;
	.type	32;
	.endef
	.globl	__ZN6common6string10String.Add3add20h04bec0cc0ad33a3fH6aE
	.align	16, 0x90
__ZN6common6string10String.Add3add20h04bec0cc0ad33a3fH6aE:
	.cfi_startproc
	pushl	%ebp
Ltmp57:
	.cfi_def_cfa_offset 8
	pushl	%ebx
Ltmp58:
	.cfi_def_cfa_offset 12
	pushl	%edi
Ltmp59:
	.cfi_def_cfa_offset 16
	pushl	%esi
Ltmp60:
	.cfi_def_cfa_offset 20
	subl	$12, %esp
Ltmp61:
	.cfi_def_cfa_offset 32
Ltmp62:
	.cfi_offset %esi, -20
Ltmp63:
	.cfi_offset %edi, -16
Ltmp64:
	.cfi_offset %ebx, -12
Ltmp65:
	.cfi_offset %ebp, -8
	movl	32(%esp), %eax
	movl	40(%esp), %ebx
	movl	36(%esp), %ebp
	movl	4(%ebp), %edx
	movl	4(%ebx), %ecx
	addl	%edx, %ecx
	je	LBB13_1
	leal	(,%ecx,4), %esi
	movl	%esi, 8(%esp)
	xorl	%edi, %edi
	testl	%esi, %esi
	je	LBB13_16
	movl	%edx, (%esp)
	movl	%ecx, 4(%esp)
	xorl	%edx, %edx
	xorl	%eax, %eax
	xorl	%ebx, %ebx
LBB13_18:
	leal	7344128(,%edx,4), %esi
	.align	16, 0x90
LBB13_19:
	movl	%eax, %ecx
	movl	%edx, %ebp
	cmpl	$1048575, %ebp
	ja	LBB13_20
	leal	1(%ebp), %edx
	xorl	%eax, %eax
	cmpl	$0, (%esi)
	leal	4(%esi), %esi
	jne	LBB13_19
	testl	%ecx, %ecx
	cmovel	%ebp, %ebx
	incl	%ecx
	movl	%ecx, %eax
	shll	$12, %eax
	cmpl	8(%esp), %eax
	movl	%ecx, %eax
	movl	36(%esp), %ebp
	jbe	LBB13_18
	jmp	LBB13_23
LBB13_20:
	movl	36(%esp), %ebp
LBB13_23:
	movl	%ecx, %eax
	shll	$12, %eax
	cmpl	8(%esp), %eax
	jbe	LBB13_24
	movl	%ebp, %edx
	movl	%ebx, %esi
	shll	$12, %esi
	addl	$11538432, %esi
	leal	(%ebx,%ecx), %eax
	cmpl	%eax, %ebx
	jae	LBB13_27
	leal	7344128(,%ebx,4), %ebp
	.align	16, 0x90
LBB13_29:
	cmpl	$1048576, %ebx
	jae	LBB13_30
	movl	%esi, (%ebp)
LBB13_30:
	incl	%ebx
	addl	$4, %ebp
	decl	%ecx
	jne	LBB13_29
	movl	%edx, %ebp
	movl	4(%ebp), %edx
	movl	32(%esp), %eax
	movl	40(%esp), %ebx
	jmp	LBB13_32
LBB13_1:
	movl	$0, (%eax)
	movl	$0, 4(%eax)
	jmp	LBB13_2
LBB13_16:
	movl	%ecx, 4(%esp)
	xorl	%esi, %esi
	jmp	LBB13_32
LBB13_24:
	xorl	%esi, %esi
	movl	32(%esp), %eax
	jmp	LBB13_25
LBB13_27:
	movl	32(%esp), %eax
	movl	%edx, %ebp
LBB13_25:
	movl	40(%esp), %ebx
	movl	(%esp), %edx
LBB13_32:
	testl	%edx, %edx
	je	LBB13_35
	xorl	%edi, %edi
	.align	16, 0x90
LBB13_34:
	movl	(%ebp), %ecx
	movl	(%ecx,%edi,4), %ecx
	movl	%ecx, (%esi,%edi,4)
	incl	%edi
	cmpl	4(%ebp), %edi
	jb	LBB13_34
LBB13_35:
	movl	%esi, 8(%esp)
	cmpl	$0, 4(%ebx)
	je	LBB13_38
	movl	8(%esp), %ecx
	leal	(%ecx,%edi,4), %esi
	xorl	%ecx, %ecx
	xorl	%edx, %edx
	.align	16, 0x90
LBB13_37:
	movl	(%ebx), %edi
	movl	(%ecx,%edi), %edi
	movl	%edi, (%esi,%edx,4)
	incl	%edx
	addl	$4, %ecx
	cmpl	4(%ebx), %edx
	jb	LBB13_37
LBB13_38:
	movl	8(%esp), %ecx
	movl	%ecx, (%eax)
	movl	4(%esp), %ecx
	movl	%ecx, 4(%eax)
LBB13_2:
	movb	$-44, 8(%eax)
	movzbl	8(%ebx), %ecx
	cmpl	$212, %ecx
	jne	LBB13_8
	movl	(%ebx), %edx
	testl	%edx, %edx
	je	LBB13_7
	movl	$7344128, %ecx
	.align	16, 0x90
LBB13_5:
	cmpl	%edx, (%ecx)
	jne	LBB13_6
	movl	$0, (%ecx)
LBB13_6:
	addl	$4, %ecx
	cmpl	$11538432, %ecx
	jne	LBB13_5
LBB13_7:
	movl	$0, (%ebx)
	movl	$0, 4(%ebx)
LBB13_8:
	movzbl	8(%ebp), %ecx
	cmpl	$212, %ecx
	jne	LBB13_14
	movl	(%ebp), %edx
	testl	%edx, %edx
	je	LBB13_13
	movl	$7344128, %ecx
	.align	16, 0x90
LBB13_11:
	cmpl	%edx, (%ecx)
	jne	LBB13_12
	movl	$0, (%ecx)
LBB13_12:
	addl	$4, %ecx
	cmpl	$11538432, %ecx
	jne	LBB13_11
LBB13_13:
	movl	$0, (%ebp)
	movl	$0, 4(%ebp)
LBB13_14:
	addl	$12, %esp
	popl	%esi
	popl	%edi
	popl	%ebx
	popl	%ebp
	retl
	.cfi_endproc

	.def	 __ZN6common6string39String.Add$LT$$RF$$u27$a$u20$String$GT$3add20h417c2cb83e0599c9N8aE;
	.scl	2;
	.type	32;
	.endef
	.globl	__ZN6common6string39String.Add$LT$$RF$$u27$a$u20$String$GT$3add20h417c2cb83e0599c9N8aE
	.align	16, 0x90
__ZN6common6string39String.Add$LT$$RF$$u27$a$u20$String$GT$3add20h417c2cb83e0599c9N8aE:
	.cfi_startproc
	pushl	%ebx
Ltmp66:
	.cfi_def_cfa_offset 8
	pushl	%edi
Ltmp67:
	.cfi_def_cfa_offset 12
	pushl	%esi
Ltmp68:
	.cfi_def_cfa_offset 16
	subl	$36, %esp
Ltmp69:
	.cfi_def_cfa_offset 52
Ltmp70:
	.cfi_offset %esi, -16
Ltmp71:
	.cfi_offset %edi, -12
Ltmp72:
	.cfi_offset %ebx, -8
	movl	52(%esp), %esi
	movl	56(%esp), %ebx
	movl	60(%esp), %edx
	movl	4(%edx), %eax
	movl	%eax, 4(%esp)
	movl	$0, (%esp)
	leal	24(%esp), %edi
	movl	%edi, %ecx
	calll	__ZN6common6string6String6substr20h368d5ca1bfe0df04GVaE
	movl	8(%ebx), %eax
	movl	%eax, 20(%esp)
	movsd	(%ebx), %xmm0
	movsd	%xmm0, 12(%esp)
	movl	%edi, 8(%esp)
	leal	12(%esp), %eax
	movl	%eax, 4(%esp)
	movl	%esi, (%esp)
	calll	__ZN6common6string10String.Add3add20h04bec0cc0ad33a3fH6aE
	movl	%esi, %eax
	addl	$36, %esp
	popl	%esi
	popl	%edi
	popl	%ebx
	retl
	.cfi_endproc

	.def	 __ZN6common6string36String.Add$LT$$RF$$u27$a$u20$str$GT$3add20hdf18de234f8ea0ccd9aE;
	.scl	2;
	.type	32;
	.endef
	.globl	__ZN6common6string36String.Add$LT$$RF$$u27$a$u20$str$GT$3add20hdf18de234f8ea0ccd9aE
	.align	16, 0x90
__ZN6common6string36String.Add$LT$$RF$$u27$a$u20$str$GT$3add20hdf18de234f8ea0ccd9aE:
	.cfi_startproc
	pushl	%ebx
Ltmp73:
	.cfi_def_cfa_offset 8
	pushl	%edi
Ltmp74:
	.cfi_def_cfa_offset 12
	pushl	%esi
Ltmp75:
	.cfi_def_cfa_offset 16
	subl	$36, %esp
Ltmp76:
	.cfi_def_cfa_offset 52
Ltmp77:
	.cfi_offset %esi, -16
Ltmp78:
	.cfi_offset %edi, -12
Ltmp79:
	.cfi_offset %ebx, -8
	movl	52(%esp), %esi
	movl	56(%esp), %ebx
	movl	60(%esp), %edx
	movl	64(%esp), %eax
	movl	%eax, (%esp)
	leal	24(%esp), %edi
	movl	%edi, %ecx
	calll	__ZN6common6string6String8from_str20hec6818acef1847f3cNaE
	movl	8(%ebx), %eax
	movl	%eax, 20(%esp)
	movsd	(%ebx), %xmm0
	movsd	%xmm0, 12(%esp)
	movl	%edi, 8(%esp)
	leal	12(%esp), %eax
	movl	%eax, 4(%esp)
	movl	%esi, (%esp)
	calll	__ZN6common6string10String.Add3add20h04bec0cc0ad33a3fH6aE
	movl	%esi, %eax
	addl	$36, %esp
	popl	%esi
	popl	%edi
	popl	%ebx
	retl
	.cfi_endproc

	.def	 __ZN6common6string22String.Add$LT$char$GT$3add20h6da1e18594c6c88dE9aE;
	.scl	2;
	.type	32;
	.endef
	.globl	__ZN6common6string22String.Add$LT$char$GT$3add20h6da1e18594c6c88dE9aE
	.align	16, 0x90
__ZN6common6string22String.Add$LT$char$GT$3add20h6da1e18594c6c88dE9aE:
	.cfi_startproc
	pushl	%ebx
Ltmp80:
	.cfi_def_cfa_offset 8
	pushl	%edi
Ltmp81:
	.cfi_def_cfa_offset 12
	pushl	%esi
Ltmp82:
	.cfi_def_cfa_offset 16
	subl	$36, %esp
Ltmp83:
	.cfi_def_cfa_offset 52
Ltmp84:
	.cfi_offset %esi, -16
Ltmp85:
	.cfi_offset %edi, -12
Ltmp86:
	.cfi_offset %ebx, -8
	movl	52(%esp), %esi
	movl	60(%esp), %ecx
	movl	56(%esp), %eax
	testl	%ecx, %ecx
	je	LBB16_5
	movl	$-1, %edx
	movl	$7344128, %ebx
	.align	16, 0x90
LBB16_2:
	movl	%ebx, %edi
	incl	%edx
	leal	4(%edi), %ebx
	cmpl	$0, (%edi)
	jne	LBB16_2
	shll	$12, %edx
	leal	11538432(%edx), %ebx
	movl	%ebx, (%edi)
	movl	%ecx, 11538432(%edx)
	movl	%ebx, 24(%esp)
	movl	$1, 28(%esp)
	jmp	LBB16_4
LBB16_5:
	movl	$0, 24(%esp)
	movl	$0, 28(%esp)
LBB16_4:
	movb	$-44, 32(%esp)
	movl	8(%eax), %ecx
	movl	%ecx, 20(%esp)
	movsd	(%eax), %xmm0
	movsd	%xmm0, 12(%esp)
	leal	24(%esp), %eax
	movl	%eax, 8(%esp)
	leal	12(%esp), %eax
	movl	%eax, 4(%esp)
	movl	%esi, (%esp)
	calll	__ZN6common6string10String.Add3add20h04bec0cc0ad33a3fH6aE
	movl	%esi, %eax
	addl	$36, %esp
	popl	%esi
	popl	%edi
	popl	%ebx
	retl
	.cfi_endproc

	.def	 __ZN6common6string23String.Add$LT$usize$GT$3add20h3665779ed1e0544509aE;
	.scl	2;
	.type	32;
	.endef
	.globl	__ZN6common6string23String.Add$LT$usize$GT$3add20h3665779ed1e0544509aE
	.align	16, 0x90
__ZN6common6string23String.Add$LT$usize$GT$3add20h3665779ed1e0544509aE:
	.cfi_startproc
	pushl	%ebp
Ltmp87:
	.cfi_def_cfa_offset 8
	pushl	%ebx
Ltmp88:
	.cfi_def_cfa_offset 12
	pushl	%edi
Ltmp89:
	.cfi_def_cfa_offset 16
	pushl	%esi
Ltmp90:
	.cfi_def_cfa_offset 20
	subl	$48, %esp
Ltmp91:
	.cfi_def_cfa_offset 68
Ltmp92:
	.cfi_offset %esi, -20
Ltmp93:
	.cfi_offset %edi, -16
Ltmp94:
	.cfi_offset %ebx, -12
Ltmp95:
	.cfi_offset %ebp, -8
	movl	76(%esp), %ecx
	movl	$4, %eax
	movl	$1, %ebp
	cmpl	$9, %ecx
	jbe	LBB17_4
	movl	$-858993459, %esi
	movl	%ecx, %edi
	.align	16, 0x90
LBB17_2:
	movl	%edi, %eax
	mull	%esi
	shrl	$3, %edx
	incl	%ebp
	cmpl	$99, %edi
	movl	%edx, %edi
	ja	LBB17_2
	leal	(,%ebp,4), %eax
	xorl	%edi, %edi
	testl	%eax, %eax
	je	LBB17_14
LBB17_4:
	movl	%eax, 16(%esp)
	xorl	%eax, %eax
	xorl	%ebx, %ebx
	movl	$0, 20(%esp)
LBB17_5:
	leal	7344128(,%eax,4), %esi
	.align	16, 0x90
LBB17_6:
	movl	%ebx, %edx
	movl	%eax, %edi
	cmpl	$1048575, %edi
	ja	LBB17_9
	leal	1(%edi), %eax
	xorl	%ebx, %ebx
	cmpl	$0, (%esi)
	leal	4(%esi), %esi
	jne	LBB17_6
	testl	%edx, %edx
	movl	20(%esp), %esi
	cmovel	%edi, %esi
	movl	%esi, 20(%esp)
	incl	%edx
	movl	%edx, %esi
	shll	$12, %esi
	cmpl	16(%esp), %esi
	movl	%edx, %ebx
	jbe	LBB17_5
LBB17_9:
	movl	%edx, %eax
	shll	$12, %eax
	xorl	%edi, %edi
	cmpl	16(%esp), %eax
	jbe	LBB17_14
	movl	20(%esp), %ebx
	movl	%ebx, %edi
	shll	$12, %edi
	addl	$11538432, %edi
	leal	(%ebx,%edx), %eax
	cmpl	%eax, %ebx
	jae	LBB17_14
	leal	7344128(,%ebx,4), %esi
	.align	16, 0x90
LBB17_12:
	cmpl	$1048576, %ebx
	jae	LBB17_13
	movl	%edi, (%esi)
LBB17_13:
	incl	%ebx
	addl	$4, %esi
	decl	%edx
	jne	LBB17_12
LBB17_14:
	movl	%ebp, 20(%esp)
	testl	%ebp, %ebp
	je	LBB17_17
	movl	20(%esp), %ebx
	.align	16, 0x90
LBB17_16:
	movl	%ecx, %eax
	movl	$-858993459, %edx
	mull	%edx
	shrl	$3, %edx
	leal	(%edx,%edx), %eax
	leal	(%eax,%eax,4), %esi
	movl	%ecx, %eax
	subl	%esi, %eax
	negl	%esi
	movl	%edi, %ebp
	movzbl	%al, %edi
	orl	$48, %eax
	cmpl	$9, %edi
	movl	%ebp, %edi
	leal	55(%ecx,%esi), %ecx
	cmovbel	%eax, %ecx
	movl	%ecx, -4(%edi,%ebx,4)
	decl	%ebx
	movl	%edx, %ecx
	jne	LBB17_16
LBB17_17:
	movl	%edi, 36(%esp)
	movl	20(%esp), %eax
	movl	%eax, 40(%esp)
	movb	$-44, 44(%esp)
	movl	72(%esp), %eax
	movl	%eax, %ecx
	movl	8(%ecx), %eax
	movl	%eax, 32(%esp)
	movsd	(%ecx), %xmm0
	movsd	%xmm0, 24(%esp)
	leal	36(%esp), %eax
	movl	%eax, 8(%esp)
	leal	24(%esp), %eax
	movl	%eax, 4(%esp)
	movl	68(%esp), %esi
	movl	%esi, (%esp)
	calll	__ZN6common6string10String.Add3add20h04bec0cc0ad33a3fH6aE
	movl	%esi, %eax
	addl	$48, %esp
	popl	%esi
	popl	%edi
	popl	%ebx
	popl	%ebp
	retl
	.cfi_endproc

	.def	 __ZN6common6vector15Vector$LT$T$GT$4push21h11408598412586930578E;
	.scl	3;
	.type	32;
	.endef
	.align	16, 0x90
__ZN6common6vector15Vector$LT$T$GT$4push21h11408598412586930578E:
	.cfi_startproc
	pushl	%ebp
Ltmp96:
	.cfi_def_cfa_offset 8
	pushl	%ebx
Ltmp97:
	.cfi_def_cfa_offset 12
	pushl	%edi
Ltmp98:
	.cfi_def_cfa_offset 16
	pushl	%esi
Ltmp99:
	.cfi_def_cfa_offset 20
	subl	$52, %esp
Ltmp100:
	.cfi_def_cfa_offset 72
Ltmp101:
	.cfi_offset %esi, -20
Ltmp102:
	.cfi_offset %edi, -16
Ltmp103:
	.cfi_offset %ebx, -12
Ltmp104:
	.cfi_offset %ebp, -8
	movl	4(%ecx), %edi
	leal	1(%edi), %eax
	movl	%eax, 4(%ecx)
	movl	(%ecx), %eax
	leal	4(,%edi,4), %esi
	leal	(%esi,%esi,2), %esi
	movl	%esi, 36(%esp)
	testl	%esi, %esi
	je	LBB18_1
	movl	%edi, 32(%esp)
	xorl	%ebx, %ebx
	testl	%eax, %eax
	movl	$0, %ebp
	je	LBB18_13
	movl	$7344128, %esi
	xorl	%ebp, %ebp
	.align	16, 0x90
LBB18_10:
	cmpl	%eax, (%esi)
	jne	LBB18_12
	addl	$4096, %ebp
LBB18_12:
	addl	$4, %esi
	cmpl	$11538432, %esi
	jne	LBB18_10
LBB18_13:
	movl	36(%esp), %edi
	cmpl	%edi, %ebp
	jae	LBB18_47
	movl	%ebp, 20(%esp)
	movl	%ecx, 24(%esp)
	movl	%edx, 28(%esp)
	xorl	%ecx, %ecx
	xorl	%esi, %esi
	movl	%edi, %edx
LBB18_15:
	movl	%edx, 36(%esp)
	leal	7344128(,%ebx,4), %edx
	.align	16, 0x90
LBB18_16:
	movl	%ecx, %edi
	movl	%ebx, %ebp
	cmpl	$1048575, %ebp
	ja	LBB18_17
	leal	1(%ebp), %ebx
	xorl	%ecx, %ecx
	cmpl	$0, (%edx)
	leal	4(%edx), %edx
	jne	LBB18_16
	testl	%edi, %edi
	cmovel	%ebp, %esi
	incl	%edi
	movl	%edi, %ecx
	shll	$12, %ecx
	movl	36(%esp), %edx
	cmpl	%edx, %ecx
	movl	%edi, %ecx
	jbe	LBB18_15
	jmp	LBB18_20
LBB18_1:
	testl	%eax, %eax
	je	LBB18_2
	movl	$7344128, %esi
	.align	16, 0x90
LBB18_4:
	cmpl	%eax, (%esi)
	jne	LBB18_5
	movl	$0, (%esi)
LBB18_5:
	addl	$4, %esi
	cmpl	$11538432, %esi
	jne	LBB18_4
	xorl	%eax, %eax
	jmp	LBB18_47
LBB18_17:
	movl	36(%esp), %edx
LBB18_20:
	movl	%edi, %ecx
	shll	$12, %ecx
	xorl	%ebp, %ebp
	cmpl	%edx, %ecx
	jbe	LBB18_25
	movl	%esi, %ebp
	shll	$12, %ebp
	addl	$11538432, %ebp
	leal	(%esi,%edi), %ecx
	cmpl	%ecx, %esi
	jae	LBB18_25
	leal	7344128(,%esi,4), %ecx
	.align	16, 0x90
LBB18_23:
	cmpl	$1048576, %esi
	jae	LBB18_24
	movl	%ebp, (%ecx)
LBB18_24:
	incl	%esi
	addl	$4, %ecx
	decl	%edi
	jne	LBB18_23
LBB18_25:
	testl	%eax, %eax
	je	LBB18_26
	movl	$7344128, %edi
	testl	%ebp, %ebp
	je	LBB18_43
	movl	20(%esp), %ecx
	cmpl	%edx, %ecx
	cmovbel	%ecx, %edx
	xorl	%esi, %esi
	movl	%edx, %ecx
	movl	%edx, %ebx
	addl	$-4, %ecx
	je	LBB18_31
	xorl	%esi, %esi
	.align	16, 0x90
LBB18_30:
	movl	(%eax,%esi,4), %edx
	movl	%edx, (%ebp,%esi,4)
	addl	$4, %esi
	cmpl	%ecx, %esi
	jb	LBB18_30
LBB18_31:
	cmpl	%ebx, %esi
	jae	LBB18_43
	movl	%ebx, 36(%esp)
	movl	$-2, %ecx
	subl	%esi, %ecx
	movl	32(%esp), %edx
	leal	(%edx,%edx,2), %edx
	leal	12(,%edx,4), %edx
	movl	%edx, 16(%esp)
	movl	20(%esp), %ebx
	cmpl	%edx, %ebx
	movl	%ebx, %edx
	movl	16(%esp), %ebx
	cmoval	%ebx, %edx
	notl	%edx
	subl	%edx, %ecx
	cmpl	$-1, %ecx
	je	LBB18_33
	movl	%esi, %ecx
	notl	%ecx
	movl	%ecx, %ebx
	subl	%edx, %ebx
	movl	%ebx, %edx
	andl	$-16, %edx
	movl	%edx, 4(%esp)
	leal	(%ebx,%esi), %edx
	andl	$-16, %ebx
	je	LBB18_35
	movl	%edx, 12(%esp)
	movl	%ebp, 8(%esp)
	leal	(%ebp,%esi), %ebp
	movl	20(%esp), %edx
	movl	16(%esp), %ebx
	cmpl	%ebx, %edx
	cmovbel	%edx, %ebx
	leal	-1(%eax,%ebx), %edx
	cmpl	%edx, %ebp
	leal	(%eax,%esi), %edx
	ja	LBB18_38
	movl	%ebx, 16(%esp)
	movl	8(%esp), %ebx
	movl	%ecx, (%esp)
	movl	16(%esp), %ecx
	leal	-1(%ebx,%ecx), %ebx
	movl	(%esp), %ecx
	cmpl	%ebx, %edx
	jbe	LBB18_40
LBB18_38:
	addl	4(%esp), %esi
	notl	20(%esp)
	movl	32(%esp), %ebx
	shll	$2, %ebx
	leal	(%ebx,%ebx,2), %ebx
	movl	%ebx, 32(%esp)
	movl	$-13, %ebx
	subl	32(%esp), %ebx
	cmpl	%ebx, 20(%esp)
	cmoval	20(%esp), %ebx
	subl	%ebx, %ecx
	andl	$-16, %ecx
	.align	16, 0x90
LBB18_39:
	movups	(%edx), %xmm0
	movups	%xmm0, (%ebp)
	addl	$16, %edx
	addl	$16, %ebp
	addl	$-16, %ecx
	jne	LBB18_39
LBB18_40:
	movl	36(%esp), %edx
	movl	8(%esp), %ebp
	jmp	LBB18_41
LBB18_2:
	xorl	%eax, %eax
	jmp	LBB18_47
LBB18_26:
	movl	%ebp, %eax
	movl	28(%esp), %edx
	movl	24(%esp), %ecx
	jmp	LBB18_47
LBB18_33:
	movl	36(%esp), %edx
	jmp	LBB18_42
LBB18_35:
	movl	%edx, 12(%esp)
	movl	36(%esp), %edx
LBB18_41:
	cmpl	%esi, 12(%esp)
	je	LBB18_43
	.align	16, 0x90
LBB18_42:
	movb	(%eax,%esi), %cl
	movb	%cl, (%ebp,%esi)
	incl	%esi
	cmpl	%edx, %esi
	jb	LBB18_42
LBB18_43:
	movl	28(%esp), %edx
	movl	24(%esp), %ecx
	.align	16, 0x90
LBB18_44:
	cmpl	%eax, (%edi)
	jne	LBB18_45
	movl	$0, (%edi)
LBB18_45:
	addl	$4, %edi
	cmpl	$11538432, %edi
	jne	LBB18_44
	movl	%ebp, %eax
LBB18_47:
	movl	%eax, (%ecx)
	movl	4(%ecx), %ecx
	leal	(%ecx,%ecx,2), %ecx
	movl	8(%edx), %esi
	movl	%esi, 48(%esp)
	movsd	(%edx), %xmm0
	movsd	%xmm0, 40(%esp)
	movl	$488447261, 8(%edx)
	movl	$488447261, 4(%edx)
	movl	$488447261, (%edx)
	movl	48(%esp), %esi
	movl	%esi, -4(%eax,%ecx,4)
	movsd	40(%esp), %xmm0
	movsd	%xmm0, -12(%eax,%ecx,4)
	movzbl	8(%edx), %eax
	cmpl	$212, %eax
	jne	LBB18_53
	movl	(%edx), %eax
	testl	%eax, %eax
	je	LBB18_52
	movl	$7344128, %ecx
	.align	16, 0x90
LBB18_50:
	cmpl	%eax, (%ecx)
	jne	LBB18_51
	movl	$0, (%ecx)
LBB18_51:
	addl	$4, %ecx
	cmpl	$11538432, %ecx
	jne	LBB18_50
LBB18_52:
	movl	$0, (%edx)
	movl	$0, 4(%edx)
LBB18_53:
	addl	$52, %esp
	popl	%esi
	popl	%edi
	popl	%ebx
	popl	%ebp
	retl
	.cfi_endproc

	.def	 __ZN16common..url..URL9drop.506817h377ce05aa7ec282eE;
	.scl	3;
	.type	32;
	.endef
	.align	16, 0x90
__ZN16common..url..URL9drop.506817h377ce05aa7ec282eE:
	pushl	%ebp
	pushl	%ebx
	pushl	%edi
	pushl	%esi
	movzbl	8(%ecx), %eax
	cmpl	$212, %eax
	jne	LBB19_6
	movl	(%ecx), %eax
	testl	%eax, %eax
	je	LBB19_5
	movl	$7344128, %edx
	.align	16, 0x90
LBB19_3:
	cmpl	%eax, (%edx)
	jne	LBB19_4
	movl	$0, (%edx)
LBB19_4:
	addl	$4, %edx
	cmpl	$11538432, %edx
	jne	LBB19_3
LBB19_5:
	movl	$0, (%ecx)
	movl	$0, 4(%ecx)
LBB19_6:
	movzbl	20(%ecx), %eax
	cmpl	$212, %eax
	jne	LBB19_12
	movl	12(%ecx), %eax
	testl	%eax, %eax
	je	LBB19_11
	movl	$7344128, %edx
	.align	16, 0x90
LBB19_9:
	cmpl	%eax, (%edx)
	jne	LBB19_10
	movl	$0, (%edx)
LBB19_10:
	addl	$4, %edx
	cmpl	$11538432, %edx
	jne	LBB19_9
LBB19_11:
	movl	$0, 12(%ecx)
	movl	$0, 16(%ecx)
LBB19_12:
	movzbl	32(%ecx), %eax
	cmpl	$212, %eax
	jne	LBB19_18
	movl	24(%ecx), %eax
	testl	%eax, %eax
	je	LBB19_17
	movl	$7344128, %edx
	.align	16, 0x90
LBB19_15:
	cmpl	%eax, (%edx)
	jne	LBB19_16
	movl	$0, (%edx)
LBB19_16:
	addl	$4, %edx
	cmpl	$11538432, %edx
	jne	LBB19_15
LBB19_17:
	movl	$0, 24(%ecx)
	movl	$0, 28(%ecx)
LBB19_18:
	movzbl	44(%ecx), %eax
	cmpl	$212, %eax
	jne	LBB19_24
	movl	36(%ecx), %eax
	testl	%eax, %eax
	je	LBB19_23
	movl	$7344128, %edx
	.align	16, 0x90
LBB19_21:
	cmpl	%eax, (%edx)
	jne	LBB19_22
	movl	$0, (%edx)
LBB19_22:
	addl	$4, %edx
	cmpl	$11538432, %edx
	jne	LBB19_21
LBB19_23:
	movl	$0, 36(%ecx)
	movl	$0, 40(%ecx)
LBB19_24:
	movzbl	56(%ecx), %eax
	cmpl	$212, %eax
	jne	LBB19_30
	movl	48(%ecx), %eax
	testl	%eax, %eax
	je	LBB19_29
	movl	$7344128, %edx
	.align	16, 0x90
LBB19_27:
	cmpl	%eax, (%edx)
	jne	LBB19_28
	movl	$0, (%edx)
LBB19_28:
	addl	$4, %edx
	cmpl	$11538432, %edx
	jne	LBB19_27
LBB19_29:
	movl	$0, 48(%ecx)
	movl	$0, 52(%ecx)
LBB19_30:
	movzbl	68(%ecx), %eax
	cmpl	$212, %eax
	jne	LBB19_38
	movl	64(%ecx), %edx
	testl	%edx, %edx
	je	LBB19_32
	movl	60(%ecx), %eax
	xorl	%esi, %esi
	.align	16, 0x90
LBB19_40:
	leal	(%esi,%esi,2), %ebp
	leal	1(%esi), %esi
	movl	(%eax,%ebp,4), %edi
	testl	%edi, %edi
	je	LBB19_42
	movl	$7344128, %ebx
	movzbl	8(%eax,%ebp,4), %ebp
	cmpl	$212, %ebp
	jne	LBB19_42
	.align	16, 0x90
LBB19_43:
	cmpl	%edi, (%ebx)
	jne	LBB19_44
	movl	$0, (%ebx)
LBB19_44:
	addl	$4, %ebx
	cmpl	$11538432, %ebx
	jne	LBB19_43
LBB19_42:
	cmpl	%edx, %esi
	jne	LBB19_40
	jmp	LBB19_33
LBB19_32:
	movl	60(%ecx), %eax
LBB19_33:
	testl	%eax, %eax
	je	LBB19_37
	movl	$7344128, %edx
	.align	16, 0x90
LBB19_35:
	cmpl	%eax, (%edx)
	jne	LBB19_36
	movl	$0, (%edx)
LBB19_36:
	addl	$4, %edx
	cmpl	$11538432, %edx
	jne	LBB19_35
LBB19_37:
	movl	$0, 60(%ecx)
	movl	$0, 64(%ecx)
LBB19_38:
	popl	%esi
	popl	%edi
	popl	%ebx
	popl	%ebp
	retl

	.def	 __ZN7drivers8keyboard29KeyEvent...core..clone..Clone5clone20h5c68fe7a6ad6338bXKbE;
	.scl	2;
	.type	32;
	.endef
	.globl	__ZN7drivers8keyboard29KeyEvent...core..clone..Clone5clone20h5c68fe7a6ad6338bXKbE
	.align	16, 0x90
__ZN7drivers8keyboard29KeyEvent...core..clone..Clone5clone20h5c68fe7a6ad6338bXKbE:
	.cfi_startproc
	movl	4(%esp), %eax
	movl	8(%esp), %ecx
	movl	(%ecx), %edx
	movl	%edx, (%eax)
	movb	4(%ecx), %dl
	movb	%dl, 4(%eax)
	movb	5(%ecx), %cl
	movb	%cl, 5(%eax)
	retl
	.cfi_endproc

	.def	 __ZN7drivers5mouse31MouseEvent...core..clone..Clone5clone20he51c59c71af2b651bTbE;
	.scl	2;
	.type	32;
	.endef
	.globl	__ZN7drivers5mouse31MouseEvent...core..clone..Clone5clone20he51c59c71af2b651bTbE
	.align	16, 0x90
__ZN7drivers5mouse31MouseEvent...core..clone..Clone5clone20he51c59c71af2b651bTbE:
	.cfi_startproc
	movl	4(%esp), %eax
	movl	8(%esp), %ecx
	movl	(%ecx), %edx
	movl	%edx, (%eax)
	movl	4(%ecx), %edx
	movl	%edx, 4(%eax)
	movb	8(%ecx), %dl
	movb	%dl, 8(%eax)
	movb	9(%ecx), %dl
	movb	%dl, 9(%eax)
	movb	10(%ecx), %dl
	movb	%dl, 10(%eax)
	movb	11(%ecx), %cl
	movb	%cl, 11(%eax)
	retl
	.cfi_endproc

	.def	 __ZN11filesystems4unfs26Block...core..clone..Clone5clone20h9d46f41fbfc780194ZbE;
	.scl	2;
	.type	32;
	.endef
	.globl	__ZN11filesystems4unfs26Block...core..clone..Clone5clone20h9d46f41fbfc780194ZbE
	.align	16, 0x90
__ZN11filesystems4unfs26Block...core..clone..Clone5clone20h9d46f41fbfc780194ZbE:
	.cfi_startproc
	movl	4(%esp), %ecx
	movl	(%ecx), %eax
	movl	4(%ecx), %edx
	retl
	.cfi_endproc

	.def	 __ZN11filesystems4unfs27Extent...core..clone..Clone5clone20hd33797b1bb8616e4B0bE;
	.scl	2;
	.type	32;
	.endef
	.globl	__ZN11filesystems4unfs27Extent...core..clone..Clone5clone20hd33797b1bb8616e4B0bE
	.align	16, 0x90
__ZN11filesystems4unfs27Extent...core..clone..Clone5clone20hd33797b1bb8616e4B0bE:
	.cfi_startproc
	movl	4(%esp), %eax
	movl	8(%esp), %ecx
	movsd	(%ecx), %xmm0
	movsd	%xmm0, (%eax)
	movsd	8(%ecx), %xmm0
	movsd	%xmm0, 8(%eax)
	retl
	.cfi_endproc

	.def	 __ZN8graphics3bmp8BMP.Drop4drop20h93eb42d0856002f9YlcE;
	.scl	2;
	.type	32;
	.endef
	.globl	__ZN8graphics3bmp8BMP.Drop4drop20h93eb42d0856002f9YlcE
	.align	16, 0x90
__ZN8graphics3bmp8BMP.Drop4drop20h93eb42d0856002f9YlcE:
	.cfi_startproc
	movl	4(%esp), %eax
	movl	(%eax), %ecx
	testl	%ecx, %ecx
	je	LBB24_5
	movl	$7344128, %edx
	.align	16, 0x90
LBB24_2:
	cmpl	%ecx, (%edx)
	jne	LBB24_3
	movl	$0, (%edx)
LBB24_3:
	addl	$4, %edx
	cmpl	$11538432, %edx
	jne	LBB24_2
	movl	$0, (%eax)
	movl	$0, 8(%eax)
	movl	$0, 4(%eax)
LBB24_5:
	retl
	.cfi_endproc

	.def	 __ZN8graphics5color26Color...core..clone..Clone5clone20hdbcd656096fbae37CmcE;
	.scl	2;
	.type	32;
	.endef
	.globl	__ZN8graphics5color26Color...core..clone..Clone5clone20hdbcd656096fbae37CmcE
	.align	16, 0x90
__ZN8graphics5color26Color...core..clone..Clone5clone20hdbcd656096fbae37CmcE:
	.cfi_startproc
	movl	4(%esp), %eax
	movl	(%eax), %eax
	retl
	.cfi_endproc

	.def	 __ZN8graphics7display32VBEModeInfo...core..clone..Clone5clone20h3636c271eeb02039IpcE;
	.scl	2;
	.type	32;
	.endef
	.globl	__ZN8graphics7display32VBEModeInfo...core..clone..Clone5clone20h3636c271eeb02039IpcE
	.align	16, 0x90
__ZN8graphics7display32VBEModeInfo...core..clone..Clone5clone20h3636c271eeb02039IpcE:
	.cfi_startproc
	movl	4(%esp), %eax
	movl	8(%esp), %ecx
	movw	(%ecx), %dx
	movw	%dx, (%eax)
	movb	2(%ecx), %dl
	movb	%dl, 2(%eax)
	movb	3(%ecx), %dl
	movb	%dl, 3(%eax)
	movw	4(%ecx), %dx
	movw	%dx, 4(%eax)
	movw	6(%ecx), %dx
	movw	%dx, 6(%eax)
	movw	8(%ecx), %dx
	movw	%dx, 8(%eax)
	movw	10(%ecx), %dx
	movw	%dx, 10(%eax)
	movl	12(%ecx), %edx
	movl	%edx, 12(%eax)
	movw	16(%ecx), %dx
	movw	%dx, 16(%eax)
	movw	18(%ecx), %dx
	movw	%dx, 18(%eax)
	movw	20(%ecx), %dx
	movw	%dx, 20(%eax)
	movb	22(%ecx), %dl
	movb	%dl, 22(%eax)
	movb	23(%ecx), %dl
	movb	%dl, 23(%eax)
	movb	24(%ecx), %dl
	movb	%dl, 24(%eax)
	movb	25(%ecx), %dl
	movb	%dl, 25(%eax)
	movb	26(%ecx), %dl
	movb	%dl, 26(%eax)
	movb	27(%ecx), %dl
	movb	%dl, 27(%eax)
	movb	28(%ecx), %dl
	movb	%dl, 28(%eax)
	movb	29(%ecx), %dl
	movb	%dl, 29(%eax)
	movb	30(%ecx), %dl
	movb	%dl, 30(%eax)
	movb	31(%ecx), %dl
	movb	%dl, 31(%eax)
	movb	32(%ecx), %dl
	movb	%dl, 32(%eax)
	movb	33(%ecx), %dl
	movb	%dl, 33(%eax)
	movb	34(%ecx), %dl
	movb	%dl, 34(%eax)
	movb	35(%ecx), %dl
	movb	%dl, 35(%eax)
	movb	36(%ecx), %dl
	movb	%dl, 36(%eax)
	movb	37(%ecx), %dl
	movb	%dl, 37(%eax)
	movb	38(%ecx), %dl
	movb	%dl, 38(%eax)
	movb	39(%ecx), %dl
	movb	%dl, 39(%eax)
	movl	40(%ecx), %edx
	movl	%edx, 40(%eax)
	movl	44(%ecx), %edx
	movl	%edx, 44(%eax)
	movw	48(%ecx), %cx
	movw	%cx, 48(%eax)
	retl
	.cfi_endproc

	.def	 __ZN8graphics7display7Display4rect20hf917444f1594e024IAcE;
	.scl	3;
	.type	32;
	.endef
	.align	16, 0x90
__ZN8graphics7display7Display4rect20hf917444f1594e024IAcE:
	.cfi_startproc
	pushl	%ebp
Ltmp105:
	.cfi_def_cfa_offset 8
	pushl	%ebx
Ltmp106:
	.cfi_def_cfa_offset 12
	pushl	%edi
Ltmp107:
	.cfi_def_cfa_offset 16
	pushl	%esi
Ltmp108:
	.cfi_def_cfa_offset 20
	subl	$36, %esp
Ltmp109:
	.cfi_def_cfa_offset 56
Ltmp110:
	.cfi_offset %esi, -20
Ltmp111:
	.cfi_offset %edi, -16
Ltmp112:
	.cfi_offset %ebx, -12
Ltmp113:
	.cfi_offset %ebp, -8
	movl	%edx, %eax
	movl	60(%esp), %ebx
	movl	%ebx, %edx
	shrl	$24, %edx
	je	LBB27_24
	movl	%ecx, 20(%esp)
	movl	%edx, 24(%esp)
	movl	52(%ecx), %ebp
	movl	%ebp, 12(%esp)
	movl	56(%ecx), %edi
	decl	%edi
	movl	(%eax), %edx
	movl	%edx, 8(%esp)
	movl	4(%eax), %eax
	cmpl	%eax, %edi
	movl	%eax, %esi
	cmovlel	%edi, %esi
	xorl	%ecx, %ecx
	testl	%esi, %esi
	cmovsl	%ecx, %esi
	movl	56(%esp), %ecx
	addl	4(%ecx), %eax
	cmpl	%eax, %edi
	cmovlel	%edi, %eax
	movl	%eax, %edi
	testl	%edi, %edi
	movl	$0, %eax
	cmovsl	%eax, %edi
	leal	-1(%ebp), %ecx
	cmpl	%edx, %ecx
	movl	%edx, %ebp
	cmovlel	%ecx, %ebp
	testl	%ebp, %ebp
	cmovsl	%eax, %ebp
	shll	$2, %ebp
	movl	%ebp, 16(%esp)
	movl	56(%esp), %eax
	movl	(%eax), %eax
	addl	%edx, %eax
	cmpl	%eax, %ecx
	cmovgl	%eax, %ecx
	testl	%ecx, %ecx
	movl	$0, %edx
	cmovsl	%edx, %ecx
	shll	$2, %ecx
	subl	%ebp, %ecx
	movl	24(%esp), %ebp
	movl	%ecx, 32(%esp)
	cmpl	$255, %ebp
	jne	LBB27_20
	cmpl	%edi, %esi
	movl	%edi, 28(%esp)
	jae	LBB27_24
	movl	12(%esp), %edi
	negl	%edi
	movl	8(%esp), %ebp
	notl	%ebp
	cmpl	%ebp, %edi
	cmovgel	%edi, %ebp
	movl	%ebp, %ecx
	xorl	%edx, %edx
	xorl	$-1, %ebp
	movd	%ebx, %xmm0
	pshufd	$0, %xmm0, %xmm0
	notl	%ecx
	cmovsl	%edx, %ecx
	shll	$2, %ecx
	movl	%ecx, 12(%esp)
	notl	%eax
	cmpl	%eax, %edi
	cmovgel	%edi, %eax
	movl	%eax, %edi
	xorl	$-1, %eax
	movl	32(%esp), %eax
	leal	-16(%eax), %eax
	movl	%eax, 4(%esp)
	notl	%edi
	cmovsl	%edx, %edi
	leal	-4(,%edi,4), %eax
	shll	$2, %edi
	subl	%ecx, %eax
	movl	%eax, (%esp)
	subl	%ecx, %edi
	movl	%edi, 8(%esp)
	.align	16, 0x90
LBB27_4:
	movl	20(%esp), %eax
	movl	(%eax), %edi
	movl	48(%eax), %ebp
	imull	%esi, %ebp
	movl	16(%esp), %eax
	leal	(%ebp,%eax), %eax
	addl	%edi, %eax
	andl	$15, %eax
	movl	32(%esp), %edx
	movl	%edx, %ecx
	subl	%eax, %ecx
	cmpl	$16, %ecx
	movl	$0, %ecx
	jb	LBB27_12
	xorl	%ecx, %ecx
	cmpl	$4, %edx
	jb	LBB27_6
	movl	%edi, 24(%esp)
	testl	%eax, %eax
	je	LBB27_7
	movl	12(%esp), %eax
	movl	24(%esp), %ecx
	leal	(%eax,%ecx), %edi
	addl	%ebp, %edi
	xorl	%eax, %eax
	movl	(%esp), %edx
	.align	16, 0x90
LBB27_18:
	movl	%ebx, (%edi,%eax)
	leal	4(%eax), %ecx
	cmpl	$4, %edx
	jb	LBB27_7
	leal	4(%edi,%eax), %eax
	andl	$15, %eax
	addl	$-4, %edx
	testl	%eax, %eax
	movl	%ecx, %eax
	jne	LBB27_18
	jmp	LBB27_7
LBB27_6:
	movl	%edi, 24(%esp)
LBB27_7:
	movl	32(%esp), %edx
	movl	%edx, %eax
	subl	%ecx, %eax
	cmpl	$16, %eax
	jb	LBB27_11
	movl	4(%esp), %edi
	subl	%ecx, %edi
	movl	12(%esp), %eax
	leal	(%eax,%ecx), %edx
	addl	24(%esp), %edx
	addl	%ebp, %edx
	movl	8(%esp), %eax
	subl	%ecx, %eax
	.align	16, 0x90
LBB27_9:
	movdqa	%xmm0, (%edx)
	addl	$16, %edx
	addl	$-16, %eax
	cmpl	$15, %eax
	ja	LBB27_9
	andl	$-16, %edi
	leal	16(%ecx,%edi), %ecx
	movl	32(%esp), %edx
LBB27_11:
	movl	24(%esp), %edi
LBB27_12:
	incl	%esi
	movl	%edx, %eax
	subl	%ecx, %eax
	cmpl	$4, %eax
	jb	LBB27_15
	movl	12(%esp), %eax
	leal	(%eax,%ecx), %edx
	addl	%edi, %edx
	addl	%ebp, %edx
	movl	8(%esp), %eax
	subl	%ecx, %eax
	.align	16, 0x90
LBB27_14:
	movl	%ebx, (%edx)
	addl	$4, %edx
	addl	$-4, %eax
	cmpl	$3, %eax
	ja	LBB27_14
LBB27_15:
	cmpl	28(%esp), %esi
	jb	LBB27_4
	jmp	LBB27_24
LBB27_20:
	cmpl	%edi, %esi
	movl	%edi, 28(%esp)
	jae	LBB27_24
	movl	%ebx, %edx
	shrl	$16, %edx
	movzbl	%dl, %edx
	imull	%ebp, %edx
	movzbl	%bh, %ecx
	imull	%ebp, %ecx
	movzbl	%bl, %edi
	imull	%ebp, %edi
	movl	%ebp, %ebx
	xorl	$255, %ebx
	shll	$8, %edx
	andl	$16711680, %edx
	andl	$65280, %ecx
	shrl	$8, %edi
	orl	%ecx, %edi
	orl	%edx, %edi
	movl	12(%esp), %edx
	negl	%edx
	movl	8(%esp), %ebp
	notl	%ebp
	cmpl	%ebp, %edx
	cmovgel	%edx, %ebp
	movl	%ebp, %ecx
	xorl	$-1, %ebp
	notl	%ecx
	movl	$0, %ebp
	cmovsl	%ebp, %ecx
	shll	$2, %ecx
	movl	%ecx, 16(%esp)
	notl	%eax
	cmpl	%eax, %edx
	cmovgel	%edx, %eax
	movl	%eax, %edx
	xorl	$-1, %eax
	notl	%edx
	cmovsl	%ebp, %edx
	shll	$2, %edx
	subl	%ecx, %edx
	movl	%edx, 12(%esp)
	.align	16, 0x90
LBB27_22:
	leal	1(%esi), %eax
	movl	%eax, 24(%esp)
	cmpl	$3, 32(%esp)
	jbe	LBB27_23
	movl	20(%esp), %eax
	imull	48(%eax), %esi
	movl	(%eax), %ebp
	addl	16(%esp), %ebp
	addl	%esi, %ebp
	movl	12(%esp), %esi
	.align	16, 0x90
LBB27_26:
	movl	(%ebp), %edx
	movzbl	%dh, %ecx
	movzbl	%dl, %eax
	shrl	$16, %edx
	movzbl	%dl, %edx
	imull	%ebx, %edx
	shll	$8, %edx
	andl	$16711680, %edx
	imull	%ebx, %ecx
	andl	$65280, %ecx
	imull	%ebx, %eax
	shrl	$8, %eax
	orl	%ecx, %eax
	orl	%edx, %eax
	addl	%edi, %eax
	movl	%eax, (%ebp)
	addl	$4, %ebp
	addl	$-4, %esi
	cmpl	$3, %esi
	ja	LBB27_26
LBB27_23:
	movl	24(%esp), %eax
	cmpl	28(%esp), %eax
	movl	%eax, %esi
	jb	LBB27_22
LBB27_24:
	addl	$36, %esp
	popl	%esi
	popl	%edi
	popl	%ebx
	popl	%ebp
	retl
	.cfi_endproc

	.def	 __ZN8graphics5point26Point...core..clone..Clone5clone20h53e62cb1eabf2fd7n1cE;
	.scl	2;
	.type	32;
	.endef
	.globl	__ZN8graphics5point26Point...core..clone..Clone5clone20h53e62cb1eabf2fd7n1cE
	.align	16, 0x90
__ZN8graphics5point26Point...core..clone..Clone5clone20h53e62cb1eabf2fd7n1cE:
	.cfi_startproc
	movl	4(%esp), %eax
	movl	8(%esp), %ecx
	movl	(%ecx), %edx
	movl	%edx, (%eax)
	movl	4(%ecx), %ecx
	movl	%ecx, 4(%eax)
	retl
	.cfi_endproc

	.def	 __ZN8graphics5point9Point.Add3add20hdb2bfdaf35aacde1d2cE;
	.scl	2;
	.type	32;
	.endef
	.globl	__ZN8graphics5point9Point.Add3add20hdb2bfdaf35aacde1d2cE
	.align	16, 0x90
__ZN8graphics5point9Point.Add3add20hdb2bfdaf35aacde1d2cE:
	.cfi_startproc
	pushl	%esi
Ltmp114:
	.cfi_def_cfa_offset 8
Ltmp115:
	.cfi_offset %esi, -8
	movl	8(%esp), %eax
	movl	12(%esp), %ecx
	movl	16(%esp), %edx
	movl	(%edx), %esi
	addl	(%ecx), %esi
	movl	%esi, (%eax)
	movl	4(%edx), %edx
	addl	4(%ecx), %edx
	movl	%edx, 4(%eax)
	popl	%esi
	retl
	.cfi_endproc

	.def	 __ZN8graphics5point9Point.Sub3sub20hf5c510f3e751e54fE2cE;
	.scl	2;
	.type	32;
	.endef
	.globl	__ZN8graphics5point9Point.Sub3sub20hf5c510f3e751e54fE2cE
	.align	16, 0x90
__ZN8graphics5point9Point.Sub3sub20hf5c510f3e751e54fE2cE:
	.cfi_startproc
	pushl	%esi
Ltmp116:
	.cfi_def_cfa_offset 8
Ltmp117:
	.cfi_offset %esi, -8
	movl	8(%esp), %eax
	movl	16(%esp), %ecx
	movl	12(%esp), %edx
	movl	(%edx), %esi
	subl	(%ecx), %esi
	movl	%esi, (%eax)
	movl	4(%edx), %edx
	subl	4(%ecx), %edx
	movl	%edx, 4(%eax)
	popl	%esi
	retl
	.cfi_endproc

	.def	 __ZN8graphics4size25Size...core..clone..Clone5clone20h108664953c864cd5d3cE;
	.scl	2;
	.type	32;
	.endef
	.globl	__ZN8graphics4size25Size...core..clone..Clone5clone20h108664953c864cd5d3cE
	.align	16, 0x90
__ZN8graphics4size25Size...core..clone..Clone5clone20h108664953c864cd5d3cE:
	.cfi_startproc
	movl	4(%esp), %eax
	movl	8(%esp), %ecx
	movl	(%ecx), %edx
	movl	%edx, (%eax)
	movl	4(%ecx), %ecx
	movl	%ecx, 4(%eax)
	retl
	.cfi_endproc

	.def	 __ZN8graphics4size8Size.Add3add20hcf27bcec3c33680133cE;
	.scl	2;
	.type	32;
	.endef
	.globl	__ZN8graphics4size8Size.Add3add20hcf27bcec3c33680133cE
	.align	16, 0x90
__ZN8graphics4size8Size.Add3add20hcf27bcec3c33680133cE:
	.cfi_startproc
	pushl	%esi
Ltmp118:
	.cfi_def_cfa_offset 8
Ltmp119:
	.cfi_offset %esi, -8
	movl	8(%esp), %eax
	movl	12(%esp), %ecx
	movl	16(%esp), %edx
	movl	(%edx), %esi
	addl	(%ecx), %esi
	movl	%esi, (%eax)
	movl	4(%edx), %edx
	addl	4(%ecx), %edx
	movl	%edx, 4(%eax)
	popl	%esi
	retl
	.cfi_endproc

	.def	 __ZN8graphics4size8Size.Sub3sub20ha98f8d9f0cc8c693u4cE;
	.scl	2;
	.type	32;
	.endef
	.globl	__ZN8graphics4size8Size.Sub3sub20ha98f8d9f0cc8c693u4cE
	.align	16, 0x90
__ZN8graphics4size8Size.Sub3sub20ha98f8d9f0cc8c693u4cE:
	.cfi_startproc
	pushl	%edi
Ltmp120:
	.cfi_def_cfa_offset 8
	pushl	%esi
Ltmp121:
	.cfi_def_cfa_offset 12
Ltmp122:
	.cfi_offset %esi, -12
Ltmp123:
	.cfi_offset %edi, -8
	movl	12(%esp), %eax
	movl	20(%esp), %ecx
	movl	16(%esp), %edx
	movl	(%edx), %esi
	movl	(%ecx), %edi
	cmpl	%edi, %esi
	cmovbel	%esi, %edi
	subl	%edi, %esi
	movl	%esi, (%eax)
	movl	4(%edx), %edx
	movl	4(%ecx), %ecx
	cmpl	%ecx, %edx
	cmovbel	%edx, %ecx
	subl	%ecx, %edx
	movl	%edx, 4(%eax)
	popl	%esi
	popl	%edi
	retl
	.cfi_endproc

	.def	 __ZN23Application.SessionItem3new20h97408b6502b27f45stdE;
	.scl	2;
	.type	32;
	.endef
	.globl	__ZN23Application.SessionItem3new20h97408b6502b27f45stdE
	.align	16, 0x90
__ZN23Application.SessionItem3new20h97408b6502b27f45stdE:
	.cfi_startproc
	pushl	%edi
Ltmp124:
	.cfi_def_cfa_offset 8
	pushl	%esi
Ltmp125:
	.cfi_def_cfa_offset 12
	pushl	%eax
Ltmp126:
	.cfi_def_cfa_offset 16
Ltmp127:
	.cfi_offset %esi, -12
Ltmp128:
	.cfi_offset %edi, -8
	movl	16(%esp), %esi
	movl	20(%esp), %edi
	movl	$220, (%esi)
	movl	$100, 4(%esi)
	movl	$576, 8(%esi)
	movl	$400, 12(%esi)
	leal	16(%esi), %ecx
	movl	$8, (%esp)
	movl	$_str5255, %edx
	calll	__ZN6common6string6String8from_str20hec6818acef1847f3cNaE
	movl	$-16777216, 28(%esi)
	movl	$-4144897, 32(%esi)
	movl	$-1065320288, 36(%esi)
	movw	$0, 40(%esi)
	movb	$0, 42(%esi)
	movl	$0, 48(%esi)
	movl	$0, 44(%esi)
	movl	$0, 56(%esi)
	movl	$0, 52(%esi)
	movl	$0, 64(%esi)
	movl	$0, 60(%esi)
	movl	$0, 68(%esi)
	movb	$-44, 72(%esi)
	movl	$0, 76(%esi)
	movl	$0, 80(%esi)
	movb	$-44, 84(%esi)
	movl	$0, 88(%esi)
	movl	$0, 92(%esi)
	movl	$0, 96(%esi)
	movb	$1, 100(%esi)
	movzbl	8(%edi), %eax
	cmpl	$212, %eax
	jne	LBB34_6
	movl	(%edi), %eax
	testl	%eax, %eax
	je	LBB34_5
	movl	$7344128, %ecx
	.align	16, 0x90
LBB34_3:
	cmpl	%eax, (%ecx)
	jne	LBB34_4
	movl	$0, (%ecx)
LBB34_4:
	addl	$4, %ecx
	cmpl	$11538432, %ecx
	jne	LBB34_3
LBB34_5:
	movl	$0, (%edi)
	movl	$0, 4(%edi)
LBB34_6:
	movl	%esi, %eax
	addl	$4, %esp
	popl	%esi
	popl	%edi
	retl
	.cfi_endproc

	.def	 __ZN23Application.SessionItem4draw20hdf5d634da3c02263qudE;
	.scl	2;
	.type	32;
	.endef
	.globl	__ZN23Application.SessionItem4draw20hdf5d634da3c02263qudE
	.align	16, 0x90
__ZN23Application.SessionItem4draw20hdf5d634da3c02263qudE:
	.cfi_startproc
	pushl	%ebp
Ltmp129:
	.cfi_def_cfa_offset 8
	pushl	%ebx
Ltmp130:
	.cfi_def_cfa_offset 12
	pushl	%edi
Ltmp131:
	.cfi_def_cfa_offset 16
	pushl	%esi
Ltmp132:
	.cfi_def_cfa_offset 20
	subl	$124, %esp
Ltmp133:
	.cfi_def_cfa_offset 144
Ltmp134:
	.cfi_offset %esi, -20
Ltmp135:
	.cfi_offset %edi, -16
Ltmp136:
	.cfi_offset %ebx, -12
Ltmp137:
	.cfi_offset %ebp, -8
	movl	144(%esp), %esi
	cmpb	$0, 41(%esi)
	je	LBB35_3
	xorl	%edx, %edx
LBB35_2:
	movzbl	%dl, %eax
	addl	$124, %esp
	popl	%esi
	popl	%edi
	popl	%ebx
	popl	%ebp
	retl
LBB35_3:
	movl	148(%esp), %ecx
	movl	(%esi), %eax
	movl	%eax, 28(%esp)
	movl	4(%esi), %edx
	movl	%edx, 24(%esp)
	leal	-2(%eax), %edi
	movl	%edi, 12(%esp)
	leal	-18(%edx), %eax
	movl	%edi, 116(%esp)
	movl	%eax, 120(%esp)
	movl	8(%esi), %eax
	movl	%eax, 20(%esp)
	leal	4(%eax), %eax
	movl	%eax, 8(%esp)
	movl	%eax, 108(%esp)
	movl	$18, 112(%esp)
	movl	32(%esi), %eax
	movl	%eax, 16(%esp)
	movl	%eax, 4(%esp)
	leal	108(%esp), %eax
	movl	%eax, (%esp)
	leal	116(%esp), %edx
	calll	__ZN8graphics7display7Display4rect20hf917444f1594e024IAcE
	movl	20(%esi), %eax
	movl	%eax, 40(%esp)
	testl	%eax, %eax
	je	LBB35_8
	movl	144(%esp), %eax
	movl	16(%eax), %ecx
	movl	%ecx, 32(%esp)
	movl	28(%eax), %eax
	movl	%eax, 104(%esp)
	movl	148(%esp), %eax
	movl	%eax, %ecx
	movl	12(%ecx), %eax
	movl	%eax, 44(%esp)
	movl	48(%ecx), %edx
	movl	%edx, 96(%esp)
	movl	52(%ecx), %edi
	movl	24(%esp), %eax
	leal	-17(%eax), %esi
	movl	%esi, 92(%esp)
	movl	%edx, %eax
	imull	%esi, %eax
	addl	(%ecx), %eax
	movl	28(%esp), %edx
	leal	28(%eax,%edx,4), %eax
	movl	%eax, 48(%esp)
	movl	56(%ecx), %eax
	movl	20(%esp), %ecx
	leal	(%ecx,%edx), %ecx
	movl	%ecx, 36(%esp)
	xorl	%ecx, %ecx
	.align	16, 0x90
LBB35_5:
	movl	%edx, %esi
	leal	1(%ecx), %edx
	movl	%edx, 56(%esp)
	leal	8(%esi), %edx
	movl	%edx, 52(%esp)
	cmpl	36(%esp), %edx
	jg	LBB35_7
	cmpl	$0, 44(%esp)
	je	LBB35_7
	movl	32(%esp), %edx
	movl	(%edx,%ecx,4), %ecx
	movl	%esi, 60(%esp)
	leal	7(%esi), %edx
	movl	%edx, 88(%esp)
	leal	6(%esi), %edx
	movl	%edx, 84(%esp)
	leal	5(%esi), %edx
	movl	%edx, 80(%esp)
	leal	4(%esi), %edx
	movl	%edx, 76(%esp)
	leal	3(%esi), %edx
	movl	%edx, 72(%esp)
	leal	2(%esi), %edx
	movl	%edx, 68(%esp)
	shll	$4, %ecx
	movl	44(%esp), %edx
	leal	(%ecx,%edx), %ecx
	movl	%ecx, 100(%esp)
	leal	1(%esi), %ecx
	movl	%ecx, 64(%esp)
	xorl	%ebp, %ebp
	movl	48(%esp), %ebx
	.align	16, 0x90
LBB35_13:
	movl	100(%esp), %ecx
	movb	(%ecx,%ebp), %cl
	movl	92(%esp), %edx
	leal	(%edx,%ebp), %edx
	testb	%cl, %cl
	jns	LBB35_18
	cmpl	%eax, %edx
	jge	LBB35_18
	cmpl	%edi, 60(%esp)
	jge	LBB35_18
	movl	%edx, %esi
	orl	60(%esp), %esi
	js	LBB35_18
	movl	104(%esp), %esi
	movl	%esi, -28(%ebx)
	.align	16, 0x90
LBB35_18:
	testb	$64, %cl
	je	LBB35_23
	cmpl	%eax, %edx
	jge	LBB35_23
	cmpl	%edi, 64(%esp)
	jge	LBB35_23
	movl	%edx, %esi
	orl	64(%esp), %esi
	js	LBB35_23
	movl	104(%esp), %esi
	movl	%esi, -24(%ebx)
LBB35_23:
	testb	$32, %cl
	je	LBB35_28
	cmpl	%eax, %edx
	jge	LBB35_28
	cmpl	%edi, 68(%esp)
	jge	LBB35_28
	movl	%edx, %esi
	orl	68(%esp), %esi
	js	LBB35_28
	movl	104(%esp), %esi
	movl	%esi, -20(%ebx)
LBB35_28:
	testb	$16, %cl
	je	LBB35_33
	cmpl	%eax, %edx
	jge	LBB35_33
	cmpl	%edi, 72(%esp)
	jge	LBB35_33
	movl	%edx, %esi
	orl	72(%esp), %esi
	js	LBB35_33
	movl	104(%esp), %esi
	movl	%esi, -16(%ebx)
LBB35_33:
	testb	$8, %cl
	je	LBB35_38
	cmpl	%eax, %edx
	jge	LBB35_38
	cmpl	%edi, 76(%esp)
	jge	LBB35_38
	movl	%edx, %esi
	orl	76(%esp), %esi
	js	LBB35_38
	movl	104(%esp), %esi
	movl	%esi, -12(%ebx)
LBB35_38:
	testb	$4, %cl
	je	LBB35_43
	cmpl	%eax, %edx
	jge	LBB35_43
	cmpl	%edi, 80(%esp)
	jge	LBB35_43
	movl	%edx, %esi
	orl	80(%esp), %esi
	js	LBB35_43
	movl	104(%esp), %esi
	movl	%esi, -8(%ebx)
LBB35_43:
	testb	$2, %cl
	je	LBB35_48
	cmpl	%eax, %edx
	jge	LBB35_48
	cmpl	%edi, 84(%esp)
	jge	LBB35_48
	movl	%edx, %esi
	orl	84(%esp), %esi
	js	LBB35_48
	movl	104(%esp), %esi
	movl	%esi, -4(%ebx)
LBB35_48:
	testb	$1, %cl
	je	LBB35_53
	cmpl	%eax, %edx
	jge	LBB35_53
	cmpl	%edi, 88(%esp)
	jge	LBB35_53
	orl	88(%esp), %edx
	js	LBB35_53
	movl	104(%esp), %ecx
	movl	%ecx, (%ebx)
LBB35_53:
	incl	%ebp
	addl	96(%esp), %ebx
	cmpl	$16, %ebp
	jne	LBB35_13
LBB35_7:
	addl	$32, 48(%esp)
	movl	56(%esp), %ecx
	cmpl	40(%esp), %ecx
	movl	52(%esp), %edx
	jb	LBB35_5
LBB35_8:
	movl	144(%esp), %ebx
	cmpb	$0, 40(%ebx)
	jne	LBB35_10
	movl	12(%esp), %eax
	movl	%eax, 116(%esp)
	movl	24(%esp), %ebp
	movl	%ebp, 120(%esp)
	movl	12(%ebx), %eax
	movl	%eax, 104(%esp)
	movl	$2, 108(%esp)
	movl	%eax, 112(%esp)
	movl	16(%esp), %eax
	movl	%eax, 4(%esp)
	leal	108(%esp), %esi
	movl	%esi, (%esp)
	leal	116(%esp), %edx
	movl	148(%esp), %esi
	movl	%esi, %ecx
	calll	__ZN8graphics7display7Display4rect20hf917444f1594e024IAcE
	movl	104(%esp), %edi
	leal	(%edi,%ebp), %eax
	movl	12(%esp), %ecx
	movl	%ecx, 116(%esp)
	movl	%eax, 120(%esp)
	movl	8(%esp), %eax
	movl	%eax, 108(%esp)
	movl	$2, 112(%esp)
	movl	16(%esp), %eax
	movl	%eax, 4(%esp)
	leal	108(%esp), %eax
	movl	%eax, (%esp)
	leal	116(%esp), %edx
	movl	%esi, %ecx
	calll	__ZN8graphics7display7Display4rect20hf917444f1594e024IAcE
	movl	20(%esp), %eax
	movl	28(%esp), %ecx
	leal	(%eax,%ecx), %eax
	movl	%eax, 116(%esp)
	movl	%ebp, 120(%esp)
	movl	$2, 108(%esp)
	movl	%edi, 112(%esp)
	movl	16(%esp), %eax
	movl	%eax, 4(%esp)
	leal	108(%esp), %ebp
	movl	%ebp, (%esp)
	leal	116(%esp), %edx
	movl	%esi, %ecx
	calll	__ZN8graphics7display7Display4rect20hf917444f1594e024IAcE
	movl	28(%esp), %eax
	movl	%eax, 116(%esp)
	movl	24(%esp), %eax
	movl	%eax, 120(%esp)
	movl	20(%esp), %eax
	movl	%eax, 108(%esp)
	movl	%edi, 112(%esp)
	movl	36(%ebx), %eax
	movl	%eax, 4(%esp)
	movl	%ebp, (%esp)
	leal	116(%esp), %edx
	movl	%esi, %ecx
	calll	__ZN8graphics7display7Display4rect20hf917444f1594e024IAcE
LBB35_10:
	movl	92(%ebx), %esi
	movl	%esi, 36(%esp)
	negl	%esi
	movl	8(%ebx), %eax
	movl	12(%ebx), %ecx
	movl	%eax, %edx
	sarl	$31, %edx
	shrl	$29, %edx
	addl	%eax, %edx
	sarl	$3, %edx
	movl	%edx, 44(%esp)
	xorl	%ebp, %ebp
	xorl	%edx, %edx
	subl	96(%ebx), %edx
	movl	%ecx, %edi
	sarl	$31, %edi
	shrl	$28, %edi
	addl	%ecx, %edi
	sarl	$4, %edi
	movl	68(%ebx), %eax
	movl	%eax, 96(%esp)
	testl	%eax, %eax
	je	LBB35_11
	movl	%edi, 32(%esp)
	movl	%esi, 104(%esp)
	movl	%esi, 52(%esp)
	jmp	LBB35_55
LBB35_65:
	movl	%ebp, %ecx
	movl	%eax, %ebp
	incl	104(%esp)
	jmp	LBB35_59
	.align	16, 0x90
LBB35_55:
	movl	64(%ebx), %ecx
	movl	(%ecx,%ebp,4), %edi
	incl	%ebp
	cmpb	$0, 100(%ebx)
	setne	%cl
	movl	104(%esp), %esi
	cmpl	44(%esp), %esi
	setge	%ch
	andb	%cl, %ch
	movzbl	%ch, %eax
	cmovnel	52(%esp), %esi
	leal	(%eax,%edx), %ecx
	cmpl	$9, %edi
	jne	LBB35_56
	movl	%ecx, %edi
	movl	%esi, %ecx
	sarl	$31, %ecx
	shrl	$29, %ecx
	leal	(%ecx,%esi), %ecx
	andl	$-8, %ecx
	movl	%esi, %edx
	subl	%ecx, %edx
	movl	%edi, %ecx
	negl	%edx
	leal	8(%esi,%edx), %esi
	movl	%esi, 104(%esp)
	jmp	LBB35_59
	.align	16, 0x90
LBB35_56:
	movl	%esi, 104(%esp)
	cmpl	$10, %edi
	jne	LBB35_62
	incl	%ecx
	movl	%ecx, %edx
	movl	52(%esp), %ecx
	movl	%ecx, 104(%esp)
	movl	%edx, %ecx
	jmp	LBB35_59
	.align	16, 0x90
LBB35_62:
	cmpl	32(%esp), %ecx
	jge	LBB35_110
	movl	104(%esp), %esi
	cmpl	44(%esp), %esi
	jge	LBB35_110
	movl	%eax, 100(%esp)
	movl	%ebp, %eax
	movl	%ecx, %ebp
	orl	%esi, %ecx
	js	LBB35_65
	movl	148(%esp), %ecx
	movl	12(%ecx), %esi
	testl	%esi, %esi
	movl	%ebp, %ecx
	movl	%eax, %ebp
	je	LBB35_110
	movl	%ebp, 56(%esp)
	movl	%ecx, 40(%esp)
	movl	(%ebx), %eax
	movl	%eax, 88(%esp)
	movl	4(%ebx), %ebx
	movl	%esi, 96(%esp)
	movl	104(%esp), %ecx
	leal	(%eax,%ecx,8), %esi
	movl	%esi, 60(%esp)
	movl	148(%esp), %ecx
	movl	%ecx, %ebp
	movl	48(%ebp), %eax
	movl	%eax, 92(%esp)
	movl	%edx, %ecx
	shll	$4, %ecx
	leal	(%ecx,%ebx), %ecx
	movl	100(%esp), %eax
	andl	$1, %eax
	addl	%eax, %edx
	shll	$4, %eax
	addl	%ecx, %eax
	movl	%eax, 100(%esp)
	movl	52(%ebp), %ecx
	shll	$4, %edx
	addl	%ebx, %edx
	imull	92(%esp), %edx
	addl	(%ebp), %edx
	movl	104(%esp), %ebx
	movl	96(%esp), %eax
	shll	$5, %ebx
	addl	%edx, %ebx
	movl	56(%ebp), %edx
	movl	88(%esp), %ebp
	leal	28(%ebx,%ebp,4), %ebp
	leal	7(%esi), %ebx
	movl	%ebx, 88(%esp)
	shll	$4, %edi
	addl	%edi, %eax
	movl	%eax, 96(%esp)
	leal	6(%esi), %edi
	movl	%edi, 84(%esp)
	leal	5(%esi), %edi
	movl	%edi, 80(%esp)
	leal	4(%esi), %edi
	movl	%edi, 76(%esp)
	leal	3(%esi), %edi
	movl	%edi, 72(%esp)
	leal	2(%esi), %edi
	movl	%edi, 68(%esp)
	leal	1(%esi), %esi
	movl	%esi, 64(%esp)
	xorl	%ebx, %ebx
	.align	16, 0x90
LBB35_68:
	movb	(%eax,%ebx), %al
	movl	100(%esp), %esi
	leal	(%esi,%ebx), %edi
	testb	%al, %al
	jns	LBB35_73
	cmpl	%edx, %edi
	jge	LBB35_73
	cmpl	%ecx, 60(%esp)
	jge	LBB35_73
	movl	60(%esp), %esi
	orl	%edi, %esi
	js	LBB35_73
	movl	$-2039584, -28(%ebp)
	.align	16, 0x90
LBB35_73:
	testb	$64, %al
	je	LBB35_78
	cmpl	%edx, %edi
	jge	LBB35_78
	cmpl	%ecx, 64(%esp)
	jge	LBB35_78
	movl	64(%esp), %esi
	orl	%edi, %esi
	js	LBB35_78
	movl	$-2039584, -24(%ebp)
LBB35_78:
	testb	$32, %al
	je	LBB35_83
	cmpl	%edx, %edi
	jge	LBB35_83
	cmpl	%ecx, 68(%esp)
	jge	LBB35_83
	movl	68(%esp), %esi
	orl	%edi, %esi
	js	LBB35_83
	movl	$-2039584, -20(%ebp)
LBB35_83:
	testb	$16, %al
	je	LBB35_88
	cmpl	%edx, %edi
	jge	LBB35_88
	cmpl	%ecx, 72(%esp)
	jge	LBB35_88
	movl	72(%esp), %esi
	orl	%edi, %esi
	js	LBB35_88
	movl	$-2039584, -16(%ebp)
LBB35_88:
	testb	$8, %al
	je	LBB35_93
	cmpl	%edx, %edi
	jge	LBB35_93
	cmpl	%ecx, 76(%esp)
	jge	LBB35_93
	movl	76(%esp), %esi
	orl	%edi, %esi
	js	LBB35_93
	movl	$-2039584, -12(%ebp)
LBB35_93:
	testb	$4, %al
	je	LBB35_98
	cmpl	%edx, %edi
	jge	LBB35_98
	cmpl	%ecx, 80(%esp)
	jge	LBB35_98
	movl	80(%esp), %esi
	orl	%edi, %esi
	js	LBB35_98
	movl	$-2039584, -8(%ebp)
LBB35_98:
	testb	$2, %al
	je	LBB35_103
	cmpl	%edx, %edi
	jge	LBB35_103
	cmpl	%ecx, 84(%esp)
	jge	LBB35_103
	movl	84(%esp), %esi
	orl	%edi, %esi
	js	LBB35_103
	movl	$-2039584, -4(%ebp)
LBB35_103:
	testb	$1, %al
	je	LBB35_108
	cmpl	%edx, %edi
	jge	LBB35_108
	cmpl	%ecx, 88(%esp)
	jge	LBB35_108
	orl	88(%esp), %edi
	js	LBB35_108
	movl	$-2039584, (%ebp)
LBB35_108:
	incl	%ebx
	addl	92(%esp), %ebp
	cmpl	$16, %ebx
	movl	96(%esp), %eax
	jne	LBB35_68
	movl	144(%esp), %ebx
	movl	68(%ebx), %eax
	movl	%eax, 96(%esp)
	movl	40(%esp), %ecx
	movl	56(%esp), %ebp
LBB35_110:
	incl	104(%esp)
LBB35_59:
	cmpl	96(%esp), %ebp
	movl	%ecx, %edx
	jb	LBB35_55
	jmp	LBB35_60
LBB35_11:
	movl	%edi, 32(%esp)
	movl	%esi, 104(%esp)
	movl	%esi, 52(%esp)
	movl	%edx, %ecx
LBB35_60:
	movl	%ecx, %ebp
	movl	52(%esp), %ecx
	movl	104(%esp), %esi
	cmpl	%ecx, %esi
	setg	%al
	movzbl	%al, %edx
	movl	%esi, %eax
	movl	%eax, %edi
	cmovgl	%ecx, %edi
	addl	%ebp, %edx
	movl	32(%esp), %esi
	cmpl	%esi, %edx
	jge	LBB35_61
	cmpl	44(%esp), %edi
	jge	LBB35_112
	movl	%ebp, 40(%esp)
	movl	%eax, %ecx
	movl	%edx, %eax
	orl	%edi, %eax
	js	LBB35_114
	movl	%edi, 56(%esp)
	movl	%edx, 48(%esp)
	movl	148(%esp), %eax
	movl	12(%eax), %eax
	movl	%eax, 100(%esp)
	testl	%eax, %eax
	je	LBB35_158
	movl	144(%esp), %eax
	movl	(%eax), %edi
	movl	4(%eax), %edx
	movl	%ecx, %ebx
	cmpl	52(%esp), %ebx
	setg	%al
	movl	40(%esp), %ecx
	movl	%ecx, %esi
	shll	$4, %esi
	leal	(%esi,%edx), %esi
	movzbl	%al, %eax
	addl	%eax, %ecx
	shll	$4, %eax
	addl	%esi, %eax
	movl	%eax, 96(%esp)
	movl	56(%esp), %eax
	leal	(%edi,%eax,8), %ebp
	movl	%ebp, 64(%esp)
	shll	$4, %ecx
	addl	%edx, %ecx
	movl	148(%esp), %eax
	movl	48(%eax), %edx
	movl	%edx, 92(%esp)
	imull	%edx, %ecx
	addl	(%eax), %ecx
	leal	-16(%ecx,%edi,4), %edx
	movl	52(%eax), %ecx
	movl	36(%esp), %esi
	decl	%esi
	notl	%ebx
	cmpl	%ebx, %esi
	cmovgel	%esi, %ebx
	movl	56(%eax), %edi
	shll	$5, %ebx
	subl	%ebx, %edx
	leal	7(%ebp), %eax
	movl	%eax, 104(%esp)
	leal	6(%ebp), %eax
	movl	%eax, 88(%esp)
	leal	5(%ebp), %eax
	movl	%eax, 84(%esp)
	leal	4(%ebp), %eax
	movl	%eax, 80(%esp)
	leal	3(%ebp), %eax
	movl	%eax, 76(%esp)
	leal	2(%ebp), %eax
	movl	%eax, 72(%esp)
	leal	1(%ebp), %eax
	movl	%eax, 68(%esp)
	xorl	%ebp, %ebp
	.align	16, 0x90
LBB35_117:
	movl	100(%esp), %eax
	movb	560(%ebp,%eax), %bl
	movl	96(%esp), %eax
	leal	(%eax,%ebp), %esi
	testb	%bl, %bl
	jns	LBB35_122
	cmpl	%edi, %esi
	jge	LBB35_122
	cmpl	%ecx, 64(%esp)
	jge	LBB35_122
	movl	64(%esp), %eax
	orl	%esi, %eax
	js	LBB35_122
	movl	$-1, -16(%edx)
	.align	16, 0x90
LBB35_122:
	testb	$64, %bl
	je	LBB35_127
	cmpl	%edi, %esi
	jge	LBB35_127
	cmpl	%ecx, 68(%esp)
	jge	LBB35_127
	movl	68(%esp), %eax
	orl	%esi, %eax
	js	LBB35_127
	movl	$-1, -12(%edx)
LBB35_127:
	testb	$32, %bl
	je	LBB35_132
	cmpl	%edi, %esi
	jge	LBB35_132
	cmpl	%ecx, 72(%esp)
	jge	LBB35_132
	movl	72(%esp), %eax
	orl	%esi, %eax
	js	LBB35_132
	movl	$-1, -8(%edx)
LBB35_132:
	testb	$16, %bl
	je	LBB35_137
	cmpl	%edi, %esi
	jge	LBB35_137
	cmpl	%ecx, 76(%esp)
	jge	LBB35_137
	movl	76(%esp), %eax
	orl	%esi, %eax
	js	LBB35_137
	movl	$-1, -4(%edx)
LBB35_137:
	testb	$8, %bl
	je	LBB35_142
	cmpl	%edi, %esi
	jge	LBB35_142
	cmpl	%ecx, 80(%esp)
	jge	LBB35_142
	movl	80(%esp), %eax
	orl	%esi, %eax
	js	LBB35_142
	movl	$-1, (%edx)
LBB35_142:
	testb	$4, %bl
	je	LBB35_147
	cmpl	%edi, %esi
	jge	LBB35_147
	cmpl	%ecx, 84(%esp)
	jge	LBB35_147
	movl	84(%esp), %eax
	orl	%esi, %eax
	js	LBB35_147
	movl	$-1, 4(%edx)
LBB35_147:
	testb	$2, %bl
	je	LBB35_152
	cmpl	%edi, %esi
	jge	LBB35_152
	cmpl	%ecx, 88(%esp)
	jge	LBB35_152
	movl	88(%esp), %eax
	orl	%esi, %eax
	js	LBB35_152
	movl	$-1, 8(%edx)
LBB35_152:
	testb	$1, %bl
	je	LBB35_157
	cmpl	%edi, %esi
	jge	LBB35_157
	cmpl	%ecx, 104(%esp)
	jge	LBB35_157
	orl	104(%esp), %esi
	js	LBB35_157
	movl	$-1, 12(%edx)
LBB35_157:
	incl	%ebp
	addl	92(%esp), %edx
	cmpl	$16, %ebp
	jne	LBB35_117
LBB35_158:
	movl	56(%esp), %edi
	addl	$2, %edi
	movl	144(%esp), %ebx
	movl	52(%esp), %ebp
	movl	32(%esp), %esi
	movl	48(%esp), %edx
	jmp	LBB35_159
LBB35_61:
	movl	52(%esp), %ebp
	jmp	LBB35_159
LBB35_112:
	movl	52(%esp), %ebp
	jmp	LBB35_159
LBB35_114:
	movl	52(%esp), %ebp
LBB35_159:
	cmpl	$0, 80(%ebx)
	je	LBB35_160
	xorl	%ecx, %ecx
	movl	%edx, %eax
	.align	16, 0x90
LBB35_162:
	movl	%eax, 28(%esp)
	movl	%ecx, 40(%esp)
	movl	%ebp, 52(%esp)
	movl	%eax, %edx
	movl	76(%ebx), %eax
	movl	(%eax,%ecx,4), %eax
	movl	%eax, 36(%esp)
	cmpb	$0, 100(%ebx)
	setne	%al
	cmpl	44(%esp), %edi
	setge	%cl
	andb	%al, %cl
	movzbl	%cl, %eax
	movl	%eax, 60(%esp)
	cmovnel	%ebp, %edi
	movl	%edi, 56(%esp)
	leal	(%eax,%edx), %eax
	movl	%eax, 48(%esp)
	cmpl	%esi, %eax
	jge	LBB35_210
	cmpl	$0, 48(%esp)
	js	LBB35_210
	movl	56(%esp), %eax
	cmpl	44(%esp), %eax
	jge	LBB35_210
	movl	144(%esp), %eax
	movl	40(%esp), %ecx
	cmpl	%ecx, 88(%eax)
	jne	LBB35_210
	cmpl	$0, 56(%esp)
	js	LBB35_210
	movl	148(%esp), %eax
	movl	12(%eax), %eax
	movl	%eax, 100(%esp)
	testl	%eax, %eax
	je	LBB35_210
	movl	144(%esp), %eax
	movl	%eax, %ecx
	movl	(%ecx), %eax
	movl	%eax, 92(%esp)
	movl	4(%ecx), %ebx
	movl	%ebx, 88(%esp)
	movl	56(%esp), %ecx
	leal	(%eax,%ecx,8), %esi
	movl	%esi, 64(%esp)
	movl	148(%esp), %edx
	movl	%edx, %ebp
	movl	48(%ebp), %eax
	movl	%eax, 104(%esp)
	movl	28(%esp), %edi
	movl	%edi, %edx
	shll	$4, %edx
	leal	(%edx,%ebx), %edx
	movl	60(%esp), %eax
	andl	$1, %eax
	leal	(%edi,%eax), %ebx
	shll	$4, %eax
	addl	%edx, %eax
	movl	%eax, 96(%esp)
	movl	52(%ebp), %edi
	shll	$4, %ebx
	addl	88(%esp), %ebx
	imull	104(%esp), %ebx
	addl	(%ebp), %ebx
	shll	$5, %ecx
	addl	%ebx, %ecx
	movl	56(%ebp), %ebp
	movl	92(%esp), %eax
	leal	28(%ecx,%eax,4), %ebx
	leal	7(%esi), %eax
	movl	%eax, 92(%esp)
	leal	6(%esi), %eax
	movl	%eax, 88(%esp)
	leal	5(%esi), %eax
	movl	%eax, 84(%esp)
	leal	4(%esi), %eax
	movl	%eax, 80(%esp)
	leal	3(%esi), %eax
	movl	%eax, 76(%esp)
	leal	2(%esi), %eax
	movl	%eax, 72(%esp)
	leal	1(%esi), %eax
	movl	%eax, 68(%esp)
	xorl	%eax, %eax
	.align	16, 0x90
LBB35_169:
	movl	100(%esp), %ecx
	movb	1520(%eax,%ecx), %cl
	movl	96(%esp), %edx
	leal	(%edx,%eax), %esi
	testb	%cl, %cl
	jns	LBB35_174
	cmpl	%ebp, %esi
	jge	LBB35_174
	cmpl	%edi, 64(%esp)
	jge	LBB35_174
	movl	64(%esp), %edx
	orl	%esi, %edx
	js	LBB35_174
	movl	$-1, -28(%ebx)
	.align	16, 0x90
LBB35_174:
	testb	$64, %cl
	je	LBB35_179
	cmpl	%ebp, %esi
	jge	LBB35_179
	cmpl	%edi, 68(%esp)
	jge	LBB35_179
	movl	68(%esp), %edx
	orl	%esi, %edx
	js	LBB35_179
	movl	$-1, -24(%ebx)
LBB35_179:
	testb	$32, %cl
	je	LBB35_184
	cmpl	%ebp, %esi
	jge	LBB35_184
	cmpl	%edi, 72(%esp)
	jge	LBB35_184
	movl	72(%esp), %edx
	orl	%esi, %edx
	js	LBB35_184
	movl	$-1, -20(%ebx)
LBB35_184:
	testb	$16, %cl
	je	LBB35_189
	cmpl	%ebp, %esi
	jge	LBB35_189
	cmpl	%edi, 76(%esp)
	jge	LBB35_189
	movl	76(%esp), %edx
	orl	%esi, %edx
	js	LBB35_189
	movl	$-1, -16(%ebx)
LBB35_189:
	testb	$8, %cl
	je	LBB35_194
	cmpl	%ebp, %esi
	jge	LBB35_194
	cmpl	%edi, 80(%esp)
	jge	LBB35_194
	movl	80(%esp), %edx
	orl	%esi, %edx
	js	LBB35_194
	movl	$-1, -12(%ebx)
LBB35_194:
	testb	$4, %cl
	je	LBB35_199
	cmpl	%ebp, %esi
	jge	LBB35_199
	cmpl	%edi, 84(%esp)
	jge	LBB35_199
	movl	84(%esp), %edx
	orl	%esi, %edx
	js	LBB35_199
	movl	$-1, -8(%ebx)
LBB35_199:
	testb	$2, %cl
	je	LBB35_204
	cmpl	%ebp, %esi
	jge	LBB35_204
	cmpl	%edi, 88(%esp)
	jge	LBB35_204
	movl	88(%esp), %edx
	orl	%esi, %edx
	js	LBB35_204
	movl	$-1, -4(%ebx)
LBB35_204:
	testb	$1, %cl
	je	LBB35_209
	cmpl	%ebp, %esi
	jge	LBB35_209
	cmpl	%edi, 92(%esp)
	jge	LBB35_209
	orl	92(%esp), %esi
	js	LBB35_209
	movl	$-1, (%ebx)
LBB35_209:
	incl	%eax
	addl	104(%esp), %ebx
	cmpl	$16, %eax
	jne	LBB35_169
LBB35_210:
	movl	40(%esp), %ecx
	incl	%ecx
	movl	36(%esp), %eax
	cmpl	$9, %eax
	jne	LBB35_211
	movl	56(%esp), %edi
	movl	%edi, %eax
	sarl	$31, %eax
	shrl	$29, %eax
	leal	(%eax,%edi), %eax
	andl	$-8, %eax
	movl	%ecx, %edx
	movl	%edi, %ecx
	subl	%eax, %ecx
	negl	%ecx
	leal	8(%edi,%ecx), %edi
	movl	%edx, %ecx
	movl	144(%esp), %ebx
	movl	52(%esp), %ebp
	movl	32(%esp), %esi
	movl	48(%esp), %edx
	jmp	LBB35_261
	.align	16, 0x90
LBB35_211:
	cmpl	$10, %eax
	jne	LBB35_214
	movl	48(%esp), %edx
	incl	%edx
	movl	52(%esp), %ebp
	movl	%ebp, %edi
	movl	144(%esp), %ebx
	movl	32(%esp), %esi
	jmp	LBB35_261
	.align	16, 0x90
LBB35_214:
	movl	%ecx, 40(%esp)
	movl	48(%esp), %eax
	cmpl	32(%esp), %eax
	jge	LBB35_260
	movl	56(%esp), %eax
	cmpl	44(%esp), %eax
	jge	LBB35_260
	movl	48(%esp), %eax
	orl	56(%esp), %eax
	js	LBB35_260
	movl	148(%esp), %eax
	movl	12(%eax), %eax
	movl	%eax, 104(%esp)
	testl	%eax, %eax
	je	LBB35_260
	movl	144(%esp), %eax
	movl	%eax, %ecx
	movl	(%ecx), %eax
	movl	%eax, 96(%esp)
	movl	4(%ecx), %ecx
	movl	56(%esp), %edi
	leal	(%eax,%edi,8), %eax
	movl	%eax, 68(%esp)
	movl	148(%esp), %esi
	movl	48(%esi), %eax
	movl	%eax, 100(%esp)
	movl	28(%esp), %ebp
	movl	%ebp, %edx
	shll	$4, %edx
	leal	(%edx,%ecx), %edx
	movl	60(%esp), %ebx
	andl	$1, %ebx
	addl	%ebx, %ebp
	shll	$4, %ebx
	addl	%edx, %ebx
	movl	%ebx, 60(%esp)
	movl	52(%esi), %edx
	shll	$4, %ebp
	addl	%ecx, %ebp
	imull	%eax, %ebp
	addl	(%esi), %ebp
	movl	%edi, %ecx
	shll	$5, %ecx
	addl	%ebp, %ecx
	movl	56(%esi), %edi
	movl	96(%esp), %eax
	leal	28(%ecx,%eax,4), %ebx
	movl	68(%esp), %ecx
	leal	7(%ecx), %eax
	movl	%eax, 96(%esp)
	movl	36(%esp), %eax
	shll	$4, %eax
	addl	%eax, 104(%esp)
	leal	6(%ecx), %eax
	movl	%eax, 92(%esp)
	leal	5(%ecx), %eax
	movl	%eax, 88(%esp)
	leal	4(%ecx), %eax
	movl	%eax, 84(%esp)
	leal	3(%ecx), %eax
	movl	%eax, 80(%esp)
	leal	2(%ecx), %eax
	movl	%eax, 76(%esp)
	leal	1(%ecx), %eax
	movl	%eax, 72(%esp)
	xorl	%ebp, %ebp
	.align	16, 0x90
LBB35_219:
	movl	104(%esp), %eax
	movb	(%eax,%ebp), %cl
	movl	60(%esp), %eax
	leal	(%eax,%ebp), %eax
	testb	%cl, %cl
	jns	LBB35_224
	cmpl	%edi, %eax
	jge	LBB35_224
	cmpl	%edx, 68(%esp)
	jge	LBB35_224
	movl	68(%esp), %esi
	orl	%eax, %esi
	js	LBB35_224
	movl	$-1, -28(%ebx)
	.align	16, 0x90
LBB35_224:
	testb	$64, %cl
	je	LBB35_229
	cmpl	%edi, %eax
	jge	LBB35_229
	cmpl	%edx, 72(%esp)
	jge	LBB35_229
	movl	72(%esp), %esi
	orl	%eax, %esi
	js	LBB35_229
	movl	$-1, -24(%ebx)
LBB35_229:
	testb	$32, %cl
	je	LBB35_234
	cmpl	%edi, %eax
	jge	LBB35_234
	cmpl	%edx, 76(%esp)
	jge	LBB35_234
	movl	76(%esp), %esi
	orl	%eax, %esi
	js	LBB35_234
	movl	$-1, -20(%ebx)
LBB35_234:
	testb	$16, %cl
	je	LBB35_239
	cmpl	%edi, %eax
	jge	LBB35_239
	cmpl	%edx, 80(%esp)
	jge	LBB35_239
	movl	80(%esp), %esi
	orl	%eax, %esi
	js	LBB35_239
	movl	$-1, -16(%ebx)
LBB35_239:
	testb	$8, %cl
	je	LBB35_244
	cmpl	%edi, %eax
	jge	LBB35_244
	cmpl	%edx, 84(%esp)
	jge	LBB35_244
	movl	84(%esp), %esi
	orl	%eax, %esi
	js	LBB35_244
	movl	$-1, -12(%ebx)
LBB35_244:
	testb	$4, %cl
	je	LBB35_249
	cmpl	%edi, %eax
	jge	LBB35_249
	cmpl	%edx, 88(%esp)
	jge	LBB35_249
	movl	88(%esp), %esi
	orl	%eax, %esi
	js	LBB35_249
	movl	$-1, -8(%ebx)
LBB35_249:
	testb	$2, %cl
	je	LBB35_254
	cmpl	%edi, %eax
	jge	LBB35_254
	cmpl	%edx, 92(%esp)
	jge	LBB35_254
	movl	92(%esp), %esi
	orl	%eax, %esi
	js	LBB35_254
	movl	$-1, -4(%ebx)
LBB35_254:
	testb	$1, %cl
	je	LBB35_259
	cmpl	%edi, %eax
	jge	LBB35_259
	cmpl	%edx, 96(%esp)
	jge	LBB35_259
	orl	96(%esp), %eax
	js	LBB35_259
	movl	$-1, (%ebx)
LBB35_259:
	incl	%ebp
	addl	100(%esp), %ebx
	cmpl	$16, %ebp
	jne	LBB35_219
LBB35_260:
	movl	56(%esp), %edi
	incl	%edi
	movl	144(%esp), %ebx
	movl	52(%esp), %ebp
	movl	32(%esp), %esi
	movl	48(%esp), %edx
	movl	40(%esp), %ecx
LBB35_261:
	cmpl	80(%ebx), %ecx
	movl	%edx, %eax
	jb	LBB35_162
	jmp	LBB35_262
LBB35_160:
	xorl	%ecx, %ecx
LBB35_262:
	movl	%ecx, 40(%esp)
	cmpb	$0, 100(%ebx)
	setne	%al
	cmpl	44(%esp), %edi
	setge	%cl
	andb	%al, %cl
	movzbl	%cl, %eax
	movl	%eax, 104(%esp)
	cmovel	%edi, %ebp
	leal	(%eax,%edx), %eax
	movl	%edx, %ecx
	cmpl	%esi, %eax
	jl	LBB35_264
	movl	152(%esp), %edi
	movl	$1, %edx
	subl	%esi, %edx
	addl	%eax, %edx
	addl	%edx, 96(%ebx)
	movl	$2, 12(%edi)
LBB35_264:
	movb	$1, %dl
	cmpl	%esi, %eax
	movl	148(%esp), %edi
	jge	LBB35_2
	testl	%eax, %eax
	js	LBB35_2
	cmpl	44(%esp), %ebp
	jge	LBB35_2
	testl	%ebp, %ebp
	js	LBB35_2
	movl	40(%esp), %eax
	cmpl	%eax, 88(%ebx)
	jne	LBB35_2
	movl	12(%edi), %eax
	movl	%eax, 100(%esp)
	testl	%eax, %eax
	je	LBB35_2
	movl	(%ebx), %edx
	movl	%edx, 88(%esp)
	movl	%edi, %eax
	movl	4(%ebx), %esi
	leal	(%edx,%ebp,8), %edi
	movl	%edi, 64(%esp)
	movl	%ecx, %ebx
	movl	%ebx, %edx
	shll	$4, %edx
	leal	(%edx,%esi), %edx
	movl	104(%esp), %ecx
	andl	$1, %ecx
	addl	%ecx, %ebx
	shll	$4, %ecx
	addl	%edx, %ecx
	movl	%ecx, 104(%esp)
	movl	48(%eax), %ecx
	movl	%ecx, 96(%esp)
	shll	$4, %ebx
	addl	%esi, %ebx
	movl	52(%eax), %esi
	imull	%ecx, %ebx
	addl	(%eax), %ebx
	movl	%ebp, %ecx
	movl	56(%eax), %ebp
	shll	$5, %ecx
	addl	%ebx, %ecx
	leal	7(%edi), %edx
	movl	%edx, 92(%esp)
	movl	88(%esp), %eax
	leal	28(%ecx,%eax,4), %eax
	leal	6(%edi), %ecx
	movl	%ecx, 88(%esp)
	leal	5(%edi), %ecx
	movl	%ecx, 84(%esp)
	leal	4(%edi), %ecx
	movl	%ecx, 80(%esp)
	leal	3(%edi), %ecx
	movl	%ecx, 76(%esp)
	leal	2(%edi), %ecx
	movl	%ecx, 72(%esp)
	leal	1(%edi), %ecx
	movl	%ecx, 68(%esp)
	xorl	%edx, %edx
	.align	16, 0x90
LBB35_271:
	movl	100(%esp), %ecx
	movb	1520(%edx,%ecx), %bl
	movl	104(%esp), %ecx
	leal	(%ecx,%edx), %ecx
	testb	%bl, %bl
	jns	LBB35_276
	cmpl	%ebp, %ecx
	jge	LBB35_276
	cmpl	%esi, 64(%esp)
	jge	LBB35_276
	movl	64(%esp), %edi
	orl	%ecx, %edi
	js	LBB35_276
	movl	$-1, -28(%eax)
	.align	16, 0x90
LBB35_276:
	testb	$64, %bl
	je	LBB35_281
	cmpl	%ebp, %ecx
	jge	LBB35_281
	cmpl	%esi, 68(%esp)
	jge	LBB35_281
	movl	68(%esp), %edi
	orl	%ecx, %edi
	js	LBB35_281
	movl	$-1, -24(%eax)
LBB35_281:
	testb	$32, %bl
	je	LBB35_286
	cmpl	%ebp, %ecx
	jge	LBB35_286
	cmpl	%esi, 72(%esp)
	jge	LBB35_286
	movl	72(%esp), %edi
	orl	%ecx, %edi
	js	LBB35_286
	movl	$-1, -20(%eax)
LBB35_286:
	testb	$16, %bl
	je	LBB35_291
	cmpl	%ebp, %ecx
	jge	LBB35_291
	cmpl	%esi, 76(%esp)
	jge	LBB35_291
	movl	76(%esp), %edi
	orl	%ecx, %edi
	js	LBB35_291
	movl	$-1, -16(%eax)
LBB35_291:
	testb	$8, %bl
	je	LBB35_296
	cmpl	%ebp, %ecx
	jge	LBB35_296
	cmpl	%esi, 80(%esp)
	jge	LBB35_296
	movl	80(%esp), %edi
	orl	%ecx, %edi
	js	LBB35_296
	movl	$-1, -12(%eax)
LBB35_296:
	testb	$4, %bl
	je	LBB35_301
	cmpl	%ebp, %ecx
	jge	LBB35_301
	cmpl	%esi, 84(%esp)
	jge	LBB35_301
	movl	84(%esp), %edi
	orl	%ecx, %edi
	js	LBB35_301
	movl	$-1, -8(%eax)
LBB35_301:
	testb	$2, %bl
	je	LBB35_306
	cmpl	%ebp, %ecx
	jge	LBB35_306
	cmpl	%esi, 88(%esp)
	jge	LBB35_306
	movl	88(%esp), %edi
	orl	%ecx, %edi
	js	LBB35_306
	movl	$-1, -4(%eax)
LBB35_306:
	testb	$1, %bl
	je	LBB35_311
	cmpl	%ebp, %ecx
	jge	LBB35_311
	cmpl	%esi, 92(%esp)
	jge	LBB35_311
	orl	92(%esp), %ecx
	js	LBB35_311
	movl	$-1, (%eax)
LBB35_311:
	incl	%edx
	addl	96(%esp), %eax
	cmpl	$16, %edx
	jne	LBB35_271
	movb	$1, %dl
	jmp	LBB35_2
	.cfi_endproc

	.def	 __ZN23Application.SessionItem6on_key20hfad80848e2300fe4sDdE;
	.scl	2;
	.type	32;
	.endef
	.globl	__ZN23Application.SessionItem6on_key20hfad80848e2300fe4sDdE
	.align	16, 0x90
__ZN23Application.SessionItem6on_key20hfad80848e2300fe4sDdE:
	.cfi_startproc
	pushl	%ebp
Ltmp138:
	.cfi_def_cfa_offset 8
	pushl	%ebx
Ltmp139:
	.cfi_def_cfa_offset 12
	pushl	%edi
Ltmp140:
	.cfi_def_cfa_offset 16
	pushl	%esi
Ltmp141:
	.cfi_def_cfa_offset 20
	subl	$504, %esp
Ltmp142:
	.cfi_def_cfa_offset 524
Ltmp143:
	.cfi_offset %esi, -20
Ltmp144:
	.cfi_offset %edi, -16
Ltmp145:
	.cfi_offset %ebx, -12
Ltmp146:
	.cfi_offset %ebp, -8
	movl	536(%esp), %eax
	cmpb	$0, 5(%eax)
	je	LBB36_299
	movl	524(%esp), %ebp
	movb	4(%eax), %cl
	movb	%cl, %dl
	addb	$-71, %dl
	movzbl	%dl, %edx
	cmpl	$8, %edx
	jbe	LBB36_309
	movzbl	%cl, %ecx
	cmpl	$1, %ecx
	jne	LBB36_11
	movb	$1, 41(%ebp)
	jmp	LBB36_11
LBB36_309:
	jmpl	*LJTI36_0(,%edx,4)
LBB36_4:
	movl	$0, 88(%ebp)
	jmp	LBB36_11
LBB36_6:
	movl	88(%ebp), %ecx
	testl	%ecx, %ecx
	je	LBB36_11
	decl	%ecx
	jmp	LBB36_10
LBB36_8:
	movl	88(%ebp), %ecx
	cmpl	80(%ebp), %ecx
	jae	LBB36_11
	incl	%ecx
	jmp	LBB36_10
LBB36_5:
	movl	80(%ebp), %ecx
LBB36_10:
	movl	%ecx, 88(%ebp)
LBB36_11:
	movl	(%eax), %edi
	cmpl	$9, %edi
	jg	LBB36_22
	testl	%edi, %edi
	je	LBB36_299
	cmpl	$8, %edi
	jne	LBB36_31
	movl	88(%ebp), %eax
	testl	%eax, %eax
	je	LBB36_299
	leal	76(%ebp), %esi
	decl	%eax
	movl	%eax, 4(%esp)
	movl	$0, (%esp)
	leal	96(%esp), %edi
	movl	%edi, %ecx
	movl	%esi, %edx
	calll	__ZN6common6string6String6substr20h368d5ca1bfe0df04GVaE
	movl	80(%ebp), %eax
	movl	88(%ebp), %ecx
	subl	%ecx, %eax
	movl	%eax, 4(%esp)
	movl	%ecx, (%esp)
	leal	388(%esp), %ebx
	movl	%ebx, %ecx
	movl	%esi, %edx
	calll	__ZN6common6string6String6substr20h368d5ca1bfe0df04GVaE
	movl	%ebx, 8(%esp)
	movl	%edi, 4(%esp)
	leal	408(%esp), %eax
	movl	%eax, (%esp)
	calll	__ZN6common6string10String.Add3add20h04bec0cc0ad33a3fH6aE
	movzbl	84(%ebp), %eax
	cmpl	$212, %eax
	jne	LBB36_21
	movl	(%esi), %eax
	testl	%eax, %eax
	je	LBB36_20
	movl	$7344128, %ecx
	.align	16, 0x90
LBB36_18:
	cmpl	%eax, (%ecx)
	jne	LBB36_19
	movl	$0, (%ecx)
LBB36_19:
	addl	$4, %ecx
	cmpl	$11538432, %ecx
	jne	LBB36_18
LBB36_20:
	movl	$0, 76(%ebp)
	movl	$0, 80(%ebp)
LBB36_21:
	movl	416(%esp), %eax
	movl	%eax, 8(%esi)
	movsd	408(%esp), %xmm0
	movsd	%xmm0, (%esi)
	decl	88(%ebp)
	jmp	LBB36_299
LBB36_22:
	cmpl	$10, %edi
	jne	LBB36_23
	cmpl	$0, 80(%ebp)
	je	LBB36_299
	leal	76(%ebp), %esi
	movl	%esi, 64(%esp)
	leal	64(%ebp), %edx
	movl	%edx, 68(%esp)
	movl	68(%ebp), %eax
	movl	%eax, 4(%esp)
	movl	$0, (%esp)
	leal	96(%esp), %ebx
	movl	%ebx, %ecx
	calll	__ZN6common6string6String6substr20h368d5ca1bfe0df04GVaE
	movl	$2, (%esp)
	leal	340(%esp), %edi
	movl	$_str5262, %edx
	movl	%edi, %ecx
	calll	__ZN6common6string6String8from_str20hec6818acef1847f3cNaE
	movl	%edi, 8(%esp)
	movl	%ebx, 4(%esp)
	leal	408(%esp), %edi
	movl	%edi, (%esp)
	calll	__ZN6common6string10String.Add3add20h04bec0cc0ad33a3fH6aE
	movl	80(%ebp), %eax
	movl	%eax, 4(%esp)
	movl	$0, (%esp)
	movl	%ebx, %ecx
	movl	%esi, %edx
	movl	%edi, %esi
	calll	__ZN6common6string6String6substr20h368d5ca1bfe0df04GVaE
	movl	%ebx, 8(%esp)
	movl	%esi, 4(%esp)
	leal	72(%esp), %eax
	movl	%eax, (%esp)
	calll	__ZN6common6string10String.Add3add20h04bec0cc0ad33a3fH6aE
	movl	$1, (%esp)
	movl	$_str5240, %edx
	movl	%esi, %ecx
	calll	__ZN6common6string6String8from_str20hec6818acef1847f3cNaE
	movl	80(%esp), %eax
	movl	%eax, 104(%esp)
	movsd	72(%esp), %xmm0
	movsd	%xmm0, 96(%esp)
	movl	%esi, 8(%esp)
	movl	%ebx, 4(%esp)
	leal	388(%esp), %eax
	movl	%eax, (%esp)
	calll	__ZN6common6string10String.Add3add20h04bec0cc0ad33a3fH6aE
	movl	68(%esp), %edx
	movzbl	72(%ebp), %eax
	cmpl	$212, %eax
	jne	LBB36_48
	movl	(%edx), %eax
	testl	%eax, %eax
	je	LBB36_47
	movl	$7344128, %ecx
	.align	16, 0x90
LBB36_45:
	cmpl	%eax, (%ecx)
	jne	LBB36_46
	movl	$0, (%ecx)
LBB36_46:
	addl	$4, %ecx
	cmpl	$11538432, %ecx
	jne	LBB36_45
LBB36_47:
	movl	$0, 64(%ebp)
	movl	$0, 68(%ebp)
LBB36_48:
	movl	396(%esp), %eax
	movl	%eax, 8(%edx)
	movsd	388(%esp), %xmm0
	movsd	%xmm0, (%edx)
	movl	$0, 192(%esp)
	movl	$0, 196(%esp)
	movb	$-44, 200(%esp)
	movl	$1, (%esp)
	leal	180(%esp), %ecx
	movl	$_str5242, %edx
	calll	__ZN6common6string6String8from_str20hec6818acef1847f3cNaE
	movl	64(%esp), %eax
	movl	%eax, 408(%esp)
	movl	$0, 412(%esp)
	movl	188(%esp), %eax
	movl	%eax, 424(%esp)
	movsd	180(%esp), %xmm0
	movsd	%xmm0, 416(%esp)
	movl	%esi, 4(%esp)
	movl	%ebx, (%esp)
	calll	__ZN6common6string28Split$LT$$u27$a$GT$.Iterator4next20hcfbe29560e3403c8dLaE
	cmpl	$1, 96(%esp)
	jne	LBB36_51
	leal	100(%esp), %edi
	leal	388(%esp), %ebp
	.align	16, 0x90
LBB36_50:
	movl	8(%edi), %eax
	movl	%eax, 396(%esp)
	movsd	(%edi), %xmm0
	movsd	%xmm0, 388(%esp)
	leal	192(%esp), %ecx
	movl	%ebp, %edx
	calll	__ZN6common6vector15Vector$LT$T$GT$4push21h11408598412586930578E
	movl	%esi, 4(%esp)
	movl	%ebx, (%esp)
	calll	__ZN6common6string28Split$LT$$u27$a$GT$.Iterator4next20hcfbe29560e3403c8dLaE
	cmpl	$1, 96(%esp)
	je	LBB36_50
LBB36_51:
	movzbl	424(%esp), %eax
	cmpl	$212, %eax
	jne	LBB36_57
	movl	416(%esp), %eax
	testl	%eax, %eax
	je	LBB36_56
	movl	$7344128, %ecx
	.align	16, 0x90
LBB36_54:
	cmpl	%eax, (%ecx)
	jne	LBB36_55
	movl	$0, (%ecx)
LBB36_55:
	addl	$4, %ecx
	cmpl	$11538432, %ecx
	jne	LBB36_54
LBB36_56:
	movl	$0, 416(%esp)
	movl	$0, 420(%esp)
LBB36_57:
	movl	196(%esp), %ebp
	testl	%ebp, %ebp
	je	LBB36_284
	movl	192(%esp), %edi
	movl	$3, (%esp)
	leal	168(%esp), %ecx
	movl	$_str5245, %edx
	calll	__ZN6common6string6String8from_str20hec6818acef1847f3cNaE
	movl	4(%edi), %eax
	cmpl	172(%esp), %eax
	jne	LBB36_62
	movl	(%edi), %ecx
	xorl	%edx, %edx
	movl	168(%esp), %ebx
	.align	16, 0x90
LBB36_60:
	cmpl	%eax, %edx
	jae	LBB36_64
	incl	%edx
	movl	(%ecx), %esi
	addl	$4, %ecx
	cmpl	(%ebx), %esi
	leal	4(%ebx), %ebx
	je	LBB36_60
LBB36_62:
	movl	$35, (%esp)
	leal	340(%esp), %ecx
	movl	$_str5248, %edx
	calll	__ZN6common6string6String8from_str20hec6818acef1847f3cNaE
	movl	524(%esp), %esi
	movl	68(%esi), %eax
	movl	%eax, 4(%esp)
	movl	$0, (%esp)
	leal	408(%esp), %ebp
	movl	%ebp, %ecx
	movl	68(%esp), %ebx
	movl	%ebx, %edx
	calll	__ZN6common6string6String6substr20h368d5ca1bfe0df04GVaE
	movl	348(%esp), %eax
	movl	%eax, 104(%esp)
	movsd	340(%esp), %xmm0
	movsd	%xmm0, 96(%esp)
	movl	$488447261, 348(%esp)
	movl	$488447261, 344(%esp)
	movl	$488447261, 340(%esp)
	leal	96(%esp), %eax
	movl	%eax, %edi
	movl	%edi, 8(%esp)
	movl	%ebp, 4(%esp)
	leal	204(%esp), %eax
	movl	%eax, (%esp)
	calll	__ZN6common6string10String.Add3add20h04bec0cc0ad33a3fH6aE
	movl	$1, (%esp)
	movl	$_str5240, %edx
	movl	%ebp, %ecx
	calll	__ZN6common6string6String8from_str20hec6818acef1847f3cNaE
	movl	212(%esp), %eax
	movl	%eax, 104(%esp)
	movsd	204(%esp), %xmm0
	movsd	%xmm0, 96(%esp)
	movl	%ebp, 8(%esp)
	movl	%edi, 4(%esp)
	leal	388(%esp), %eax
	movl	%eax, (%esp)
	calll	__ZN6common6string10String.Add3add20h04bec0cc0ad33a3fH6aE
	movzbl	72(%esi), %eax
	cmpl	$212, %eax
	jne	LBB36_63
	movl	(%ebx), %eax
	testl	%eax, %eax
	je	LBB36_63
	movl	$7344128, %ecx
	.align	16, 0x90
LBB36_270:
	cmpl	%eax, (%ecx)
	jne	LBB36_271
	movl	$0, (%ecx)
LBB36_271:
	addl	$4, %ecx
	cmpl	$11538432, %ecx
	jne	LBB36_270
	movzbl	348(%esp), %eax
	movl	396(%esp), %ecx
	movl	%ecx, 8(%ebx)
	movsd	388(%esp), %xmm0
	movsd	%xmm0, (%ebx)
	cmpl	$212, %eax
	jne	LBB36_278
	movl	340(%esp), %eax
	testl	%eax, %eax
	je	LBB36_277
	movl	$7344128, %ecx
LBB36_275:
	cmpl	%eax, (%ecx)
	jne	LBB36_276
	movl	$0, (%ecx)
LBB36_276:
	addl	$4, %ecx
	cmpl	$11538432, %ecx
	jne	LBB36_275
LBB36_277:
	movl	$0, 340(%esp)
	movl	$0, 344(%esp)
	jmp	LBB36_278
LBB36_23:
	cmpl	$27, %edi
	jne	LBB36_31
	movzbl	84(%ebp), %eax
	cmpl	$212, %eax
	jne	LBB36_30
	movl	76(%ebp), %eax
	testl	%eax, %eax
	je	LBB36_29
	movl	$7344128, %ecx
	.align	16, 0x90
LBB36_27:
	cmpl	%eax, (%ecx)
	jne	LBB36_28
	movl	$0, (%ecx)
LBB36_28:
	addl	$4, %ecx
	cmpl	$11538432, %ecx
	jne	LBB36_27
LBB36_29:
	movl	$0, 76(%ebp)
	movl	$0, 80(%ebp)
LBB36_30:
	movl	$0, 76(%ebp)
	movl	$0, 80(%ebp)
	movb	$-44, 84(%ebp)
	movb	410(%esp), %al
	movb	%al, 87(%ebp)
	movw	408(%esp), %ax
	movw	%ax, 85(%ebp)
	jmp	LBB36_299
LBB36_31:
	leal	76(%ebp), %esi
	movl	88(%ebp), %eax
	movl	%eax, 4(%esp)
	movl	$0, (%esp)
	leal	280(%esp), %ecx
	movl	%esi, %edx
	calll	__ZN6common6string6String6substr20h368d5ca1bfe0df04GVaE
	movl	$-1, %eax
	movl	$7344128, %edx
	.align	16, 0x90
LBB36_32:
	movl	%edx, %ecx
	incl	%eax
	leal	4(%ecx), %edx
	cmpl	$0, (%ecx)
	jne	LBB36_32
	shll	$12, %eax
	leal	11538432(%eax), %edx
	movl	%edx, (%ecx)
	movl	%edi, 11538432(%eax)
	movl	%edx, 408(%esp)
	movl	$1, 412(%esp)
	movb	$-44, 416(%esp)
	movl	288(%esp), %eax
	movl	%eax, 104(%esp)
	movsd	280(%esp), %xmm0
	movsd	%xmm0, 96(%esp)
	leal	408(%esp), %edi
	movl	%edi, 8(%esp)
	leal	96(%esp), %eax
	movl	%eax, 4(%esp)
	leal	340(%esp), %ebx
	movl	%ebx, (%esp)
	calll	__ZN6common6string10String.Add3add20h04bec0cc0ad33a3fH6aE
	movl	80(%ebp), %eax
	movl	88(%ebp), %ecx
	subl	%ecx, %eax
	movl	%eax, 4(%esp)
	movl	%ecx, (%esp)
	movl	%edi, %ecx
	movl	%esi, %edx
	calll	__ZN6common6string6String6substr20h368d5ca1bfe0df04GVaE
	movl	%edi, 8(%esp)
	movl	%ebx, 4(%esp)
	leal	388(%esp), %eax
	movl	%eax, (%esp)
	calll	__ZN6common6string10String.Add3add20h04bec0cc0ad33a3fH6aE
	movzbl	84(%ebp), %eax
	cmpl	$212, %eax
	jne	LBB36_39
	movl	(%esi), %eax
	testl	%eax, %eax
	je	LBB36_38
	movl	$7344128, %ecx
	.align	16, 0x90
LBB36_36:
	cmpl	%eax, (%ecx)
	jne	LBB36_37
	movl	$0, (%ecx)
LBB36_37:
	addl	$4, %ecx
	cmpl	$11538432, %ecx
	jne	LBB36_36
LBB36_38:
	movl	$0, 76(%ebp)
	movl	$0, 80(%ebp)
LBB36_39:
	movl	396(%esp), %eax
	movl	%eax, 8(%esi)
	movsd	388(%esp), %xmm0
	movsd	%xmm0, (%esi)
	incl	88(%ebp)
	jmp	LBB36_299
LBB36_63:
	movl	396(%esp), %eax
	movl	%eax, 8(%ebx)
	movsd	388(%esp), %xmm0
	movsd	%xmm0, (%ebx)
	jmp	LBB36_278
LBB36_64:
	cmpl	$1, %ebp
	jbe	LBB36_65
	movl	16(%edi), %eax
	addl	$12, %edi
	movl	%eax, 4(%esp)
	movl	$0, (%esp)
	leal	84(%esp), %esi
	movl	%esi, %ecx
	movl	%edi, %edx
	calll	__ZN6common6string6String6substr20h368d5ca1bfe0df04GVaE
	movl	$0, 408(%esp)
	movl	$0, 412(%esp)
	movb	$-44, 416(%esp)
	movl	$0, 420(%esp)
	movl	$0, 424(%esp)
	movb	$-44, 428(%esp)
	movl	$0, 432(%esp)
	movl	$0, 436(%esp)
	movb	$-44, 440(%esp)
	movl	$0, 444(%esp)
	movl	$0, 448(%esp)
	movb	$-44, 452(%esp)
	movl	$0, 456(%esp)
	movl	$0, 460(%esp)
	movb	$-44, 464(%esp)
	movl	$0, 468(%esp)
	movl	$0, 472(%esp)
	movb	$-44, 476(%esp)
	movl	$1, (%esp)
	leal	376(%esp), %ecx
	movl	$_str5045, %edx
	calll	__ZN6common6string6String8from_str20hec6818acef1847f3cNaE
	movl	%esi, 388(%esp)
	movl	$0, 392(%esp)
	movl	384(%esp), %eax
	movl	%eax, 404(%esp)
	movsd	376(%esp), %xmm0
	movsd	%xmm0, 396(%esp)
	leal	388(%esp), %eax
	movl	%eax, 4(%esp)
	leal	360(%esp), %eax
	movl	%eax, (%esp)
	calll	__ZN6common6string28Split$LT$$u27$a$GT$.Iterator4next20hcfbe29560e3403c8dLaE
	cmpl	$1, 360(%esp)
	leal	340(%esp), %edi
	jne	LBB36_78
	movb	$61, 60(%esp)
	movb	$61, %bh
	movb	$61, %bl
	xorl	%esi, %esi
	leal	256(%esp), %ebp
LBB36_72:
	testl	%esi, %esi
	je	LBB36_109
	cmpl	$1, %esi
	je	LBB36_212
	cmpl	$2, %esi
	jne	LBB36_75
	movl	%esi, 56(%esp)
	movl	$1, (%esp)
	movl	$_str5054, %edx
	leal	316(%esp), %ecx
	calll	__ZN6common6string6String8from_str20hec6818acef1847f3cNaE
	leal	364(%esp), %eax
	movl	%eax, 340(%esp)
	movl	$0, 344(%esp)
	movl	324(%esp), %eax
	leal	348(%esp), %ecx
	movl	%eax, 8(%ecx)
	movsd	316(%esp), %xmm0
	movsd	%xmm0, (%ecx)
	movl	%edi, 4(%esp)
	leal	300(%esp), %eax
	movl	%eax, (%esp)
	calll	__ZN6common6string28Split$LT$$u27$a$GT$.Iterator4next20hcfbe29560e3403c8dLaE
	xorl	%esi, %esi
	jmp	LBB36_111
	.align	16, 0x90
LBB36_181:
	incl	%esi
	movl	%edi, 4(%esp)
	leal	300(%esp), %eax
	movl	%eax, (%esp)
	calll	__ZN6common6string28Split$LT$$u27$a$GT$.Iterator4next20hcfbe29560e3403c8dLaE
LBB36_111:
	cmpl	$1, 300(%esp)
	jne	LBB36_182
	movl	$1, (%esp)
	movl	$_str5048, %edx
	leal	268(%esp), %ecx
	calll	__ZN6common6string6String8from_str20hec6818acef1847f3cNaE
	leal	304(%esp), %eax
	movl	%eax, 280(%esp)
	movl	$0, 284(%esp)
	movl	276(%esp), %eax
	leal	288(%esp), %ecx
	movl	%eax, 8(%ecx)
	movsd	268(%esp), %xmm0
	movsd	%xmm0, (%ecx)
	leal	280(%esp), %eax
	movl	%eax, 4(%esp)
	leal	252(%esp), %eax
	movl	%eax, (%esp)
	calll	__ZN6common6string28Split$LT$$u27$a$GT$.Iterator4next20hcfbe29560e3403c8dLaE
	cmpl	$1, 252(%esp)
	movl	$0, %edi
	jne	LBB36_171
	jmp	LBB36_113
	.align	16, 0x90
LBB36_218:
	movzbl	264(%esp), %eax
	cmpl	$212, %eax
	jne	LBB36_170
	movl	256(%esp), %eax
	movl	$7344128, %ecx
	testl	%eax, %eax
	je	LBB36_222
	.align	16, 0x90
LBB36_220:
	cmpl	%eax, (%ecx)
	jne	LBB36_221
	movl	$0, (%ecx)
LBB36_221:
	addl	$4, %ecx
	cmpl	$11538432, %ecx
	jne	LBB36_220
LBB36_222:
	movl	$0, 256(%esp)
	movl	$0, 260(%esp)
	jmp	LBB36_170
	.align	16, 0x90
LBB36_113:
	cmpl	$1, %esi
	jne	LBB36_114
	testl	%edi, %edi
	jne	LBB36_146
	movl	8(%ebp), %eax
	movl	%eax, 248(%esp)
	movsd	(%ebp), %xmm0
	movsd	%xmm0, 240(%esp)
	movl	$488447261, 8(%ebp)
	movl	$488447261, 4(%ebp)
	movl	$488447261, (%ebp)
	movzbl	452(%esp), %eax
	cmpl	$212, %eax
	jne	LBB36_166
	movl	444(%esp), %eax
	movl	$7344128, %ecx
	testl	%eax, %eax
	je	LBB36_165
	.align	16, 0x90
LBB36_163:
	cmpl	%eax, (%ecx)
	jne	LBB36_164
	movl	$0, (%ecx)
LBB36_164:
	addl	$4, %ecx
	cmpl	$11538432, %ecx
	jne	LBB36_163
LBB36_165:
	movl	$0, 444(%esp)
	movl	$0, 448(%esp)
LBB36_166:
	movl	248(%esp), %eax
	leal	444(%esp), %ecx
	jmp	LBB36_153
	.align	16, 0x90
LBB36_114:
	testl	%esi, %esi
	jne	LBB36_168
	testl	%edi, %edi
	jne	LBB36_116
	movl	8(%ebp), %eax
	movl	%eax, 248(%esp)
	movsd	(%ebp), %xmm0
	movsd	%xmm0, 240(%esp)
	movl	$488447261, 8(%ebp)
	movl	$488447261, 4(%ebp)
	movl	$488447261, (%ebp)
	movzbl	428(%esp), %eax
	cmpl	$212, %eax
	jne	LBB36_159
	movl	420(%esp), %eax
	movl	$7344128, %ecx
	testl	%eax, %eax
	je	LBB36_158
	.align	16, 0x90
LBB36_156:
	cmpl	%eax, (%ecx)
	jne	LBB36_157
	movl	$0, (%ecx)
LBB36_157:
	addl	$4, %ecx
	cmpl	$11538432, %ecx
	jne	LBB36_156
LBB36_158:
	movl	$0, 420(%esp)
	movl	$0, 424(%esp)
LBB36_159:
	movl	248(%esp), %eax
	leal	420(%esp), %ecx
	jmp	LBB36_153
	.align	16, 0x90
LBB36_146:
	cmpl	$1, %edi
	jne	LBB36_168
	movl	8(%ebp), %eax
	movl	%eax, 248(%esp)
	movsd	(%ebp), %xmm0
	movsd	%xmm0, 240(%esp)
	movl	$488447261, 8(%ebp)
	movl	$488447261, 4(%ebp)
	movl	$488447261, (%ebp)
	movzbl	464(%esp), %eax
	cmpl	$212, %eax
	jne	LBB36_152
	movl	456(%esp), %eax
	movl	$7344128, %ecx
	testl	%eax, %eax
	je	LBB36_151
	.align	16, 0x90
LBB36_149:
	cmpl	%eax, (%ecx)
	jne	LBB36_150
	movl	$0, (%ecx)
LBB36_150:
	addl	$4, %ecx
	cmpl	$11538432, %ecx
	jne	LBB36_149
LBB36_151:
	movl	$0, 456(%esp)
	movl	$0, 460(%esp)
LBB36_152:
	movl	248(%esp), %eax
	leal	456(%esp), %ecx
	jmp	LBB36_153
LBB36_116:
	cmpl	$1, %edi
	jne	LBB36_168
	movl	8(%ebp), %eax
	movl	%eax, 248(%esp)
	movsd	(%ebp), %xmm0
	movsd	%xmm0, 240(%esp)
	movl	$488447261, 8(%ebp)
	movl	$488447261, 4(%ebp)
	movl	$488447261, (%ebp)
	movzbl	440(%esp), %eax
	cmpl	$212, %eax
	jne	LBB36_122
	movl	432(%esp), %eax
	movl	$7344128, %ecx
	testl	%eax, %eax
	je	LBB36_121
	.align	16, 0x90
LBB36_119:
	cmpl	%eax, (%ecx)
	jne	LBB36_120
	movl	$0, (%ecx)
LBB36_120:
	addl	$4, %ecx
	cmpl	$11538432, %ecx
	jne	LBB36_119
LBB36_121:
	movl	$0, 432(%esp)
	movl	$0, 436(%esp)
LBB36_122:
	movl	248(%esp), %eax
	leal	432(%esp), %ecx
	.align	16, 0x90
LBB36_153:
	movl	%eax, 8(%ecx)
	movsd	240(%esp), %xmm0
	movsd	%xmm0, (%ecx)
	incl	%edi
	jmp	LBB36_169
	.align	16, 0x90
LBB36_168:
	incl	%edi
	movzbl	%bl, %eax
	cmpl	$45, %eax
	jne	LBB36_218
LBB36_169:
	movb	$45, %bl
LBB36_170:
	leal	280(%esp), %eax
	movl	%eax, 4(%esp)
	leal	252(%esp), %eax
	movl	%eax, (%esp)
	calll	__ZN6common6string28Split$LT$$u27$a$GT$.Iterator4next20hcfbe29560e3403c8dLaE
	cmpl	$1, 252(%esp)
	je	LBB36_113
LBB36_171:
	movzbl	296(%esp), %eax
	cmpl	$212, %eax
	leal	340(%esp), %edi
	jne	LBB36_176
	movl	288(%esp), %eax
	movl	$7344128, %ecx
	testl	%eax, %eax
	je	LBB36_175
	.align	16, 0x90
LBB36_173:
	cmpl	%eax, (%ecx)
	jne	LBB36_174
	movl	$0, (%ecx)
LBB36_174:
	addl	$4, %ecx
	cmpl	$11538432, %ecx
	jne	LBB36_173
LBB36_175:
	movl	$0, 288(%esp)
	movl	$0, 292(%esp)
LBB36_176:
	movzbl	312(%esp), %eax
	cmpl	$212, %eax
	jne	LBB36_181
	movl	304(%esp), %eax
	movl	$7344128, %ecx
	testl	%eax, %eax
	je	LBB36_180
	.align	16, 0x90
LBB36_178:
	cmpl	%eax, (%ecx)
	jne	LBB36_179
	movl	$0, (%ecx)
LBB36_179:
	addl	$4, %ecx
	cmpl	$11538432, %ecx
	jne	LBB36_178
LBB36_180:
	movl	$0, 304(%esp)
	movl	$0, 308(%esp)
	jmp	LBB36_181
LBB36_109:
	movl	%esi, 56(%esp)
	movl	$1, (%esp)
	movl	$_str5048, %edx
	leal	328(%esp), %ecx
	calll	__ZN6common6string6String8from_str20hec6818acef1847f3cNaE
	leal	364(%esp), %eax
	movl	%eax, 340(%esp)
	movl	$0, 344(%esp)
	movl	336(%esp), %eax
	leal	348(%esp), %ecx
	movl	%eax, 8(%ecx)
	movsd	328(%esp), %xmm0
	movsd	%xmm0, (%ecx)
	movl	%edi, 4(%esp)
	leal	280(%esp), %eax
	movl	%eax, (%esp)
	calll	__ZN6common6string28Split$LT$$u27$a$GT$.Iterator4next20hcfbe29560e3403c8dLaE
	xorl	%esi, %esi
	jmp	LBB36_133
	.align	16, 0x90
LBB36_132:
	movl	%edi, 4(%esp)
	leal	280(%esp), %eax
	movl	%eax, (%esp)
	calll	__ZN6common6string28Split$LT$$u27$a$GT$.Iterator4next20hcfbe29560e3403c8dLaE
LBB36_133:
	cmpl	$1, 280(%esp)
	jne	LBB36_134
	testl	%esi, %esi
	je	LBB36_124
	incl	%esi
	movzbl	%bh, %eax
	cmpl	$45, %eax
	jne	LBB36_139
	movb	$45, %bh
	jmp	LBB36_132
	.align	16, 0x90
LBB36_124:
	leal	284(%esp), %eax
	movl	%eax, %ecx
	movl	8(%ecx), %eax
	movl	%eax, 308(%esp)
	movsd	(%ecx), %xmm0
	movsd	%xmm0, 300(%esp)
	movl	$488447261, 8(%ecx)
	movl	$488447261, 4(%ecx)
	movl	$488447261, (%ecx)
	movzbl	416(%esp), %eax
	cmpl	$212, %eax
	jne	LBB36_129
	movl	408(%esp), %eax
	movl	$7344128, %ecx
	testl	%eax, %eax
	je	LBB36_128
	.align	16, 0x90
LBB36_126:
	cmpl	%eax, (%ecx)
	jne	LBB36_127
	movl	$0, (%ecx)
LBB36_127:
	addl	$4, %ecx
	cmpl	$11538432, %ecx
	jne	LBB36_126
LBB36_128:
	movl	$0, 408(%esp)
	movl	$0, 412(%esp)
LBB36_129:
	movl	308(%esp), %eax
	movl	%eax, 416(%esp)
	movsd	300(%esp), %xmm0
	movsd	%xmm0, 408(%esp)
	movb	$45, %bh
	movl	$1, %esi
	jmp	LBB36_132
	.align	16, 0x90
LBB36_139:
	movzbl	292(%esp), %eax
	cmpl	$212, %eax
	jne	LBB36_132
	movl	284(%esp), %eax
	movl	$7344128, %ecx
	testl	%eax, %eax
	je	LBB36_143
	.align	16, 0x90
LBB36_141:
	cmpl	%eax, (%ecx)
	jne	LBB36_142
	movl	$0, (%ecx)
LBB36_142:
	addl	$4, %ecx
	cmpl	$11538432, %ecx
	jne	LBB36_141
LBB36_143:
	movl	$0, 284(%esp)
	movl	$0, 288(%esp)
	jmp	LBB36_132
LBB36_134:
	movzbl	356(%esp), %eax
	cmpl	$212, %eax
	jne	LBB36_211
	movl	348(%esp), %eax
	movl	$7344128, %ecx
	testl	%eax, %eax
	je	LBB36_138
	.align	16, 0x90
LBB36_136:
	cmpl	%eax, (%ecx)
	jne	LBB36_137
	movl	$0, (%ecx)
LBB36_137:
	addl	$4, %ecx
	cmpl	$11538432, %ecx
	jne	LBB36_136
LBB36_138:
	movl	$0, 348(%esp)
	movl	$0, 352(%esp)
	jmp	LBB36_211
LBB36_75:
	leal	364(%esp), %eax
	movl	%eax, %ecx
	movl	8(%ecx), %eax
	movl	%eax, 348(%esp)
	movsd	(%ecx), %xmm0
	movsd	%xmm0, 340(%esp)
	movl	$488447261, 8(%ecx)
	movl	$488447261, 4(%ecx)
	movl	$488447261, (%ecx)
	leal	468(%esp), %ecx
	movl	%edi, %edx
	calll	__ZN6common6vector15Vector$LT$T$GT$4push21h11408598412586930578E
	incl	%esi
	jmp	LBB36_76
LBB36_182:
	movzbl	356(%esp), %eax
	cmpl	$212, %eax
	jne	LBB36_187
	movl	348(%esp), %eax
	movl	$7344128, %ecx
	testl	%eax, %eax
	je	LBB36_186
	.align	16, 0x90
LBB36_184:
	cmpl	%eax, (%ecx)
	jne	LBB36_185
	movl	$0, (%ecx)
LBB36_185:
	addl	$4, %ecx
	cmpl	$11538432, %ecx
	jne	LBB36_184
LBB36_186:
	movl	$0, 348(%esp)
	movl	$0, 352(%esp)
LBB36_187:
	cmpl	$1, %esi
	jne	LBB36_211
	leal	420(%esp), %eax
	movl	%eax, %ecx
	movl	8(%ecx), %eax
	movl	%eax, 348(%esp)
	movsd	(%ecx), %xmm0
	movsd	%xmm0, 340(%esp)
	movl	$488447261, 8(%ecx)
	movl	$488447261, 4(%ecx)
	movl	$488447261, (%ecx)
	movb	$29, %al
	movzbl	452(%esp), %ecx
	cmpl	$212, %ecx
	jne	LBB36_194
	movl	444(%esp), %ecx
	movl	$7344128, %edx
	movb	$29, %al
	testl	%ecx, %ecx
	je	LBB36_193
LBB36_190:
	cmpl	%ecx, (%edx)
	jne	LBB36_191
	movl	$0, (%edx)
LBB36_191:
	addl	$4, %edx
	cmpl	$11538432, %edx
	jne	LBB36_190
	movb	428(%esp), %al
LBB36_193:
	movl	$0, 444(%esp)
	movl	$0, 448(%esp)
LBB36_194:
	movl	348(%esp), %ecx
	leal	444(%esp), %edx
	movl	%ecx, 8(%edx)
	movsd	340(%esp), %xmm0
	movsd	%xmm0, (%edx)
	movzbl	%al, %eax
	cmpl	$212, %eax
	jne	LBB36_199
	movl	420(%esp), %eax
	movl	$7344128, %ecx
	testl	%eax, %eax
	je	LBB36_198
LBB36_196:
	cmpl	%eax, (%ecx)
	jne	LBB36_197
	movl	$0, (%ecx)
LBB36_197:
	addl	$4, %ecx
	cmpl	$11538432, %ecx
	jne	LBB36_196
LBB36_198:
	movl	$0, 420(%esp)
	movl	$0, 424(%esp)
LBB36_199:
	movl	$0, 420(%esp)
	movl	$0, 424(%esp)
	movb	$-44, 428(%esp)
	movb	282(%esp), %al
	leal	429(%esp), %ecx
	movb	%al, 2(%ecx)
	movw	280(%esp), %ax
	movw	%ax, (%ecx)
	leal	432(%esp), %eax
	movl	%eax, %ecx
	movl	8(%ecx), %eax
	movl	%eax, 348(%esp)
	movsd	(%ecx), %xmm0
	movsd	%xmm0, 340(%esp)
	movl	$488447261, 8(%ecx)
	movl	$488447261, 4(%ecx)
	movl	$488447261, (%ecx)
	movb	$29, %al
	movzbl	464(%esp), %ecx
	cmpl	$212, %ecx
	jne	LBB36_205
	movl	456(%esp), %ecx
	movl	$7344128, %edx
	movb	$29, %al
	testl	%ecx, %ecx
	je	LBB36_204
LBB36_201:
	cmpl	%ecx, (%edx)
	jne	LBB36_202
	movl	$0, (%edx)
LBB36_202:
	addl	$4, %edx
	cmpl	$11538432, %edx
	jne	LBB36_201
	movb	440(%esp), %al
LBB36_204:
	movl	$0, 456(%esp)
	movl	$0, 460(%esp)
LBB36_205:
	movl	348(%esp), %ecx
	leal	456(%esp), %edx
	movl	%ecx, 8(%edx)
	movsd	340(%esp), %xmm0
	movsd	%xmm0, (%edx)
	movzbl	%al, %eax
	cmpl	$212, %eax
	jne	LBB36_210
	movl	432(%esp), %eax
	movl	$7344128, %ecx
	testl	%eax, %eax
	je	LBB36_209
LBB36_207:
	cmpl	%eax, (%ecx)
	jne	LBB36_208
	movl	$0, (%ecx)
LBB36_208:
	addl	$4, %ecx
	cmpl	$11538432, %ecx
	jne	LBB36_207
LBB36_209:
	movl	$0, 432(%esp)
	movl	$0, 436(%esp)
LBB36_210:
	movl	$0, 432(%esp)
	movl	$0, 436(%esp)
	movb	$-44, 440(%esp)
	movb	342(%esp), %al
	leal	441(%esp), %ecx
	movb	%al, 2(%ecx)
	movw	340(%esp), %ax
	movw	%ax, (%ecx)
LBB36_211:
	movl	56(%esp), %esi
LBB36_212:
	movb	60(%esp), %cl
	incl	%esi
	movzbl	%cl, %eax
	cmpl	$45, %eax
	jne	LBB36_213
LBB36_76:
	movb	$45, 60(%esp)
	jmp	LBB36_77
LBB36_213:
	movb	%cl, 60(%esp)
	movzbl	372(%esp), %eax
	cmpl	$212, %eax
	jne	LBB36_77
	movl	364(%esp), %eax
	movl	$7344128, %ecx
	testl	%eax, %eax
	je	LBB36_217
	.align	16, 0x90
LBB36_215:
	cmpl	%eax, (%ecx)
	jne	LBB36_216
	movl	$0, (%ecx)
LBB36_216:
	addl	$4, %ecx
	cmpl	$11538432, %ecx
	jne	LBB36_215
LBB36_217:
	movl	$0, 364(%esp)
	movl	$0, 368(%esp)
LBB36_77:
	leal	388(%esp), %eax
	movl	%eax, 4(%esp)
	leal	360(%esp), %eax
	movl	%eax, (%esp)
	calll	__ZN6common6string28Split$LT$$u27$a$GT$.Iterator4next20hcfbe29560e3403c8dLaE
	cmpl	$1, 360(%esp)
	je	LBB36_72
LBB36_78:
	movzbl	404(%esp), %eax
	cmpl	$212, %eax
	jne	LBB36_84
	movl	396(%esp), %eax
	testl	%eax, %eax
	je	LBB36_83
	movl	$7344128, %ecx
LBB36_81:
	cmpl	%eax, (%ecx)
	jne	LBB36_82
	movl	$0, (%ecx)
LBB36_82:
	addl	$4, %ecx
	cmpl	$11538432, %ecx
	jne	LBB36_81
LBB36_83:
	movl	$0, 396(%esp)
	movl	$0, 400(%esp)
LBB36_84:
	leal	96(%esp), %edi
	leal	408(%esp), %ebx
	movl	$18, %ecx
	movl	%ebx, %esi
	rep;movsl
	movl	$488447261, %eax
	movl	$18, %ecx
	movl	%ebx, %edi
	rep;stosl
	movl	%ebx, %ecx
	calll	__ZN16common..url..URL9drop.506817h377ce05aa7ec282eE
	movzbl	92(%esp), %eax
	cmpl	$212, %eax
	leal	388(%esp), %ebp
	movl	%ebp, %esi
	jne	LBB36_90
	movl	84(%esp), %eax
	testl	%eax, %eax
	je	LBB36_89
	movl	$7344128, %ecx
LBB36_87:
	cmpl	%eax, (%ecx)
	jne	LBB36_88
	movl	$0, (%ecx)
LBB36_88:
	addl	$4, %ecx
	cmpl	$11538432, %ecx
	jne	LBB36_87
LBB36_89:
	movl	$0, 84(%esp)
	movl	$0, 88(%esp)
LBB36_90:
	movl	100(%esp), %eax
	movl	%eax, 4(%esp)
	movl	$0, (%esp)
	leal	480(%esp), %ecx
	leal	96(%esp), %edx
	calll	__ZN6common6string6String6substr20h368d5ca1bfe0df04GVaE
	movl	$3, (%esp)
	movl	$_str5075, %edx
	movl	%ebx, %ecx
	calll	__ZN6common6string6String8from_str20hec6818acef1847f3cNaE
	movl	488(%esp), %eax
	movl	%eax, 396(%esp)
	movsd	480(%esp), %xmm0
	movsd	%xmm0, 388(%esp)
	movl	%ebx, 8(%esp)
	movl	%esi, 4(%esp)
	leal	340(%esp), %edi
	movl	%edi, (%esp)
	calll	__ZN6common6string10String.Add3add20h04bec0cc0ad33a3fH6aE
	movl	112(%esp), %eax
	testl	%eax, %eax
	movl	%ebx, %ebp
	je	LBB36_94
	leal	108(%esp), %edx
	movl	%eax, 4(%esp)
	movl	$0, (%esp)
	movl	%ebp, %ecx
	calll	__ZN6common6string6String6substr20h368d5ca1bfe0df04GVaE
	movl	348(%esp), %eax
	movl	%eax, 396(%esp)
	movsd	340(%esp), %xmm0
	movsd	%xmm0, 388(%esp)
	movl	%ebp, 8(%esp)
	movl	%esi, 4(%esp)
	movl	%edi, (%esp)
	calll	__ZN6common6string10String.Add3add20h04bec0cc0ad33a3fH6aE
	movl	%esi, %ebx
	movl	124(%esp), %esi
	testl	%esi, %esi
	je	LBB36_93
	movl	%ebp, %ebx
	movl	%edi, %ebp
	leal	120(%esp), %edi
	movl	$1, (%esp)
	movl	$_str5048, %edx
	movl	%ebx, %ecx
	calll	__ZN6common6string6String8from_str20hec6818acef1847f3cNaE
	movl	348(%esp), %eax
	movl	%eax, 396(%esp)
	movsd	340(%esp), %xmm0
	movsd	%xmm0, 388(%esp)
	movl	%ebx, 8(%esp)
	leal	388(%esp), %eax
	movl	%eax, 4(%esp)
	leal	280(%esp), %eax
	movl	%eax, (%esp)
	calll	__ZN6common6string10String.Add3add20h04bec0cc0ad33a3fH6aE
	movl	%esi, 4(%esp)
	movl	$0, (%esp)
	movl	%ebx, %ecx
	movl	%edi, %edx
	movl	%ebp, %edi
	movl	%ebx, %ebp
	leal	388(%esp), %ebx
	calll	__ZN6common6string6String6substr20h368d5ca1bfe0df04GVaE
	movl	%ebp, 8(%esp)
	leal	280(%esp), %eax
	movl	%eax, 4(%esp)
	movl	%edi, (%esp)
	calll	__ZN6common6string10String.Add3add20h04bec0cc0ad33a3fH6aE
LBB36_93:
	movl	$1, (%esp)
	movl	$_str5054, %edx
	movl	%ebp, %ecx
	calll	__ZN6common6string6String8from_str20hec6818acef1847f3cNaE
	movl	348(%esp), %eax
	movl	%eax, 396(%esp)
	movsd	340(%esp), %xmm0
	movsd	%xmm0, 388(%esp)
	movl	%ebp, 8(%esp)
	movl	%ebx, 4(%esp)
	movl	%edi, (%esp)
	calll	__ZN6common6string10String.Add3add20h04bec0cc0ad33a3fH6aE
LBB36_94:
	movl	136(%esp), %eax
	testl	%eax, %eax
	je	LBB36_97
	leal	132(%esp), %edx
	movl	%eax, 4(%esp)
	movl	$0, (%esp)
	movl	%ebp, %ecx
	calll	__ZN6common6string6String6substr20h368d5ca1bfe0df04GVaE
	movl	348(%esp), %eax
	movl	%eax, 396(%esp)
	movsd	340(%esp), %xmm0
	movsd	%xmm0, 388(%esp)
	movl	%ebp, 8(%esp)
	leal	388(%esp), %eax
	movl	%eax, 4(%esp)
	movl	%edi, (%esp)
	calll	__ZN6common6string10String.Add3add20h04bec0cc0ad33a3fH6aE
	movl	148(%esp), %esi
	testl	%esi, %esi
	je	LBB36_97
	movl	%ebp, %ebx
	movl	%edi, %ebp
	movl	$1, (%esp)
	movl	$_str5048, %edx
	movl	%ebx, %ecx
	calll	__ZN6common6string6String8from_str20hec6818acef1847f3cNaE
	movl	348(%esp), %eax
	movl	%eax, 396(%esp)
	movsd	340(%esp), %xmm0
	movsd	%xmm0, 388(%esp)
	movl	%ebx, 8(%esp)
	leal	388(%esp), %eax
	movl	%eax, 4(%esp)
	leal	280(%esp), %edi
	movl	%edi, (%esp)
	calll	__ZN6common6string10String.Add3add20h04bec0cc0ad33a3fH6aE
	movl	%esi, 4(%esp)
	movl	$0, (%esp)
	movl	%ebx, %ecx
	leal	144(%esp), %edx
	movl	%ebp, %esi
	movl	%ebx, %ebp
	calll	__ZN6common6string6String6substr20h368d5ca1bfe0df04GVaE
	movl	%ebp, 8(%esp)
	movl	%edi, 4(%esp)
	movl	%esi, (%esp)
	calll	__ZN6common6string10String.Add3add20h04bec0cc0ad33a3fH6aE
LBB36_97:
	movl	156(%esp), %ecx
	movl	160(%esp), %edx
	xorl	%eax, %eax
	movl	%edx, %esi
	orl	%ecx, %esi
	movl	$_ref_mut_slice5080, %edi
	cmovnel	%ecx, %edi
	cmovnel	%edx, %eax
	testl	%eax, %eax
	je	LBB36_101
	testl	%edi, %edi
	je	LBB36_101
	shll	$2, %eax
	leal	(%eax,%eax,2), %esi
	leal	280(%esp), %ebx
LBB36_100:
	movl	$1, (%esp)
	movl	$_str5045, %edx
	movl	%ebp, %ecx
	calll	__ZN6common6string6String8from_str20hec6818acef1847f3cNaE
	movl	348(%esp), %eax
	movl	%eax, 396(%esp)
	movsd	340(%esp), %xmm0
	movsd	%xmm0, 388(%esp)
	movl	%ebp, 8(%esp)
	leal	388(%esp), %eax
	movl	%eax, 4(%esp)
	movl	%ebx, (%esp)
	calll	__ZN6common6string10String.Add3add20h04bec0cc0ad33a3fH6aE
	movl	4(%edi), %eax
	movl	%eax, 4(%esp)
	movl	$0, (%esp)
	movl	%edi, %edx
	leal	12(%edi), %edi
	movl	%ebp, %ecx
	calll	__ZN6common6string6String6substr20h368d5ca1bfe0df04GVaE
	movl	%ebp, 8(%esp)
	movl	%ebx, 4(%esp)
	leal	340(%esp), %eax
	movl	%eax, (%esp)
	calll	__ZN6common6string10String.Add3add20h04bec0cc0ad33a3fH6aE
	addl	$-12, %esi
	jne	LBB36_100
LBB36_101:
	movl	340(%esp), %esi
	movl	344(%esp), %eax
	movl	%eax, 60(%esp)
	movb	348(%esp), %bl
	movb	351(%esp), %al
	movb	%al, 362(%esp)
	movw	349(%esp), %ax
	movw	%ax, 360(%esp)
	movl	524(%esp), %eax
	movl	68(%eax), %eax
	movl	%eax, 4(%esp)
	movl	$0, (%esp)
	movl	%ebp, %ecx
	movl	68(%esp), %edi
	movl	%edi, %edx
	calll	__ZN6common6string6String6substr20h368d5ca1bfe0df04GVaE
	movl	%esi, 388(%esp)
	movl	60(%esp), %eax
	movl	%eax, 392(%esp)
	movb	%bl, 396(%esp)
	movl	%edi, %ebx
	leal	388(%esp), %esi
	movb	362(%esp), %al
	movb	%al, 399(%esp)
	movw	360(%esp), %ax
	movw	%ax, 397(%esp)
	movb	$29, 362(%esp)
	movw	$7453, 360(%esp)
	movl	%esi, 8(%esp)
	movl	%ebp, 4(%esp)
	leal	492(%esp), %eax
	movl	%eax, (%esp)
	calll	__ZN6common6string10String.Add3add20h04bec0cc0ad33a3fH6aE
	movl	$1, (%esp)
	movl	$_str5240, %edx
	movl	%ebp, %ecx
	calll	__ZN6common6string6String8from_str20hec6818acef1847f3cNaE
	movl	500(%esp), %eax
	movl	%eax, 396(%esp)
	movsd	492(%esp), %xmm0
	movsd	%xmm0, 388(%esp)
	movl	%ebp, 8(%esp)
	movl	524(%esp), %edi
	movl	%esi, 4(%esp)
	leal	340(%esp), %eax
	movl	%eax, (%esp)
	calll	__ZN6common6string10String.Add3add20h04bec0cc0ad33a3fH6aE
	movzbl	72(%edi), %eax
	cmpl	$212, %eax
	jne	LBB36_107
	movl	(%ebx), %eax
	testl	%eax, %eax
	je	LBB36_106
	movl	$7344128, %ecx
LBB36_104:
	cmpl	%eax, (%ecx)
	jne	LBB36_105
	movl	$0, (%ecx)
LBB36_105:
	addl	$4, %ecx
	cmpl	$11538432, %ecx
	jne	LBB36_104
LBB36_106:
	movl	$0, 64(%edi)
	movl	$0, 68(%edi)
LBB36_107:
	movl	348(%esp), %eax
	movl	%eax, 8(%ebx)
	movsd	340(%esp), %xmm0
	movsd	%xmm0, (%ebx)
	movl	528(%esp), %eax
	movl	96(%eax), %eax
	movl	%eax, 60(%esp)
	testl	%eax, %eax
	je	LBB36_108
	movb	$-44, 52(%esp)
	xorl	%ebp, %ebp
	xorl	%edi, %edi
	movl	$0, 48(%esp)
LBB36_235:
	movl	%edi, 44(%esp)
	movl	%ebp, %edi
	movl	528(%esp), %edx
LBB36_236:
	leal	1(%edi), %ebp
	cmpl	%edi, 96(%edx)
	jbe	LBB36_248
	movl	92(%edx), %ecx
	movl	%ecx, 56(%esp)
	movl	4(%ecx,%edi,8), %eax
	movl	(%ecx,%edi,8), %ecx
	movl	%ecx, 4(%esp)
	leal	408(%esp), %ecx
	movl	%ecx, (%esp)
	calll	*12(%eax)
	movl	412(%esp), %ecx
	xorl	%edx, %edx
	cmpl	100(%esp), %ecx
	movl	$0, %eax
	jne	LBB36_242
	movl	408(%esp), %esi
	movl	96(%esp), %ebx
	.align	16, 0x90
LBB36_239:
	movb	$1, %al
	cmpl	%ecx, %edx
	jae	LBB36_242
	incl	%edx
	movl	(%esi), %eax
	addl	$4, %esi
	cmpl	(%ebx), %eax
	leal	4(%ebx), %ebx
	je	LBB36_239
	xorl	%eax, %eax
LBB36_242:
	movzbl	416(%esp), %ecx
	cmpl	$212, %ecx
	jne	LBB36_247
	movl	408(%esp), %ecx
	movl	$7344128, %edx
	testl	%ecx, %ecx
	je	LBB36_246
	.align	16, 0x90
LBB36_244:
	cmpl	%ecx, (%edx)
	jne	LBB36_245
	movl	$0, (%edx)
LBB36_245:
	addl	$4, %edx
	cmpl	$11538432, %edx
	jne	LBB36_244
LBB36_246:
	movl	$0, 408(%esp)
	movl	$0, 412(%esp)
LBB36_247:
	testb	%al, %al
	movl	68(%esp), %ebx
	movl	528(%esp), %edx
	movl	60(%esp), %eax
	jne	LBB36_250
LBB36_248:
	cmpl	%eax, %ebp
	movl	%ebp, %edi
	jb	LBB36_236
	jmp	LBB36_249
LBB36_250:
	movl	56(%esp), %ecx
	movl	4(%ecx,%edi,8), %eax
	movl	(%ecx,%edi,8), %ecx
	leal	96(%esp), %esi
	movl	%esi, 12(%esp)
	movl	%edx, 8(%esp)
	movl	%ecx, 4(%esp)
	leal	388(%esp), %ecx
	movl	%ecx, %esi
	movl	%esi, (%esp)
	calll	*16(%eax)
	movl	44(%esp), %eax
	movl	%eax, 340(%esp)
	movl	48(%esp), %eax
	movl	%eax, 344(%esp)
	movb	52(%esp), %al
	movb	%al, 348(%esp)
	movb	282(%esp), %al
	leal	349(%esp), %ecx
	movb	%al, 2(%ecx)
	movw	280(%esp), %ax
	movw	%ax, (%ecx)
	movl	%esi, 8(%esp)
	leal	340(%esp), %eax
	movl	%eax, 4(%esp)
	leal	408(%esp), %eax
	movl	%eax, (%esp)
	calll	__ZN6common6string10String.Add3add20h04bec0cc0ad33a3fH6aE
	movl	408(%esp), %edi
	movl	412(%esp), %eax
	movl	%eax, 48(%esp)
	movb	416(%esp), %al
	movb	%al, 52(%esp)
	leal	417(%esp), %eax
	movl	%eax, %ecx
	movb	2(%ecx), %al
	movb	%al, 282(%esp)
	movw	(%ecx), %ax
	movw	%ax, 280(%esp)
	movl	60(%esp), %eax
	cmpl	%eax, %ebp
	jb	LBB36_235
	jmp	LBB36_251
LBB36_65:
	movl	528(%esp), %edx
	movl	96(%edx), %esi
	movl	%esi, 56(%esp)
	testl	%esi, %esi
	je	LBB36_278
	xorl	%eax, %eax
	movl	%esi, %ecx
	jmp	LBB36_67
LBB36_267:
	movl	96(%edx), %ecx
	movl	%edi, %eax
LBB36_67:
	leal	1(%eax), %edi
	cmpl	%eax, %ecx
	jbe	LBB36_266
	movl	%edi, 60(%esp)
	movl	92(%edx), %ecx
	movl	4(%ecx,%eax,8), %edx
	movl	(%ecx,%eax,8), %eax
	movl	%eax, 4(%esp)
	leal	340(%esp), %eax
	movl	%eax, (%esp)
	calll	*12(%edx)
	movl	524(%esp), %esi
	movl	68(%esi), %eax
	movl	%eax, 4(%esp)
	movl	$0, (%esp)
	leal	408(%esp), %ebp
	movl	%ebp, %ecx
	movl	68(%esp), %ebx
	movl	%ebx, %edx
	calll	__ZN6common6string6String6substr20h368d5ca1bfe0df04GVaE
	movl	348(%esp), %eax
	movl	%eax, 104(%esp)
	movsd	340(%esp), %xmm0
	movsd	%xmm0, 96(%esp)
	movl	$488447261, 348(%esp)
	movl	$488447261, 344(%esp)
	movl	$488447261, 340(%esp)
	leal	96(%esp), %eax
	movl	%eax, %edi
	movl	%edi, 8(%esp)
	movl	%ebp, 4(%esp)
	leal	216(%esp), %eax
	movl	%eax, (%esp)
	calll	__ZN6common6string10String.Add3add20h04bec0cc0ad33a3fH6aE
	movl	$1, (%esp)
	movl	$_str5240, %edx
	movl	%ebp, %ecx
	calll	__ZN6common6string6String8from_str20hec6818acef1847f3cNaE
	movl	224(%esp), %eax
	movl	%eax, 104(%esp)
	movsd	216(%esp), %xmm0
	movsd	%xmm0, 96(%esp)
	movl	%ebp, 8(%esp)
	movl	%edi, 4(%esp)
	leal	388(%esp), %eax
	movl	%eax, (%esp)
	calll	__ZN6common6string10String.Add3add20h04bec0cc0ad33a3fH6aE
	movzbl	72(%esi), %eax
	cmpl	$212, %eax
	jne	LBB36_69
	movl	(%ebx), %eax
	movl	$7344128, %ecx
	testl	%eax, %eax
	je	LBB36_69
	.align	16, 0x90
LBB36_259:
	cmpl	%eax, (%ecx)
	jne	LBB36_260
	movl	$0, (%ecx)
LBB36_260:
	addl	$4, %ecx
	cmpl	$11538432, %ecx
	jne	LBB36_259
	movzbl	348(%esp), %eax
	movl	396(%esp), %ecx
	movl	%ecx, 8(%ebx)
	movsd	388(%esp), %xmm0
	movsd	%xmm0, (%ebx)
	cmpl	$212, %eax
	movl	528(%esp), %edx
	movl	56(%esp), %esi
	movl	60(%esp), %edi
	jne	LBB36_266
	movl	340(%esp), %eax
	movl	$7344128, %ecx
	testl	%eax, %eax
	je	LBB36_265
	.align	16, 0x90
LBB36_263:
	cmpl	%eax, (%ecx)
	jne	LBB36_264
	movl	$0, (%ecx)
LBB36_264:
	addl	$4, %ecx
	cmpl	$11538432, %ecx
	jne	LBB36_263
LBB36_265:
	movl	$0, 340(%esp)
	movl	$0, 344(%esp)
	jmp	LBB36_266
LBB36_69:
	movl	396(%esp), %eax
	movl	%eax, 8(%ebx)
	movsd	388(%esp), %xmm0
	movsd	%xmm0, (%ebx)
	movl	528(%esp), %edx
	movl	56(%esp), %esi
	movl	60(%esp), %edi
LBB36_266:
	cmpl	%esi, %edi
	jne	LBB36_267
	jmp	LBB36_278
LBB36_249:
	movl	44(%esp), %edi
	jmp	LBB36_251
LBB36_108:
	movb	$-44, 52(%esp)
	xorl	%edi, %edi
	movl	$0, 48(%esp)
LBB36_251:
	movb	282(%esp), %al
	movb	%al, 362(%esp)
	movw	280(%esp), %ax
	movw	%ax, 360(%esp)
	movl	524(%esp), %esi
	movl	68(%esi), %eax
	movl	%eax, 4(%esp)
	movl	$0, (%esp)
	leal	408(%esp), %ebp
	movl	%ebp, %ecx
	movl	%ebx, %edx
	calll	__ZN6common6string6String6substr20h368d5ca1bfe0df04GVaE
	movl	%edi, 388(%esp)
	movl	48(%esp), %eax
	movl	%eax, 392(%esp)
	movb	52(%esp), %al
	movb	%al, 396(%esp)
	movb	362(%esp), %al
	movb	%al, 399(%esp)
	movw	360(%esp), %ax
	movw	%ax, 397(%esp)
	movb	$29, 362(%esp)
	movw	$7453, 360(%esp)
	leal	388(%esp), %eax
	movl	%eax, %edi
	movl	%edi, 8(%esp)
	movl	%ebp, 4(%esp)
	leal	228(%esp), %eax
	movl	%eax, (%esp)
	calll	__ZN6common6string10String.Add3add20h04bec0cc0ad33a3fH6aE
	movl	$1, (%esp)
	movl	$_str5240, %edx
	movl	%ebp, %ecx
	calll	__ZN6common6string6String8from_str20hec6818acef1847f3cNaE
	movl	236(%esp), %eax
	movl	%eax, 396(%esp)
	movsd	228(%esp), %xmm0
	movsd	%xmm0, 388(%esp)
	movl	%ebp, 8(%esp)
	movl	%edi, 4(%esp)
	leal	340(%esp), %eax
	movl	%eax, (%esp)
	calll	__ZN6common6string10String.Add3add20h04bec0cc0ad33a3fH6aE
	movzbl	72(%esi), %eax
	cmpl	$212, %eax
	jne	LBB36_257
	movl	(%ebx), %eax
	testl	%eax, %eax
	je	LBB36_256
	movl	$7344128, %ecx
LBB36_254:
	cmpl	%eax, (%ecx)
	jne	LBB36_255
	movl	$0, (%ecx)
LBB36_255:
	addl	$4, %ecx
	cmpl	$11538432, %ecx
	jne	LBB36_254
LBB36_256:
	movl	$0, 64(%esi)
	movl	$0, 68(%esi)
LBB36_257:
	movl	348(%esp), %eax
	movl	%eax, 8(%ebx)
	movsd	340(%esp), %xmm0
	movsd	%xmm0, (%ebx)
	leal	96(%esp), %ecx
	calll	__ZN16common..url..URL9drop.506817h377ce05aa7ec282eE
LBB36_278:
	movzbl	176(%esp), %eax
	cmpl	$212, %eax
	jne	LBB36_284
	movl	168(%esp), %eax
	testl	%eax, %eax
	je	LBB36_283
	movl	$7344128, %ecx
	.align	16, 0x90
LBB36_281:
	cmpl	%eax, (%ecx)
	jne	LBB36_282
	movl	$0, (%ecx)
LBB36_282:
	addl	$4, %ecx
	cmpl	$11538432, %ecx
	jne	LBB36_281
LBB36_283:
	movl	$0, 168(%esp)
	movl	$0, 172(%esp)
LBB36_284:
	movzbl	200(%esp), %eax
	cmpl	$212, %eax
	movl	524(%esp), %ebp
	jne	LBB36_292
	movl	196(%esp), %ecx
	testl	%ecx, %ecx
	je	LBB36_286
	xorl	%edx, %edx
	movl	192(%esp), %eax
	.align	16, 0x90
LBB36_301:
	leal	(%edx,%edx,2), %ebx
	leal	1(%edx), %edx
	movl	(%eax,%ebx,4), %esi
	testl	%esi, %esi
	je	LBB36_303
	movl	$7344128, %edi
	movzbl	8(%eax,%ebx,4), %ebx
	cmpl	$212, %ebx
	jne	LBB36_303
	.align	16, 0x90
LBB36_304:
	cmpl	%esi, (%edi)
	jne	LBB36_305
	movl	$0, (%edi)
LBB36_305:
	addl	$4, %edi
	cmpl	$11538432, %edi
	jne	LBB36_304
LBB36_303:
	cmpl	%ecx, %edx
	jne	LBB36_301
	jmp	LBB36_287
LBB36_286:
	movl	192(%esp), %eax
LBB36_287:
	testl	%eax, %eax
	je	LBB36_291
	movl	$7344128, %ecx
	.align	16, 0x90
LBB36_289:
	cmpl	%eax, (%ecx)
	jne	LBB36_290
	movl	$0, (%ecx)
LBB36_290:
	addl	$4, %ecx
	cmpl	$11538432, %ecx
	jne	LBB36_289
LBB36_291:
	movl	$0, 192(%esp)
	movl	$0, 196(%esp)
LBB36_292:
	movzbl	84(%ebp), %eax
	cmpl	$212, %eax
	jne	LBB36_298
	movl	64(%esp), %eax
	movl	(%eax), %eax
	testl	%eax, %eax
	je	LBB36_297
	movl	$7344128, %ecx
	.align	16, 0x90
LBB36_295:
	cmpl	%eax, (%ecx)
	jne	LBB36_296
	movl	$0, (%ecx)
LBB36_296:
	addl	$4, %ecx
	cmpl	$11538432, %ecx
	jne	LBB36_295
LBB36_297:
	movl	$0, 76(%ebp)
	movl	$0, 80(%ebp)
LBB36_298:
	movl	$0, 76(%ebp)
	movl	$0, 80(%ebp)
	movb	$-44, 84(%ebp)
	movb	410(%esp), %al
	movb	%al, 87(%ebp)
	movw	408(%esp), %ax
	movw	%ax, 85(%ebp)
	movl	$0, 88(%ebp)
LBB36_299:
	addl	$504, %esp
	popl	%esi
	popl	%edi
	popl	%ebx
	popl	%ebp
	retl
	.cfi_endproc
	.section	.rdata,"dr"
	.align	4
LJTI36_0:
	.long	LBB36_4
	.long	LBB36_11
	.long	LBB36_11
	.long	LBB36_11
	.long	LBB36_6
	.long	LBB36_11
	.long	LBB36_8
	.long	LBB36_11
	.long	LBB36_5

	.def	 __ZN23Application.SessionItem8on_mouse20ha49fa6d25aab1547JGdE;
	.scl	2;
	.type	32;
	.endef
	.text
	.globl	__ZN23Application.SessionItem8on_mouse20ha49fa6d25aab1547JGdE
	.align	16, 0x90
__ZN23Application.SessionItem8on_mouse20ha49fa6d25aab1547JGdE:
	.cfi_startproc
	pushl	%ebp
Ltmp147:
	.cfi_def_cfa_offset 8
	pushl	%ebx
Ltmp148:
	.cfi_def_cfa_offset 12
	pushl	%edi
Ltmp149:
	.cfi_def_cfa_offset 16
	pushl	%esi
Ltmp150:
	.cfi_def_cfa_offset 20
	subl	$20, %esp
Ltmp151:
	.cfi_def_cfa_offset 40
Ltmp152:
	.cfi_offset %esi, -20
Ltmp153:
	.cfi_offset %edi, -16
Ltmp154:
	.cfi_offset %ebx, -12
Ltmp155:
	.cfi_offset %ebp, -8
	movl	52(%esp), %edx
	movl	40(%esp), %eax
	movb	56(%esp), %cl
	movl	44(%esp), %esi
	movl	60(%esi), %ebp
	movl	64(%esi), %esi
	movl	%esi, 16(%esp)
	movl	8(%edx), %ebx
	movl	%ebx, %esi
	shrl	$16, %esi
	testb	%cl, %cl
	movl	(%edx), %ecx
	movl	4(%edx), %edx
	je	LBB37_41
	testb	%bl, %bl
	je	LBB37_18
	cmpb	$0, 40(%eax)
	je	LBB37_4
	movl	%edx, 12(%esp)
	xorl	%edx, %edx
	jmp	LBB37_9
LBB37_41:
	movl	%edx, 12(%esp)
	movb	$0, 42(%eax)
	xorl	%edx, %edx
	jmp	LBB37_42
LBB37_18:
	movl	%edx, 12(%esp)
	movb	$0, 42(%eax)
	xorl	%edx, %edx
	jmp	LBB37_19
LBB37_4:
	movl	%edx, 12(%esp)
	movl	%ecx, 8(%esp)
	movl	(%eax), %edx
	leal	-2(%edx), %ecx
	cmpl	%ecx, %ebp
	jl	LBB37_7
	movl	8(%eax), %ecx
	leal	4(%edx,%ecx), %ecx
	cmpl	%ecx, %ebp
	jge	LBB37_7
	movl	4(%eax), %edx
	leal	-18(%edx), %ecx
	cmpl	%ecx, 16(%esp)
	jge	LBB37_43
LBB37_7:
	xorl	%edx, %edx
LBB37_8:
	movl	8(%esp), %ecx
LBB37_9:
	cmpb	$0, 60(%eax)
	jne	LBB37_19
	movl	%ecx, 8(%esp)
	movl	(%eax), %ecx
	movl	%ecx, 4(%esp)
	leal	-2(%ecx), %ecx
	cmpl	%ecx, %ebp
	jge	LBB37_12
	movl	8(%esp), %ecx
	jmp	LBB37_19
LBB37_12:
	movl	8(%eax), %ecx
	movl	4(%esp), %edi
	leal	4(%edi,%ecx), %ecx
	cmpl	%ecx, %ebp
	jge	LBB37_13
	movl	4(%eax), %ecx
	cmpl	%ecx, 16(%esp)
	jge	LBB37_15
	addl	$-18, %ecx
	cmpl	%ecx, 16(%esp)
	movl	8(%esp), %ecx
	jl	LBB37_19
	movb	$1, 42(%eax)
	movb	$1, %dl
	jmp	LBB37_19
LBB37_13:
	movl	8(%esp), %ecx
	jmp	LBB37_19
LBB37_43:
	movl	12(%eax), %ecx
	leal	2(%edx,%ecx), %ecx
	cmpl	%ecx, 16(%esp)
	setl	%dl
	jmp	LBB37_8
LBB37_15:
	movl	8(%esp), %ecx
LBB37_19:
	testb	%bh, %bh
	je	LBB37_39
	movl	%ebx, %edi
	movb	40(%eax), %bl
	movb	%bl, 4(%esp)
	testb	%bl, %bl
	je	LBB37_22
	movl	%edi, %ebx
	jmp	LBB37_27
LBB37_22:
	movl	%ecx, 8(%esp)
	movl	(%eax), %ecx
	movl	%ecx, (%esp)
	leal	-2(%ecx), %ecx
	cmpl	%ecx, %ebp
	movl	%edi, %ebx
	jge	LBB37_24
	movl	8(%esp), %ecx
	jmp	LBB37_27
LBB37_24:
	movl	8(%eax), %ecx
	movl	(%esp), %edi
	leal	4(%edi,%ecx), %ecx
	cmpl	%ecx, %ebp
	movl	%ebp, (%esp)
	jge	LBB37_26
	movl	4(%eax), %ebp
	leal	-18(%ebp), %ecx
	cmpl	%ecx, 16(%esp)
	jl	LBB37_26
	movl	12(%eax), %ecx
	leal	2(%ebp,%ecx), %ecx
	cmpl	%ecx, 16(%esp)
	movb	$1, %cl
	jl	LBB37_32
	movb	%dl, %cl
LBB37_32:
	movb	%cl, %dl
LBB37_26:
	movl	8(%esp), %ecx
	movl	(%esp), %ebp
LBB37_27:
	cmpb	$0, 61(%eax)
	jne	LBB37_39
	movl	%ecx, 8(%esp)
	movl	(%eax), %ecx
	movl	%ecx, (%esp)
	leal	-2(%ecx), %ecx
	cmpl	%ecx, %ebp
	jge	LBB37_33
	movl	8(%esp), %ecx
	jmp	LBB37_39
LBB37_33:
	movl	8(%eax), %ecx
	movl	(%esp), %edi
	leal	4(%edi,%ecx), %ecx
	cmpl	%ecx, %ebp
	jge	LBB37_34
	movl	4(%eax), %ecx
	cmpl	%ecx, 16(%esp)
	jge	LBB37_36
	addl	$-18, %ecx
	cmpl	%ecx, 16(%esp)
	movl	8(%esp), %ecx
	jl	LBB37_39
	movb	4(%esp), %dl
	xorb	$1, %dl
	movb	%dl, 40(%eax)
	movb	$1, %dl
	jmp	LBB37_39
LBB37_34:
	movl	8(%esp), %ecx
	jmp	LBB37_39
LBB37_36:
	movl	8(%esp), %ecx
LBB37_39:
	cmpb	$0, 42(%eax)
	je	LBB37_42
	movl	%ecx, %edx
	movl	%ebp, %ecx
	addl	(%eax), %ecx
	subl	44(%eax), %ecx
	movl	%ecx, (%eax)
	movl	16(%esp), %ecx
	addl	4(%eax), %ecx
	subl	48(%eax), %ecx
	movl	%ecx, 4(%eax)
	movl	%edx, %ecx
	movb	$1, %dl
LBB37_42:
	movl	%ebp, 44(%eax)
	movl	16(%esp), %edi
	movl	%edi, 48(%eax)
	movl	12(%esp), %edi
	movl	%edi, 56(%eax)
	movl	%ecx, 52(%eax)
	movb	%bl, 60(%eax)
	movb	%bh, 61(%eax)
	movw	%si, 62(%eax)
	andb	$1, %dl
	movzbl	%dl, %eax
	addl	$20, %esp
	popl	%esi
	popl	%edi
	popl	%ebx
	popl	%ebp
	retl
	.cfi_endproc

	.def	 _entry;
	.scl	2;
	.type	32;
	.endef
	.globl	_entry
	.align	16, 0x90
_entry:
	.cfi_startproc
	pushl	%edi
Ltmp156:
	.cfi_def_cfa_offset 8
	pushl	%esi
Ltmp157:
	.cfi_def_cfa_offset 12
	subl	$108, %esp
Ltmp158:
	.cfi_def_cfa_offset 120
Ltmp159:
	.cfi_offset %esi, -12
Ltmp160:
	.cfi_offset %edi, -8
	movl	$-1, %ecx
	movl	$7344128, %esi
	.align	16, 0x90
LBB38_1:
	movl	%ecx, %eax
	leal	1(%eax), %ecx
	xorl	%edx, %edx
	cmpl	$1048575, %ecx
	ja	LBB38_6
	cmpl	$0, (%esi)
	leal	4(%esi), %esi
	jne	LBB38_1
	movl	%ecx, %edx
	shll	$12, %edx
	addl	$11538432, %edx
	cmpl	$-1, %ecx
	je	LBB38_6
	cmpl	$1048575, %ecx
	ja	LBB38_6
	movl	%edx, 7344132(,%eax,4)
LBB38_6:
	movl	%edx, __ZN11application20h9dbe1974adf58ca2gHdE
	movl	$220, 4(%esp)
	movl	$100, 8(%esp)
	movl	$576, 12(%esp)
	movl	$400, 16(%esp)
	leal	20(%esp), %ecx
	movl	$8, (%esp)
	movl	$_str5255, %edx
	calll	__ZN6common6string6String8from_str20hec6818acef1847f3cNaE
	movl	$-16777216, 32(%esp)
	movl	$-4144897, 36(%esp)
	movl	$-1065320288, 40(%esp)
	movw	$0, 44(%esp)
	movb	$0, 46(%esp)
	movl	$0, 52(%esp)
	movl	$0, 48(%esp)
	movl	$0, 60(%esp)
	movl	$0, 56(%esp)
	movl	$0, 68(%esp)
	movl	$0, 64(%esp)
	movl	$0, 72(%esp)
	movb	$-44, 76(%esp)
	movl	$0, 80(%esp)
	movl	$0, 84(%esp)
	movb	$-44, 88(%esp)
	movl	$0, 92(%esp)
	movl	$0, 96(%esp)
	movl	$0, 100(%esp)
	movb	$1, 104(%esp)
	movl	__ZN11application20h9dbe1974adf58ca2gHdE, %edi
	movzbl	24(%edi), %eax
	cmpl	$212, %eax
	jne	LBB38_12
	movl	16(%edi), %eax
	testl	%eax, %eax
	je	LBB38_11
	movl	$7344128, %ecx
	.align	16, 0x90
LBB38_9:
	cmpl	%eax, (%ecx)
	jne	LBB38_10
	movl	$0, (%ecx)
LBB38_10:
	addl	$4, %ecx
	cmpl	$11538432, %ecx
	jne	LBB38_9
LBB38_11:
	movl	$0, 16(%edi)
	movl	$0, 20(%edi)
LBB38_12:
	movzbl	72(%edi), %eax
	cmpl	$212, %eax
	jne	LBB38_18
	movl	64(%edi), %eax
	testl	%eax, %eax
	je	LBB38_17
	movl	$7344128, %ecx
	.align	16, 0x90
LBB38_15:
	cmpl	%eax, (%ecx)
	jne	LBB38_16
	movl	$0, (%ecx)
LBB38_16:
	addl	$4, %ecx
	cmpl	$11538432, %ecx
	jne	LBB38_15
LBB38_17:
	movl	$0, 64(%edi)
	movl	$0, 68(%edi)
LBB38_18:
	movzbl	84(%edi), %eax
	cmpl	$212, %eax
	jne	LBB38_24
	movl	76(%edi), %eax
	testl	%eax, %eax
	je	LBB38_23
	movl	$7344128, %ecx
	.align	16, 0x90
LBB38_21:
	cmpl	%eax, (%ecx)
	jne	LBB38_22
	movl	$0, (%ecx)
LBB38_22:
	addl	$4, %ecx
	cmpl	$11538432, %ecx
	jne	LBB38_21
LBB38_23:
	movl	$0, 76(%edi)
	movl	$0, 80(%edi)
LBB38_24:
	leal	4(%esp), %esi
	movl	$26, %ecx
	rep;movsl
	addl	$108, %esp
	popl	%esi
	popl	%edi
	retl
	.cfi_endproc

	.def	 _draw;
	.scl	2;
	.type	32;
	.endef
	.globl	_draw
	.align	16, 0x90
_draw:
	.cfi_startproc
	subl	$12, %esp
Ltmp161:
	.cfi_def_cfa_offset 16
	movl	__ZN11application20h9dbe1974adf58ca2gHdE, %eax
	testl	%eax, %eax
	je	LBB39_1
	movl	20(%esp), %ecx
	movl	16(%esp), %edx
	movl	%ecx, 8(%esp)
	movl	%edx, 4(%esp)
	movl	%eax, (%esp)
	calll	__ZN23Application.SessionItem4draw20hdf5d634da3c02263qudE
	jmp	LBB39_3
LBB39_1:
	xorl	%eax, %eax
LBB39_3:
	movzbl	%al, %eax
	addl	$12, %esp
	retl
	.cfi_endproc

	.def	 _on_key;
	.scl	2;
	.type	32;
	.endef
	.globl	_on_key
	.align	16, 0x90
_on_key:
	.cfi_startproc
	pushl	%ebp
Ltmp162:
	.cfi_def_cfa_offset 8
Ltmp163:
	.cfi_offset %ebp, -8
	movl	%esp, %ebp
Ltmp164:
	.cfi_def_cfa_register %ebp
	andl	$-8, %esp
	subl	$24, %esp
	movl	__ZN11application20h9dbe1974adf58ca2gHdE, %eax
	testl	%eax, %eax
	je	LBB40_2
	movl	16(%ebp), %ecx
	movl	8(%ebp), %edx
	movsd	(%ecx), %xmm0
	movsd	%xmm0, 16(%esp)
	leal	16(%esp), %ecx
	movl	%ecx, 12(%esp)
	movl	%edx, 4(%esp)
	movl	%eax, (%esp)
	calll	__ZN23Application.SessionItem6on_key20hfad80848e2300fe4sDdE
LBB40_2:
	movl	%ebp, %esp
	popl	%ebp
	retl
	.cfi_endproc

	.def	 _on_mouse;
	.scl	2;
	.type	32;
	.endef
	.globl	_on_mouse
	.align	16, 0x90
_on_mouse:
	.cfi_startproc
	pushl	%edi
Ltmp165:
	.cfi_def_cfa_offset 8
	pushl	%esi
Ltmp166:
	.cfi_def_cfa_offset 12
	subl	$32, %esp
Ltmp167:
	.cfi_def_cfa_offset 44
Ltmp168:
	.cfi_offset %esi, -12
Ltmp169:
	.cfi_offset %edi, -8
	movl	__ZN11application20h9dbe1974adf58ca2gHdE, %eax
	testl	%eax, %eax
	je	LBB41_1
	movb	56(%esp), %cl
	movl	52(%esp), %edx
	movl	44(%esp), %esi
	movl	8(%edx), %edi
	movl	%edi, 28(%esp)
	movsd	(%edx), %xmm0
	movsd	%xmm0, 20(%esp)
	movzbl	%cl, %ecx
	movl	%ecx, 16(%esp)
	leal	20(%esp), %ecx
	movl	%ecx, 12(%esp)
	movl	%esi, 4(%esp)
	movl	%eax, (%esp)
	calll	__ZN23Application.SessionItem8on_mouse20ha49fa6d25aab1547JGdE
	jmp	LBB41_3
LBB41_1:
	xorl	%eax, %eax
LBB41_3:
	movzbl	%al, %eax
	addl	$32, %esp
	popl	%esi
	popl	%edi
	retl
	.cfi_endproc

	.section	.rdata,"dr"
	.align	4
_const5002:
	.long	0
	.zero	12

	.align	4
__ZN6common6string9NULL_CHAR20h1eabe1777d5c5e4dM3aE:
	.long	0

_str5045:
	.byte	47

_str5048:
	.byte	58

_str5054:
	.byte	64

_str5075:
	.ascii	"://"

	.lcomm	_ref_mut_slice5080,1,4
_str5240:
	.byte	10

_str5242:
	.byte	32

_str5245:
	.ascii	"url"

	.align	16
_str5248:
	.ascii	"The only command right now is 'url'"

_str5255:
	.ascii	"Terminal"

_str5262:
	.ascii	"# "

	.lcomm	__ZN11application20h9dbe1974adf58ca2gHdE,4,4

