	.text
	.def	 @feat.00;
	.scl	3;
	.type	0;
	.endef
	.globl	@feat.00
@feat.00 = 1
	.def	 __ZN5alloc5boxed15exchange_malloc20h027774f879c7e7d4MaaE;
	.scl	2;
	.type	32;
	.endef
	.globl	__ZN5alloc5boxed15exchange_malloc20h027774f879c7e7d4MaaE
	.align	16, 0x90
__ZN5alloc5boxed15exchange_malloc20h027774f879c7e7d4MaaE:
	.cfi_startproc
	pushl	%ebp
Ltmp0:
	.cfi_def_cfa_offset 8
	pushl	%ebx
Ltmp1:
	.cfi_def_cfa_offset 12
	pushl	%edi
Ltmp2:
	.cfi_def_cfa_offset 16
	pushl	%esi
Ltmp3:
	.cfi_def_cfa_offset 20
Ltmp4:
	.cfi_offset %esi, -20
Ltmp5:
	.cfi_offset %edi, -16
Ltmp6:
	.cfi_offset %ebx, -12
Ltmp7:
	.cfi_offset %ebp, -8
	xorl	%eax, %eax
	cmpl	$0, 20(%esp)
	je	LBB0_11
	xorl	%esi, %esi
	xorl	%ebx, %ebx
	xorl	%ecx, %ecx
LBB0_2:
	leal	7344128(,%esi,4), %ebp
	.align	16, 0x90
LBB0_3:
	movl	%ebx, %edx
	movl	%esi, %edi
	cmpl	$1048575, %edi
	ja	LBB0_6
	leal	1(%edi), %esi
	xorl	%ebx, %ebx
	cmpl	$0, (%ebp)
	leal	4(%ebp), %ebp
	jne	LBB0_3
	testl	%edx, %edx
	cmovel	%edi, %ecx
	incl	%edx
	movl	%edx, %edi
	shll	$12, %edi
	cmpl	20(%esp), %edi
	movl	%edx, %ebx
	jbe	LBB0_2
LBB0_6:
	movl	%edx, %esi
	shll	$12, %esi
	cmpl	20(%esp), %esi
	jbe	LBB0_11
	movl	%ecx, %eax
	shll	$12, %eax
	addl	$11538432, %eax
	leal	(%ecx,%edx), %esi
	cmpl	%esi, %ecx
	jae	LBB0_11
	leal	7344128(,%ecx,4), %esi
	.align	16, 0x90
LBB0_9:
	cmpl	$1048576, %ecx
	jae	LBB0_10
	movl	%eax, (%esi)
LBB0_10:
	incl	%ecx
	addl	$4, %esi
	decl	%edx
	jne	LBB0_9
LBB0_11:
	popl	%esi
	popl	%edi
	popl	%ebx
	popl	%ebp
	retl
	.cfi_endproc

	.def	 __ZN6common6memory5alloc20hfdce57abd8c9bf7ehUaE;
	.scl	2;
	.type	32;
	.endef
	.globl	__ZN6common6memory5alloc20hfdce57abd8c9bf7ehUaE
	.align	16, 0x90
__ZN6common6memory5alloc20hfdce57abd8c9bf7ehUaE:
	.cfi_startproc
	pushl	%ebp
Ltmp8:
	.cfi_def_cfa_offset 8
	pushl	%ebx
Ltmp9:
	.cfi_def_cfa_offset 12
	pushl	%edi
Ltmp10:
	.cfi_def_cfa_offset 16
	pushl	%esi
Ltmp11:
	.cfi_def_cfa_offset 20
Ltmp12:
	.cfi_offset %esi, -20
Ltmp13:
	.cfi_offset %edi, -16
Ltmp14:
	.cfi_offset %ebx, -12
Ltmp15:
	.cfi_offset %ebp, -8
	xorl	%eax, %eax
	cmpl	$0, 20(%esp)
	je	LBB1_11
	xorl	%esi, %esi
	xorl	%ebx, %ebx
	xorl	%ecx, %ecx
LBB1_2:
	leal	7344128(,%esi,4), %ebp
	.align	16, 0x90
LBB1_3:
	movl	%ebx, %edx
	movl	%esi, %edi
	cmpl	$1048575, %edi
	ja	LBB1_6
	leal	1(%edi), %esi
	xorl	%ebx, %ebx
	cmpl	$0, (%ebp)
	leal	4(%ebp), %ebp
	jne	LBB1_3
	testl	%edx, %edx
	cmovel	%edi, %ecx
	incl	%edx
	movl	%edx, %edi
	shll	$12, %edi
	cmpl	20(%esp), %edi
	movl	%edx, %ebx
	jbe	LBB1_2
LBB1_6:
	movl	%edx, %esi
	shll	$12, %esi
	cmpl	20(%esp), %esi
	jbe	LBB1_11
	movl	%ecx, %eax
	shll	$12, %eax
	addl	$11538432, %eax
	leal	(%ecx,%edx), %esi
	cmpl	%esi, %ecx
	jae	LBB1_11
	leal	7344128(,%ecx,4), %esi
	.align	16, 0x90
LBB1_9:
	cmpl	$1048576, %ecx
	jae	LBB1_10
	movl	%eax, (%esi)
LBB1_10:
	incl	%ecx
	addl	$4, %esi
	decl	%edx
	jne	LBB1_9
LBB1_11:
	popl	%esi
	popl	%edi
	popl	%ebx
	popl	%ebp
	retl
	.cfi_endproc

	.def	 __ZN5alloc5boxed13exchange_free20hdb6015a4130bef5b3aaE;
	.scl	2;
	.type	32;
	.endef
	.globl	__ZN5alloc5boxed13exchange_free20hdb6015a4130bef5b3aaE
	.align	16, 0x90
__ZN5alloc5boxed13exchange_free20hdb6015a4130bef5b3aaE:
	.cfi_startproc
	movl	4(%esp), %eax
	testl	%eax, %eax
	je	LBB2_4
	movl	$7344128, %ecx
	.align	16, 0x90
LBB2_2:
	cmpl	%eax, (%ecx)
	jne	LBB2_3
	movl	$0, (%ecx)
LBB2_3:
	addl	$4, %ecx
	cmpl	$11538432, %ecx
	jne	LBB2_2
LBB2_4:
	retl
	.cfi_endproc

	.def	 __ZN6common6memory7unalloc20h15ec34ab80b8d27fXZaE;
	.scl	2;
	.type	32;
	.endef
	.globl	__ZN6common6memory7unalloc20h15ec34ab80b8d27fXZaE
	.align	16, 0x90
__ZN6common6memory7unalloc20h15ec34ab80b8d27fXZaE:
	.cfi_startproc
	movl	4(%esp), %eax
	testl	%eax, %eax
	je	LBB3_4
	movl	$7344128, %ecx
	.align	16, 0x90
LBB3_2:
	cmpl	%eax, (%ecx)
	jne	LBB3_3
	movl	$0, (%ecx)
LBB3_3:
	addl	$4, %ecx
	cmpl	$11538432, %ecx
	jne	LBB3_2
LBB3_4:
	retl
	.cfi_endproc

	.def	 __ZN6common5debug2dh20h857ba5a54e7b7d79roaE;
	.scl	3;
	.type	32;
	.endef
	.align	16, 0x90
__ZN6common5debug2dh20h857ba5a54e7b7d79roaE:
	.cfi_startproc
	pushl	%ebx
Ltmp16:
	.cfi_def_cfa_offset 8
Ltmp17:
	.cfi_offset %ebx, -8
	movl	%ecx, %ebx
	cmpl	$256, %ebx
	jb	LBB4_2
	movl	%ebx, %ecx
	shrl	$8, %ecx
	calll	__ZN6common5debug2dh20h857ba5a54e7b7d79roaE
LBB4_2:
	movb	%bl, %cl
	movb	%cl, %al
	shrb	$4, %al
	movzbl	%cl, %edx
	cmpl	$160, %edx
	jb	LBB4_3
	addb	$55, %al
	jmp	LBB4_5
LBB4_3:
	orb	$48, %al
LBB4_5:
	movw	$1016, %dx
	#APP

	outb	%al, %dx


	#NO_APP
	andb	$15, %cl
	andl	$15, %ebx
	cmpl	$10, %ebx
	jb	LBB4_6
	addb	$55, %cl
	jmp	LBB4_8
LBB4_6:
	orb	$48, %cl
LBB4_8:
	movw	$1016, %dx
	movb	%cl, %al
	#APP

	outb	%al, %dx


	#NO_APP
	popl	%ebx
	retl
	.cfi_endproc

	.def	 __ZN6common5debug2dd20h67ae0f1b7d732e10SoaE;
	.scl	3;
	.type	32;
	.endef
	.align	16, 0x90
__ZN6common5debug2dd20h67ae0f1b7d732e10SoaE:
	.cfi_startproc
	pushl	%ebx
Ltmp18:
	.cfi_def_cfa_offset 8
Ltmp19:
	.cfi_offset %ebx, -8
	movl	%ecx, %ebx
	cmpl	$10, %ebx
	jb	LBB5_2
	movl	$-858993459, %ecx
	movl	%ebx, %eax
	mull	%ecx
	shrl	$3, %edx
	movl	%edx, %ecx
	calll	__ZN6common5debug2dd20h67ae0f1b7d732e10SoaE
LBB5_2:
	movl	$-858993459, %ecx
	movl	%ebx, %eax
	mull	%ecx
	shrl	$3, %edx
	addl	%edx, %edx
	leal	(%edx,%edx,4), %eax
	subl	%eax, %ebx
	orb	$48, %bl
	movw	$1016, %dx
	movb	%bl, %al
	#APP

	outb	%al, %dx


	#NO_APP
	popl	%ebx
	retl
	.cfi_endproc

	.def	 __ZN6common6string6String10from_c_str20h4d6fd81d6960ba41agbE;
	.scl	3;
	.type	32;
	.endef
	.align	16, 0x90
__ZN6common6string6String10from_c_str20h4d6fd81d6960ba41agbE:
	.cfi_startproc
	pushl	%ebp
Ltmp20:
	.cfi_def_cfa_offset 8
	pushl	%ebx
Ltmp21:
	.cfi_def_cfa_offset 12
	pushl	%edi
Ltmp22:
	.cfi_def_cfa_offset 16
	pushl	%esi
Ltmp23:
	.cfi_def_cfa_offset 20
	subl	$16, %esp
Ltmp24:
	.cfi_def_cfa_offset 36
Ltmp25:
	.cfi_offset %esi, -20
Ltmp26:
	.cfi_offset %edi, -16
Ltmp27:
	.cfi_offset %ebx, -12
Ltmp28:
	.cfi_offset %ebp, -8
	movl	$-1, %eax
	.align	16, 0x90
LBB6_1:
	cmpb	$0, 1(%edx,%eax)
	leal	1(%eax), %eax
	jne	LBB6_1
	testl	%eax, %eax
	je	LBB6_3
	movl	%edx, 4(%esp)
	leal	(,%eax,4), %edx
	movl	%edx, 8(%esp)
	xorl	%esi, %esi
	testl	%edx, %edx
	movl	$0, %ebx
	je	LBB6_17
	movl	%ecx, (%esp)
	xorl	%edx, %edx
	xorl	%ecx, %ecx
	xorl	%edi, %edi
LBB6_7:
	movl	%edi, 12(%esp)
	leal	7344128(,%edx,4), %edi
	.align	16, 0x90
LBB6_8:
	movl	%ecx, %ebx
	movl	%edx, %ebp
	cmpl	$1048575, %ebp
	ja	LBB6_9
	leal	1(%ebp), %edx
	xorl	%ecx, %ecx
	cmpl	$0, (%edi)
	leal	4(%edi), %edi
	jne	LBB6_8
	testl	%ebx, %ebx
	movl	12(%esp), %edi
	cmovel	%ebp, %edi
	movl	%ebx, %ebp
	incl	%ebp
	movl	%ebp, %ecx
	shll	$12, %ecx
	cmpl	8(%esp), %ecx
	movl	%ebp, %ecx
	jbe	LBB6_7
	jmp	LBB6_12
LBB6_9:
	movl	12(%esp), %edi
	movl	%ebx, %ebp
LBB6_12:
	movl	%ebp, %ecx
	shll	$12, %ecx
	cmpl	8(%esp), %ecx
	movl	$0, %ebx
	movl	(%esp), %ecx
	jbe	LBB6_17
	movl	%edi, %ebx
	shll	$12, %ebx
	addl	$11538432, %ebx
	movl	%ebp, %edx
	movl	%edi, %ebp
	leal	(%ebp,%edx), %edi
	cmpl	%edi, %ebp
	movl	%ebp, %edi
	jae	LBB6_17
	leal	7344128(,%edi,4), %ebp
	.align	16, 0x90
LBB6_15:
	cmpl	$1048576, %edi
	jae	LBB6_16
	movl	%ebx, (%ebp)
LBB6_16:
	incl	%edi
	addl	$4, %ebp
	decl	%edx
	jne	LBB6_15
LBB6_17:
	movl	%ebx, %ebp
	movl	4(%esp), %edx
	.align	16, 0x90
LBB6_18:
	movzbl	(%edx,%esi), %edi
	incl	%esi
	movl	%edi, (%ebp)
	addl	$4, %ebp
	cmpl	%esi, %eax
	jne	LBB6_18
	movl	%ebx, (%ecx)
	movl	%eax, 4(%ecx)
	jmp	LBB6_4
LBB6_3:
	movl	$0, (%ecx)
	movl	$0, 4(%ecx)
LBB6_4:
	movb	$-44, 8(%ecx)
	movl	%ecx, %eax
	addl	$16, %esp
	popl	%esi
	popl	%edi
	popl	%ebx
	popl	%ebp
	retl
	.cfi_endproc

	.def	 __ZN6common6string33_$RF$$u27$static$u20$str.ToString9to_string20hc8782ff232eb1cb1l9aE;
	.scl	2;
	.type	32;
	.endef
	.globl	__ZN6common6string33_$RF$$u27$static$u20$str.ToString9to_string20hc8782ff232eb1cb1l9aE
	.align	16, 0x90
__ZN6common6string33_$RF$$u27$static$u20$str.ToString9to_string20hc8782ff232eb1cb1l9aE:
	.cfi_startproc
	pushl	%esi
Ltmp29:
	.cfi_def_cfa_offset 8
	pushl	%eax
Ltmp30:
	.cfi_def_cfa_offset 12
Ltmp31:
	.cfi_offset %esi, -8
	movl	12(%esp), %esi
	movl	16(%esp), %eax
	movl	(%eax), %edx
	movl	4(%eax), %eax
	movl	%eax, (%esp)
	movl	%esi, %ecx
	calll	__ZN6common6string6String8from_str20h7f93e981d7e9751cHcbE
	movl	%esi, %eax
	addl	$4, %esp
	popl	%esi
	retl
	.cfi_endproc

	.def	 __ZN6common6string16String.PartialEq2eq20hc7b0370e61950e51eubE;
	.scl	2;
	.type	32;
	.endef
	.globl	__ZN6common6string16String.PartialEq2eq20hc7b0370e61950e51eubE
	.align	16, 0x90
__ZN6common6string16String.PartialEq2eq20hc7b0370e61950e51eubE:
	.cfi_startproc
	pushl	%ebx
Ltmp32:
	.cfi_def_cfa_offset 8
	pushl	%edi
Ltmp33:
	.cfi_def_cfa_offset 12
	pushl	%esi
Ltmp34:
	.cfi_def_cfa_offset 16
Ltmp35:
	.cfi_offset %esi, -16
Ltmp36:
	.cfi_offset %edi, -12
Ltmp37:
	.cfi_offset %ebx, -8
	movl	20(%esp), %esi
	movl	16(%esp), %edx
	movl	4(%edx), %eax
	xorl	%ecx, %ecx
	cmpl	4(%esi), %eax
	movl	$0, %ebx
	jne	LBB8_5
	movl	(%edx), %edx
	movl	(%esi), %esi
	.align	16, 0x90
LBB8_2:
	movb	$1, %bl
	cmpl	%eax, %ecx
	jae	LBB8_5
	incl	%ecx
	movl	(%edx), %edi
	addl	$4, %edx
	cmpl	(%esi), %edi
	leal	4(%esi), %esi
	je	LBB8_2
	xorl	%ebx, %ebx
LBB8_5:
	movzbl	%bl, %eax
	popl	%esi
	popl	%edi
	popl	%ebx
	retl
	.cfi_endproc

	.def	 __ZN6common6string11String.Drop4drop20h88b0963012fcdc80EvbE;
	.scl	2;
	.type	32;
	.endef
	.globl	__ZN6common6string11String.Drop4drop20h88b0963012fcdc80EvbE
	.align	16, 0x90
__ZN6common6string11String.Drop4drop20h88b0963012fcdc80EvbE:
	.cfi_startproc
	movl	4(%esp), %eax
	movl	(%eax), %ecx
	testl	%ecx, %ecx
	je	LBB9_4
	movl	$7344128, %edx
	.align	16, 0x90
LBB9_2:
	cmpl	%ecx, (%edx)
	jne	LBB9_3
	movl	$0, (%edx)
LBB9_3:
	addl	$4, %edx
	cmpl	$11538432, %edx
	jne	LBB9_2
LBB9_4:
	movl	$0, (%eax)
	movl	$0, 4(%eax)
	retl
	.cfi_endproc

	.def	 __ZN6common3elf3ELF6symbol20hc0264be3f31cc86fQJaE;
	.scl	3;
	.type	32;
	.endef
	.align	16, 0x90
__ZN6common3elf3ELF6symbol20hc0264be3f31cc86fQJaE:
	.cfi_startproc
	pushl	%ebp
Ltmp38:
	.cfi_def_cfa_offset 8
	pushl	%ebx
Ltmp39:
	.cfi_def_cfa_offset 12
	pushl	%edi
Ltmp40:
	.cfi_def_cfa_offset 16
	pushl	%esi
Ltmp41:
	.cfi_def_cfa_offset 20
	subl	$72, %esp
Ltmp42:
	.cfi_def_cfa_offset 92
Ltmp43:
	.cfi_offset %esi, -20
Ltmp44:
	.cfi_offset %edi, -16
Ltmp45:
	.cfi_offset %ebx, -12
Ltmp46:
	.cfi_offset %ebp, -8
	movl	%edx, %esi
	movl	%esi, 8(%esp)
	movl	%ecx, 24(%esp)
	movl	(%ecx), %ecx
	xorl	%eax, %eax
	testl	%ecx, %ecx
	je	LBB10_49
	movl	32(%ecx), %eax
	leal	(%eax,%ecx), %ebp
	movw	48(%ecx), %dx
	movw	%dx, 20(%esp)
	testw	%dx, %dx
	je	LBB10_2
	movzwl	46(%ecx), %esi
	movzwl	50(%ecx), %edx
	imull	%esi, %edx
	movl	%edx, 16(%esp)
	movw	$1, %dx
	movl	%edx, 32(%esp)
	movl	%ecx, %edx
	movl	%edx, 12(%esp)
	xorl	%ecx, %ecx
	movl	%ebp, 4(%esp)
	movl	%ebp, 28(%esp)
	jmp	LBB10_4
	.align	16, 0x90
LBB10_60:
	adcl	$0, %edx
	movl	%edx, 32(%esp)
	movl	12(%esp), %esi
	movl	32(%esi), %eax
	movl	24(%esp), %edx
	movl	(%edx), %edx
	movzwl	46(%esi), %esi
LBB10_4:
	leal	(%eax,%edx), %eax
	movzwl	%si, %esi
	imull	%ecx, %esi
	leal	(%eax,%esi), %ebx
	movl	16(%esp), %ecx
	addl	16(%ecx,%ebp), %edx
	addl	(%esi,%eax), %edx
	leal	60(%esp), %ecx
	calll	__ZN6common6string6String10from_c_str20h4d6fd81d6960ba41agbE
	movl	$7, (%esp)
	movl	$_str6641, %edx
	leal	48(%esp), %ecx
	calll	__ZN6common6string6String8from_str20h7f93e981d7e9751cHcbE
	movl	64(%esp), %esi
	cmpl	52(%esp), %esi
	jne	LBB10_9
	movl	60(%esp), %eax
	xorl	%ecx, %ecx
	movl	48(%esp), %edx
	.align	16, 0x90
LBB10_6:
	cmpl	%esi, %ecx
	jae	LBB10_7
	incl	%ecx
	movl	(%eax), %edi
	addl	$4, %eax
	cmpl	(%edx), %edi
	leal	4(%edx), %edx
	je	LBB10_6
LBB10_9:
	movl	$7, (%esp)
	movl	$_str6644, %edx
	leal	36(%esp), %ecx
	calll	__ZN6common6string6String8from_str20h7f93e981d7e9751cHcbE
	xorl	%ecx, %ecx
	cmpl	40(%esp), %esi
	movl	$0, %eax
	jne	LBB10_14
	movl	60(%esp), %edx
	movl	36(%esp), %edi
	.align	16, 0x90
LBB10_11:
	movb	$1, %al
	cmpl	%esi, %ecx
	jae	LBB10_14
	incl	%ecx
	movl	(%edx), %eax
	addl	$4, %edx
	cmpl	(%edi), %eax
	leal	4(%edi), %edi
	je	LBB10_11
	xorl	%eax, %eax
LBB10_14:
	movzbl	44(%esp), %ecx
	cmpl	$212, %ecx
	jne	LBB10_19
	movl	36(%esp), %ecx
	movl	$7344128, %edx
	testl	%ecx, %ecx
	je	LBB10_18
	.align	16, 0x90
LBB10_16:
	cmpl	%ecx, (%edx)
	jne	LBB10_17
	movl	$0, (%edx)
LBB10_17:
	addl	$4, %edx
	cmpl	$11538432, %edx
	jne	LBB10_16
LBB10_18:
	movl	$0, 36(%esp)
	movl	$0, 40(%esp)
LBB10_19:
	testb	%al, %al
	movl	28(%esp), %eax
	cmovnel	%ebx, %eax
	movl	%eax, 28(%esp)
	jmp	LBB10_20
	.align	16, 0x90
LBB10_7:
	movl	%ebx, 4(%esp)
LBB10_20:
	movzbl	68(%esp), %eax
	cmpl	$212, %eax
	movl	32(%esp), %edx
	jne	LBB10_25
	movl	60(%esp), %eax
	movl	$7344128, %ecx
	testl	%eax, %eax
	je	LBB10_24
	.align	16, 0x90
LBB10_22:
	cmpl	%eax, (%ecx)
	jne	LBB10_23
	movl	$0, (%ecx)
LBB10_23:
	addl	$4, %ecx
	cmpl	$11538432, %ecx
	jne	LBB10_22
LBB10_24:
	movl	$0, 60(%esp)
	movl	$0, 64(%esp)
LBB10_25:
	movzbl	56(%esp), %eax
	cmpl	$212, %eax
	jne	LBB10_30
	movl	48(%esp), %eax
	movl	$7344128, %ecx
	testl	%eax, %eax
	je	LBB10_29
	.align	16, 0x90
LBB10_27:
	cmpl	%eax, (%ecx)
	jne	LBB10_28
	movl	$0, (%ecx)
LBB10_28:
	addl	$4, %ecx
	cmpl	$11538432, %ecx
	jne	LBB10_27
LBB10_29:
	movl	$0, 48(%esp)
	movl	$0, 52(%esp)
LBB10_30:
	movzwl	20(%esp), %eax
	movzwl	%dx, %ecx
	cmpl	%eax, %ecx
	jb	LBB10_60
	movl	4(%esp), %ebp
	movl	8(%esp), %esi
	jmp	LBB10_32
LBB10_2:
	movl	%ebp, 28(%esp)
LBB10_32:
	cmpl	$0, 16(%ebp)
	je	LBB10_56
	movl	28(%esp), %eax
	cmpl	$0, 16(%eax)
	je	LBB10_56
	movl	36(%ebp), %ecx
	testl	%ecx, %ecx
	je	LBB10_56
	movl	20(%ebp), %eax
	movl	%ebp, 32(%esp)
	xorl	%ebx, %ebx
	xorl	%edx, %edx
	divl	%ecx
	movl	%eax, 20(%esp)
	.align	16, 0x90
LBB10_36:
	cmpl	20(%esp), %ebx
	movl	32(%esp), %ecx
	jae	LBB10_56
	movl	24(%esp), %eax
	movl	(%eax), %edx
	movl	16(%ecx), %ebp
	addl	%edx, %ebp
	movl	%ebp, 16(%esp)
	movl	36(%ecx), %edi
	imull	%ebx, %edi
	movl	28(%esp), %eax
	addl	16(%eax), %edx
	addl	(%edi,%ebp), %edx
	leal	60(%esp), %ecx
	calll	__ZN6common6string6String10from_c_str20h4d6fd81d6960ba41agbE
	movl	4(%esi), %ecx
	xorl	%edx, %edx
	cmpl	64(%esp), %ecx
	movl	$0, %eax
	jne	LBB10_42
	movl	8(%esp), %eax
	movl	(%eax), %esi
	movl	60(%esp), %ebp
	.align	16, 0x90
LBB10_39:
	movb	$1, %al
	cmpl	%ecx, %edx
	jae	LBB10_42
	incl	%edx
	movl	(%esi), %eax
	addl	$4, %esi
	cmpl	(%ebp), %eax
	leal	4(%ebp), %ebp
	je	LBB10_39
	xorl	%eax, %eax
LBB10_42:
	movzbl	68(%esp), %ecx
	cmpl	$212, %ecx
	jne	LBB10_47
	movl	60(%esp), %ecx
	movl	$7344128, %edx
	testl	%ecx, %ecx
	je	LBB10_46
	.align	16, 0x90
LBB10_44:
	cmpl	%ecx, (%edx)
	jne	LBB10_45
	movl	$0, (%edx)
LBB10_45:
	addl	$4, %edx
	cmpl	$11538432, %edx
	jne	LBB10_44
LBB10_46:
	movl	$0, 60(%esp)
	movl	$0, 64(%esp)
LBB10_47:
	incl	%ebx
	testb	%al, %al
	movl	8(%esp), %esi
	je	LBB10_36
	movl	16(%esp), %eax
	movl	4(%edi,%eax), %eax
	jmp	LBB10_49
LBB10_56:
	movb	$10, %al
	movw	$1016, %dx
	#APP

	outb	%al, %dx


	#NO_APP
	xorl	%eax, %eax
LBB10_49:
	movzbl	8(%esi), %ecx
	cmpl	$212, %ecx
	jne	LBB10_55
	movl	(%esi), %edx
	testl	%edx, %edx
	je	LBB10_54
	movl	$7344128, %ecx
	.align	16, 0x90
LBB10_52:
	cmpl	%edx, (%ecx)
	jne	LBB10_53
	movl	$0, (%ecx)
LBB10_53:
	addl	$4, %ecx
	cmpl	$11538432, %ecx
	jne	LBB10_52
LBB10_54:
	movl	$0, (%esi)
	movl	$0, 4(%esi)
LBB10_55:
	addl	$72, %esp
	popl	%esi
	popl	%edi
	popl	%ebx
	popl	%ebp
	retl
	.cfi_endproc

	.def	 __ZN6common3elf8ELF.Drop4drop20h1b5fd05b5e5edc94FOaE;
	.scl	2;
	.type	32;
	.endef
	.globl	__ZN6common3elf8ELF.Drop4drop20h1b5fd05b5e5edc94FOaE
	.align	16, 0x90
__ZN6common3elf8ELF.Drop4drop20h1b5fd05b5e5edc94FOaE:
	.cfi_startproc
	movl	4(%esp), %eax
	movl	(%eax), %ecx
	testl	%ecx, %ecx
	je	LBB11_5
	movl	$7344128, %edx
	.align	16, 0x90
LBB11_2:
	cmpl	%ecx, (%edx)
	jne	LBB11_3
	movl	$0, (%edx)
LBB11_3:
	addl	$4, %edx
	cmpl	$11538432, %edx
	jne	LBB11_2
	movl	$0, (%eax)
LBB11_5:
	retl
	.cfi_endproc

	.def	 __ZN6common6memory7realloc20hc094b26789a71b31vXaE;
	.scl	3;
	.type	32;
	.endef
	.align	16, 0x90
__ZN6common6memory7realloc20hc094b26789a71b31vXaE:
	.cfi_startproc
	pushl	%ebp
Ltmp47:
	.cfi_def_cfa_offset 8
	pushl	%ebx
Ltmp48:
	.cfi_def_cfa_offset 12
	pushl	%edi
Ltmp49:
	.cfi_def_cfa_offset 16
	pushl	%esi
Ltmp50:
	.cfi_def_cfa_offset 20
	subl	$28, %esp
Ltmp51:
	.cfi_def_cfa_offset 48
Ltmp52:
	.cfi_offset %esi, -20
Ltmp53:
	.cfi_offset %edi, -16
Ltmp54:
	.cfi_offset %ebx, -12
Ltmp55:
	.cfi_offset %ebp, -8
	testl	%edx, %edx
	je	LBB12_1
	xorl	%eax, %eax
	testl	%ecx, %ecx
	movl	$0, %edi
	je	LBB12_12
	movl	$7344128, %esi
	xorl	%edi, %edi
	.align	16, 0x90
LBB12_9:
	cmpl	%ecx, (%esi)
	jne	LBB12_11
	addl	$4096, %edi
LBB12_11:
	addl	$4, %esi
	cmpl	$11538432, %esi
	jne	LBB12_9
LBB12_12:
	cmpl	%edx, %edi
	jae	LBB12_6
	movl	%edi, 24(%esp)
	movl	%ecx, 20(%esp)
	xorl	%ebx, %ebx
	xorl	%ecx, %ecx
LBB12_14:
	leal	7344128(,%eax,4), %ebp
	.align	16, 0x90
LBB12_15:
	movl	%ebx, %edi
	movl	%eax, %esi
	cmpl	$1048575, %esi
	ja	LBB12_18
	leal	1(%esi), %eax
	xorl	%ebx, %ebx
	cmpl	$0, (%ebp)
	leal	4(%ebp), %ebp
	jne	LBB12_15
	testl	%edi, %edi
	cmovel	%esi, %ecx
	incl	%edi
	movl	%edi, %esi
	shll	$12, %esi
	cmpl	%edx, %esi
	movl	%edi, %ebx
	jbe	LBB12_14
LBB12_18:
	movl	%edi, %eax
	shll	$12, %eax
	xorl	%ebp, %ebp
	cmpl	%edx, %eax
	movl	20(%esp), %esi
	movl	24(%esp), %ebx
	jbe	LBB12_23
	movl	%ecx, %ebp
	shll	$12, %ebp
	addl	$11538432, %ebp
	leal	(%ecx,%edi), %eax
	cmpl	%eax, %ecx
	jae	LBB12_23
	leal	7344128(,%ecx,4), %eax
	.align	16, 0x90
LBB12_21:
	cmpl	$1048576, %ecx
	jae	LBB12_22
	movl	%ebp, (%eax)
LBB12_22:
	incl	%ecx
	addl	$4, %eax
	decl	%edi
	jne	LBB12_21
LBB12_23:
	testl	%esi, %esi
	je	LBB12_24
	movl	$7344128, %edi
	testl	%ebp, %ebp
	je	LBB12_43
	cmpl	%edx, %ebx
	movl	%edx, %eax
	cmovbel	%ebx, %eax
	movl	%eax, 12(%esp)
	movl	%ebp, %ebx
	xorl	%ebp, %ebp
	movl	%eax, %ecx
	addl	$-4, %ecx
	je	LBB12_29
	xorl	%ebp, %ebp
	.align	16, 0x90
LBB12_28:
	movl	(%esi,%ebp,4), %eax
	movl	%eax, (%ebx,%ebp,4)
	addl	$4, %ebp
	cmpl	%ecx, %ebp
	jb	LBB12_28
LBB12_29:
	movl	%ebx, 16(%esp)
	movl	12(%esp), %ebx
	cmpl	%ebx, %ebp
	jae	LBB12_30
	movl	$-2, %ecx
	subl	%ebp, %ecx
	cmpl	%edx, 24(%esp)
	movl	%edx, %eax
	cmovbl	24(%esp), %eax
	notl	%eax
	subl	%eax, %ecx
	cmpl	$-1, %ecx
	je	LBB12_32
	movl	%edx, %ecx
	movl	%ebp, %ebx
	notl	%ebx
	movl	%ebx, %edx
	subl	%eax, %edx
	movl	%edx, %esi
	andl	$-16, %esi
	leal	(%edx,%ebp), %eax
	andl	$-16, %edx
	je	LBB12_34
	movl	%esi, (%esp)
	movl	%eax, 8(%esp)
	movl	16(%esp), %eax
	leal	(%eax,%ebp), %esi
	movl	%ecx, 4(%esp)
	movl	24(%esp), %eax
	cmpl	%ecx, %eax
	cmovbl	%eax, %ecx
	movl	20(%esp), %eax
	leal	-1(%eax,%ecx), %edx
	cmpl	%edx, %esi
	leal	(%eax,%ebp), %edx
	ja	LBB12_37
	movl	16(%esp), %eax
	leal	-1(%eax,%ecx), %eax
	cmpl	%eax, %edx
	jbe	LBB12_39
LBB12_37:
	addl	(%esp), %ebp
	movl	24(%esp), %eax
	notl	%eax
	movl	4(%esp), %ecx
	notl	%ecx
	cmpl	%ecx, %eax
	cmoval	%eax, %ecx
	subl	%ecx, %ebx
	andl	$-16, %ebx
	.align	16, 0x90
LBB12_38:
	movups	(%edx), %xmm0
	movups	%xmm0, (%esi)
	addl	$16, %edx
	addl	$16, %esi
	addl	$-16, %ebx
	jne	LBB12_38
LBB12_39:
	movl	12(%esp), %ebx
	movl	8(%esp), %eax
	jmp	LBB12_40
LBB12_1:
	testl	%ecx, %ecx
	je	LBB12_5
	movl	$7344128, %eax
	.align	16, 0x90
LBB12_3:
	cmpl	%ecx, (%eax)
	jne	LBB12_4
	movl	$0, (%eax)
LBB12_4:
	addl	$4, %eax
	cmpl	$11538432, %eax
	jne	LBB12_3
LBB12_5:
	xorl	%ecx, %ecx
	jmp	LBB12_6
LBB12_24:
	movl	%ebp, %ecx
	jmp	LBB12_6
LBB12_30:
	movl	16(%esp), %ebp
	jmp	LBB12_43
LBB12_32:
	movl	16(%esp), %ecx
	jmp	LBB12_41
LBB12_34:
	movl	12(%esp), %ebx
LBB12_40:
	cmpl	%ebp, %eax
	movl	20(%esp), %esi
	movl	16(%esp), %ecx
	je	LBB12_42
	.align	16, 0x90
LBB12_41:
	movb	(%esi,%ebp), %al
	movb	%al, (%ecx,%ebp)
	incl	%ebp
	cmpl	%ebx, %ebp
	jb	LBB12_41
LBB12_42:
	movl	%ecx, %ebp
	.align	16, 0x90
LBB12_43:
	cmpl	%esi, (%edi)
	jne	LBB12_44
	movl	$0, (%edi)
LBB12_44:
	addl	$4, %edi
	cmpl	$11538432, %edi
	jne	LBB12_43
	movl	%ebp, %ecx
LBB12_6:
	movl	%ecx, %eax
	addl	$28, %esp
	popl	%esi
	popl	%edi
	popl	%ebx
	popl	%ebp
	retl
	.cfi_endproc

	.def	 __ZN6common6string6String8from_str20h7f93e981d7e9751cHcbE;
	.scl	3;
	.type	32;
	.endef
	.align	16, 0x90
__ZN6common6string6String8from_str20h7f93e981d7e9751cHcbE:
	.cfi_startproc
	pushl	%ebp
Ltmp56:
	.cfi_def_cfa_offset 8
	pushl	%ebx
Ltmp57:
	.cfi_def_cfa_offset 12
	pushl	%edi
Ltmp58:
	.cfi_def_cfa_offset 16
	pushl	%esi
Ltmp59:
	.cfi_def_cfa_offset 20
	subl	$24, %esp
Ltmp60:
	.cfi_def_cfa_offset 44
Ltmp61:
	.cfi_offset %esi, -20
Ltmp62:
	.cfi_offset %edi, -16
Ltmp63:
	.cfi_offset %ebx, -12
Ltmp64:
	.cfi_offset %ebp, -8
	movl	%ecx, 4(%esp)
	movl	44(%esp), %eax
	testl	%eax, %eax
	je	LBB13_8
	leal	(%eax,%edx), %ecx
	movl	%ecx, 8(%esp)
	xorl	%edi, %edi
	movl	%edx, %ebp
	.align	16, 0x90
LBB13_2:
	leal	1(%ebp), %eax
	movb	(%ebp), %bl
	testb	%bl, %bl
	jns	LBB13_6
	addl	$2, %ebp
	cmpl	%ecx, %eax
	cmovnel	%ebp, %eax
	cmovel	%ecx, %ebp
	movzbl	%bl, %esi
	cmpl	$224, %esi
	jb	LBB13_6
	cmpl	%ecx, %ebp
	leal	1(%ebp), %ebx
	cmovnel	%ebx, %eax
	cmovel	%ecx, %ebx
	cmpl	$240, %esi
	jb	LBB13_6
	cmpl	%ecx, %ebx
	leal	1(%ebx), %esi
	cmovnel	%esi, %eax
	.align	16, 0x90
LBB13_6:
	incl	%edi
	cmpl	%ecx, %eax
	movl	%eax, %ebp
	jne	LBB13_2
	testl	%edi, %edi
	je	LBB13_8
	leal	(,%edi,4), %eax
	movl	%eax, 16(%esp)
	xorl	%esi, %esi
	testl	%eax, %eax
	je	LBB13_11
	movl	%edx, 20(%esp)
	xorl	%ebx, %ebx
	xorl	%edx, %edx
	movl	$0, 12(%esp)
LBB13_13:
	leal	7344128(,%ebx,4), %eax
	.align	16, 0x90
LBB13_14:
	movl	%edx, %ebp
	movl	%ebx, %esi
	cmpl	$1048575, %esi
	ja	LBB13_17
	leal	1(%esi), %ebx
	xorl	%edx, %edx
	cmpl	$0, (%eax)
	leal	4(%eax), %eax
	jne	LBB13_14
	testl	%ebp, %ebp
	movl	12(%esp), %eax
	cmovel	%esi, %eax
	movl	%eax, 12(%esp)
	incl	%ebp
	movl	%ebp, %eax
	shll	$12, %eax
	cmpl	16(%esp), %eax
	movl	%ebp, %edx
	jbe	LBB13_13
LBB13_17:
	movl	%ebp, %eax
	shll	$12, %eax
	cmpl	16(%esp), %eax
	movl	$0, %esi
	jbe	LBB13_22
	movl	12(%esp), %edx
	movl	%edx, %esi
	shll	$12, %esi
	addl	$11538432, %esi
	leal	(%edx,%ebp), %eax
	cmpl	%eax, %edx
	jae	LBB13_22
	leal	7344128(,%edx,4), %eax
	.align	16, 0x90
LBB13_20:
	cmpl	$1048576, %edx
	jae	LBB13_21
	movl	%esi, (%eax)
LBB13_21:
	incl	%edx
	addl	$4, %eax
	decl	%ebp
	jne	LBB13_20
	jmp	LBB13_22
LBB13_8:
	movl	4(%esp), %eax
	movl	$0, (%eax)
	movl	$0, 4(%eax)
	jmp	LBB13_9
LBB13_11:
	movl	%edx, 20(%esp)
LBB13_22:
	movl	%esi, (%esp)
	movl	%esi, %ebx
	movl	20(%esp), %esi
	.align	16, 0x90
LBB13_23:
	leal	1(%esi), %edx
	movzbl	(%esi), %eax
	testb	%al, %al
	js	LBB13_25
	movl	%edx, %esi
	jmp	LBB13_39
	.align	16, 0x90
LBB13_25:
	cmpl	%ecx, %edx
	je	LBB13_26
	movl	%esi, %edx
	movzbl	1(%edx), %ebp
	addl	$2, %edx
	movl	%edx, 20(%esp)
	andl	$63, %ebp
	jmp	LBB13_28
LBB13_26:
	xorl	%ebp, %ebp
	movl	%edx, 20(%esp)
	movl	%ecx, %edx
LBB13_28:
	movl	%eax, %esi
	andl	$31, %esi
	cmpl	$224, %eax
	jb	LBB13_29
	movl	$0, 16(%esp)
	cmpl	%ecx, %edx
	movl	%ecx, 12(%esp)
	je	LBB13_33
	movzbl	(%edx), %ecx
	movl	%ecx, 16(%esp)
	movl	8(%esp), %ecx
	incl	%edx
	andl	$63, 16(%esp)
	movl	%edx, 20(%esp)
	movl	%edx, 12(%esp)
LBB13_33:
	shll	$6, %ebp
	orl	16(%esp), %ebp
	cmpl	$240, %eax
	jb	LBB13_34
	xorl	%eax, %eax
	movl	12(%esp), %edx
	cmpl	%ecx, %edx
	je	LBB13_37
	movzbl	(%edx), %eax
	incl	%edx
	andl	$63, %eax
	movl	%edx, 20(%esp)
LBB13_37:
	andl	$7, %esi
	shll	$18, %esi
	shll	$6, %ebp
	orl	%esi, %ebp
	orl	%eax, %ebp
	jmp	LBB13_38
LBB13_29:
	shll	$6, %esi
	orl	%esi, %ebp
	jmp	LBB13_38
LBB13_34:
	shll	$12, %esi
	orl	%esi, %ebp
LBB13_38:
	movl	%ebp, %eax
	movl	20(%esp), %esi
LBB13_39:
	movl	%eax, (%ebx)
	addl	$4, %ebx
	cmpl	%ecx, %esi
	jne	LBB13_23
	movl	4(%esp), %eax
	movl	(%esp), %ecx
	movl	%ecx, (%eax)
	movl	%edi, 4(%eax)
LBB13_9:
	movb	$-44, 8(%eax)
	addl	$24, %esp
	popl	%esi
	popl	%edi
	popl	%ebx
	popl	%ebp
	retl
	.cfi_endproc

	.def	 __ZN6common6string28Chars$LT$$u27$a$GT$.Iterator4next20h7b9623d301eca981M9aE;
	.scl	2;
	.type	32;
	.endef
	.globl	__ZN6common6string28Chars$LT$$u27$a$GT$.Iterator4next20h7b9623d301eca981M9aE
	.align	16, 0x90
__ZN6common6string28Chars$LT$$u27$a$GT$.Iterator4next20h7b9623d301eca981M9aE:
	.cfi_startproc
	pushl	%esi
Ltmp65:
	.cfi_def_cfa_offset 8
Ltmp66:
	.cfi_offset %esi, -8
	movl	8(%esp), %eax
	movl	12(%esp), %ecx
	movl	(%ecx), %esi
	movl	4(%ecx), %edx
	cmpl	4(%esi), %edx
	jae	LBB14_3
	movl	(%esi), %esi
	movl	(%esi,%edx,4), %esi
	incl	%edx
	movl	%edx, 4(%ecx)
	movl	$1, (%eax)
	movl	%esi, 4(%eax)
	popl	%esi
	retl
LBB14_3:
	movl	$0, 4(%eax)
	movl	$0, (%eax)
	popl	%esi
	retl
	.cfi_endproc

	.def	 __ZN6common6string25String.Index$LT$usize$GT$5index20h6d65ef37716bab90ntbE;
	.scl	2;
	.type	32;
	.endef
	.globl	__ZN6common6string25String.Index$LT$usize$GT$5index20h6d65ef37716bab90ntbE
	.align	16, 0x90
__ZN6common6string25String.Index$LT$usize$GT$5index20h6d65ef37716bab90ntbE:
	.cfi_startproc
	movl	8(%esp), %ecx
	movl	4(%esp), %edx
	movl	$__ZN6common6string9NULL_CHAR20heb2515484737e5a9htbE, %eax
	cmpl	%ecx, 4(%edx)
	jbe	LBB15_2
	shll	$2, %ecx
	addl	(%edx), %ecx
	movl	%ecx, %eax
LBB15_2:
	retl
	.cfi_endproc

	.def	 __ZN6common6string28Split$LT$$u27$a$GT$.Iterator4next20h3da0c4d793d6577fIabE;
	.scl	2;
	.type	32;
	.endef
	.globl	__ZN6common6string28Split$LT$$u27$a$GT$.Iterator4next20h3da0c4d793d6577fIabE
	.align	16, 0x90
__ZN6common6string28Split$LT$$u27$a$GT$.Iterator4next20h3da0c4d793d6577fIabE:
	.cfi_startproc
	pushl	%ebp
Ltmp67:
	.cfi_def_cfa_offset 8
	pushl	%ebx
Ltmp68:
	.cfi_def_cfa_offset 12
	pushl	%edi
Ltmp69:
	.cfi_def_cfa_offset 16
	pushl	%esi
Ltmp70:
	.cfi_def_cfa_offset 20
	subl	$36, %esp
Ltmp71:
	.cfi_def_cfa_offset 56
Ltmp72:
	.cfi_offset %esi, -20
Ltmp73:
	.cfi_offset %edi, -16
Ltmp74:
	.cfi_offset %ebx, -12
Ltmp75:
	.cfi_offset %ebp, -8
	movl	56(%esp), %eax
	movl	60(%esp), %ebx
	movl	(%ebx), %edx
	movl	4(%ebx), %ecx
	movl	4(%edx), %esi
	movl	%esi, 12(%esp)
	cmpl	%esi, %ecx
	jae	LBB16_23
	movl	$0, 20(%esp)
	movl	%ecx, 8(%esp)
	movl	%ecx, %edi
	jmp	LBB16_2
	.align	16, 0x90
LBB16_22:
	movl	%eax, 20(%esp)
	movl	(%ebx), %edx
LBB16_2:
	movl	%edi, 16(%esp)
	movl	12(%ebx), %esi
	movl	%esi, 4(%esp)
	movl	%edi, (%esp)
	leal	24(%esp), %ecx
	calll	__ZN6common6string6String6substr20h781d66f970ad1759blbE
	cmpl	28(%esp), %esi
	jne	LBB16_6
	movl	8(%ebx), %ecx
	xorl	%edx, %edx
	movl	24(%esp), %eax
	xorl	%ebp, %ebp
	.align	16, 0x90
LBB16_4:
	cmpl	%esi, %ebp
	jae	LBB16_13
	incl	%ebp
	movl	(%ecx,%edx), %edi
	cmpl	(%eax,%edx), %edi
	leal	4(%edx), %edx
	je	LBB16_4
LBB16_6:
	movl	16(%esp), %edi
	incl	%edi
	incl	4(%ebx)
	movzbl	32(%esp), %eax
	cmpl	$212, %eax
	jne	LBB16_11
	movl	24(%esp), %eax
	movl	$7344128, %ecx
	testl	%eax, %eax
	je	LBB16_10
	.align	16, 0x90
LBB16_8:
	cmpl	%eax, (%ecx)
	jne	LBB16_9
	movl	$0, (%ecx)
LBB16_9:
	addl	$4, %ecx
	cmpl	$11538432, %ecx
	jne	LBB16_8
LBB16_10:
	movl	$0, 24(%esp)
	movl	$0, 28(%esp)
LBB16_11:
	movl	20(%esp), %eax
	incl	%eax
	cmpl	12(%esp), %edi
	jb	LBB16_22
	movl	56(%esp), %esi
	movl	8(%esp), %edi
	jmp	LBB16_20
LBB16_23:
	movsd	_const6725+8, %xmm0
	movsd	%xmm0, 8(%eax)
	movsd	_const6725, %xmm0
	movsd	%xmm0, (%eax)
	jmp	LBB16_24
LBB16_13:
	addl	%esi, 4(%ebx)
	movzbl	32(%esp), %ecx
	cmpl	$212, %ecx
	movl	8(%esp), %edi
	jne	LBB16_19
	testl	%eax, %eax
	je	LBB16_18
	movl	$7344128, %ecx
	.align	16, 0x90
LBB16_16:
	cmpl	%eax, (%ecx)
	jne	LBB16_17
	movl	$0, (%ecx)
LBB16_17:
	addl	$4, %ecx
	cmpl	$11538432, %ecx
	jne	LBB16_16
LBB16_18:
	movl	$0, 24(%esp)
	movl	$0, 28(%esp)
LBB16_19:
	movl	56(%esp), %esi
	movl	20(%esp), %eax
LBB16_20:
	leal	4(%esi), %ecx
	movl	(%ebx), %edx
	movl	%eax, 4(%esp)
	movl	%edi, (%esp)
	calll	__ZN6common6string6String6substr20h781d66f970ad1759blbE
	movl	$1, (%esi)
	movl	%esi, %eax
LBB16_24:
	addl	$36, %esp
	popl	%esi
	popl	%edi
	popl	%ebx
	popl	%ebp
	retl
	.cfi_endproc

	.def	 __ZN6common6string6String6substr20h781d66f970ad1759blbE;
	.scl	3;
	.type	32;
	.endef
	.align	16, 0x90
__ZN6common6string6String6substr20h781d66f970ad1759blbE:
	.cfi_startproc
	pushl	%ebp
Ltmp76:
	.cfi_def_cfa_offset 8
	pushl	%ebx
Ltmp77:
	.cfi_def_cfa_offset 12
	pushl	%edi
Ltmp78:
	.cfi_def_cfa_offset 16
	pushl	%esi
Ltmp79:
	.cfi_def_cfa_offset 20
	subl	$24, %esp
Ltmp80:
	.cfi_def_cfa_offset 44
Ltmp81:
	.cfi_offset %esi, -20
Ltmp82:
	.cfi_offset %edi, -16
Ltmp83:
	.cfi_offset %ebx, -12
Ltmp84:
	.cfi_offset %ebp, -8
	movl	%ecx, %edi
	movl	44(%esp), %eax
	movl	4(%edx), %esi
	cmpl	%eax, %esi
	cmovbl	%esi, %eax
	movl	48(%esp), %ecx
	addl	%eax, %ecx
	cmpl	%esi, %ecx
	cmoval	%esi, %ecx
	movl	%ecx, %esi
	subl	%eax, %esi
	jne	LBB17_3
	movl	$0, (%edi)
	movl	$0, 4(%edi)
	jmp	LBB17_2
LBB17_3:
	leal	(,%esi,4), %ebx
	movl	%ebx, 16(%esp)
	movl	%esi, 8(%esp)
	movl	$0, 20(%esp)
	testl	%ebx, %ebx
	je	LBB17_4
	movl	%ecx, (%esp)
	movl	%edx, 4(%esp)
	movl	%edi, 12(%esp)
	xorl	%edx, %edx
	xorl	%ebx, %ebx
	xorl	%ebp, %ebp
LBB17_6:
	leal	7344128(,%edx,4), %ecx
	.align	16, 0x90
LBB17_7:
	movl	%ebx, %esi
	movl	%edx, %edi
	cmpl	$1048575, %edi
	ja	LBB17_10
	leal	1(%edi), %edx
	xorl	%ebx, %ebx
	cmpl	$0, (%ecx)
	leal	4(%ecx), %ecx
	jne	LBB17_7
	testl	%esi, %esi
	cmovel	%edi, %ebp
	incl	%esi
	movl	%esi, %ecx
	shll	$12, %ecx
	cmpl	16(%esp), %ecx
	movl	%esi, %ebx
	jbe	LBB17_6
LBB17_10:
	movl	%esi, %ecx
	shll	$12, %ecx
	cmpl	16(%esp), %ecx
	movl	4(%esp), %edx
	movl	(%esp), %ecx
	jbe	LBB17_15
	movl	%ebp, %edi
	shll	$12, %edi
	addl	$11538432, %edi
	movl	%edi, 20(%esp)
	leal	(%ebp,%esi), %edi
	cmpl	%edi, %ebp
	jae	LBB17_15
	leal	7344128(,%ebp,4), %edi
	.align	16, 0x90
LBB17_13:
	cmpl	$1048576, %ebp
	jae	LBB17_14
	movl	20(%esp), %ebx
	movl	%ebx, (%edi)
LBB17_14:
	incl	%ebp
	addl	$4, %edi
	decl	%esi
	jne	LBB17_13
	jmp	LBB17_15
LBB17_4:
	movl	%edi, 12(%esp)
LBB17_15:
	cmpl	%eax, %ecx
	jbe	LBB17_18
	movl	20(%esp), %esi
	.align	16, 0x90
LBB17_17:
	movl	(%edx), %edi
	movl	(%edi,%eax,4), %edi
	incl	%eax
	movl	%edi, (%esi)
	addl	$4, %esi
	cmpl	%ecx, %eax
	jb	LBB17_17
LBB17_18:
	movl	20(%esp), %eax
	movl	12(%esp), %edi
	movl	%eax, (%edi)
	movl	8(%esp), %eax
	movl	%eax, 4(%edi)
LBB17_2:
	movb	$-44, 8(%edi)
	movl	%edi, %eax
	addl	$24, %esp
	popl	%esi
	popl	%edi
	popl	%ebx
	popl	%ebp
	retl
	.cfi_endproc

	.def	 __ZN6common6string6String12from_c_slice20hd04f40d68728d9432dbE;
	.scl	3;
	.type	32;
	.endef
	.align	16, 0x90
__ZN6common6string6String12from_c_slice20hd04f40d68728d9432dbE:
	.cfi_startproc
	pushl	%ebp
Ltmp85:
	.cfi_def_cfa_offset 8
	pushl	%ebx
Ltmp86:
	.cfi_def_cfa_offset 12
	pushl	%edi
Ltmp87:
	.cfi_def_cfa_offset 16
	pushl	%esi
Ltmp88:
	.cfi_def_cfa_offset 20
	subl	$16, %esp
Ltmp89:
	.cfi_def_cfa_offset 36
Ltmp90:
	.cfi_offset %esi, -20
Ltmp91:
	.cfi_offset %edi, -16
Ltmp92:
	.cfi_offset %ebx, -12
Ltmp93:
	.cfi_offset %ebp, -8
	movl	36(%esp), %edi
	testl	%edi, %edi
	je	LBB18_4
	xorl	%eax, %eax
	.align	16, 0x90
LBB18_2:
	cmpb	$0, (%edx,%eax)
	je	LBB18_3
	incl	%eax
	cmpl	%eax, %edi
	jne	LBB18_2
LBB18_3:
	testl	%eax, %eax
	je	LBB18_4
	leal	(,%eax,4), %esi
	movl	%esi, 8(%esp)
	movl	$0, 12(%esp)
	testl	%esi, %esi
	je	LBB18_18
	movl	%ecx, (%esp)
	xorl	%ebx, %ebx
	xorl	%esi, %esi
	movl	$0, 4(%esp)
LBB18_8:
	leal	7344128(,%ebx,4), %edi
	.align	16, 0x90
LBB18_9:
	movl	%esi, %ebp
	movl	%ebx, %ecx
	cmpl	$1048575, %ecx
	ja	LBB18_12
	leal	1(%ecx), %ebx
	xorl	%esi, %esi
	cmpl	$0, (%edi)
	leal	4(%edi), %edi
	jne	LBB18_9
	testl	%ebp, %ebp
	movl	4(%esp), %esi
	cmovel	%ecx, %esi
	movl	%esi, 4(%esp)
	incl	%ebp
	movl	%ebp, %ecx
	shll	$12, %ecx
	cmpl	8(%esp), %ecx
	movl	%ebp, %esi
	jbe	LBB18_8
LBB18_12:
	movl	%ebp, %ecx
	shll	$12, %ecx
	cmpl	8(%esp), %ecx
	movl	(%esp), %ecx
	movl	36(%esp), %edi
	jbe	LBB18_18
	movl	%edx, 8(%esp)
	movl	4(%esp), %edx
	movl	%edx, %esi
	shll	$12, %esi
	addl	$11538432, %esi
	movl	%esi, 12(%esp)
	leal	(%edx,%ebp), %esi
	cmpl	%esi, %edx
	jae	LBB18_17
	leal	7344128(,%edx,4), %esi
	.align	16, 0x90
LBB18_15:
	cmpl	$1048576, %edx
	jae	LBB18_16
	movl	12(%esp), %ebx
	movl	%ebx, (%esi)
LBB18_16:
	incl	%edx
	addl	$4, %esi
	decl	%ebp
	jne	LBB18_15
LBB18_17:
	movl	8(%esp), %edx
LBB18_18:
	testl	%edi, %edi
	je	LBB18_31
	movl	%edi, %ebx
	negl	%ebx
	movl	%ebx, 4(%esp)
	cmpl	$1, %eax
	movl	$1, %esi
	cmoval	%eax, %esi
	negl	%esi
	cmpl	%esi, %ebx
	cmoval	%ebx, %esi
	xorl	%ebx, %ebx
	testl	%esi, %esi
	movl	%edx, %ebp
	je	LBB18_20
	negl	%esi
	movl	%esi, 8(%esp)
	xorl	%ebx, %ebx
	andl	$-8, %esi
	je	LBB18_24
	movl	%esi, (%esp)
	cmpl	$1, %eax
	movl	$1, %edi
	movl	$1, %ebp
	cmoval	%eax, %ebp
	movl	36(%esp), %esi
	leal	-1(%esi), %esi
	decl	%ebp
	cmpl	%esi, %ebp
	cmoval	%esi, %ebp
	leal	(%edx,%ebp), %esi
	cmpl	%esi, 12(%esp)
	ja	LBB18_27
	movl	12(%esp), %esi
	leal	(%esi,%ebp,4), %esi
	cmpl	%edx, %esi
	movl	%edx, %ebp
	jae	LBB18_30
LBB18_27:
	movl	(%esp), %esi
	leal	(%edx,%esi), %ebp
	movl	12(%esp), %esi
	leal	16(%esi), %ebx
	cmpl	$1, %eax
	cmoval	%eax, %edi
	negl	%edi
	movl	4(%esp), %esi
	cmpl	%edi, %esi
	cmoval	%esi, %edi
	leal	4(%edx), %esi
	negl	%edi
	andl	$-8, %edi
	pxor	%xmm0, %xmm0
	.align	16, 0x90
LBB18_28:
	movd	-4(%esi), %xmm1
	movd	(%esi), %xmm2
	punpcklbw	%xmm0, %xmm1
	punpcklwd	%xmm0, %xmm1
	punpcklbw	%xmm0, %xmm2
	punpcklwd	%xmm0, %xmm2
	movdqu	%xmm1, -16(%ebx)
	movdqu	%xmm2, (%ebx)
	addl	$32, %ebx
	addl	$8, %esi
	addl	$-8, %edi
	jne	LBB18_28
	movl	(%esp), %ebx
	jmp	LBB18_30
LBB18_4:
	movl	$0, (%ecx)
	movl	$0, 4(%ecx)
	jmp	LBB18_5
LBB18_24:
	movl	%edx, %ebp
LBB18_30:
	cmpl	8(%esp), %ebx
	movl	36(%esp), %edi
	je	LBB18_31
LBB18_20:
	incl	%ebx
	leal	-1(%edi,%edx), %esi
	movl	12(%esp), %edi
	.align	16, 0x90
LBB18_21:
	movzbl	(%ebp), %edx
	movl	%edx, -4(%edi,%ebx,4)
	cmpl	%ebp, %esi
	je	LBB18_31
	incl	%ebp
	cmpl	%eax, %ebx
	leal	1(%ebx), %ebx
	jb	LBB18_21
LBB18_31:
	movl	12(%esp), %edx
	movl	%edx, (%ecx)
	movl	%eax, 4(%ecx)
LBB18_5:
	movb	$-44, 8(%ecx)
	movl	%ecx, %eax
	addl	$16, %esp
	popl	%esi
	popl	%edi
	popl	%ebx
	popl	%ebp
	retl
	.cfi_endproc

	.def	 __ZN6common6string6String14from_num_radix20hc4d11e57622c5b406hbE;
	.scl	3;
	.type	32;
	.endef
	.align	16, 0x90
__ZN6common6string6String14from_num_radix20hc4d11e57622c5b406hbE:
	.cfi_startproc
	pushl	%ebp
Ltmp94:
	.cfi_def_cfa_offset 8
	pushl	%ebx
Ltmp95:
	.cfi_def_cfa_offset 12
	pushl	%edi
Ltmp96:
	.cfi_def_cfa_offset 16
	pushl	%esi
Ltmp97:
	.cfi_def_cfa_offset 20
	subl	$16, %esp
Ltmp98:
	.cfi_def_cfa_offset 36
Ltmp99:
	.cfi_offset %esi, -20
Ltmp100:
	.cfi_offset %edi, -16
Ltmp101:
	.cfi_offset %ebx, -12
Ltmp102:
	.cfi_offset %ebp, -8
	movl	36(%esp), %esi
	testl	%esi, %esi
	je	LBB19_3
	movl	$1, %edi
	movl	$4, %eax
	cmpl	%esi, %edx
	jae	LBB19_20
	movl	%edx, 4(%esp)
	movl	%ecx, 8(%esp)
	jmp	LBB19_6
LBB19_3:
	movl	$0, (%ecx)
	movl	$0, 4(%ecx)
	jmp	LBB19_4
LBB19_20:
	movl	%ecx, 8(%esp)
	movl	%edx, 4(%esp)
	movl	%edx, %eax
	.align	16, 0x90
LBB19_21:
	xorl	%edx, %edx
	divl	%esi
	incl	%edi
	cmpl	%esi, %eax
	jae	LBB19_21
	leal	(,%edi,4), %eax
	xorl	%esi, %esi
	testl	%eax, %eax
	je	LBB19_16
LBB19_6:
	movl	%eax, 12(%esp)
	xorl	%esi, %esi
	xorl	%ebx, %ebx
	xorl	%eax, %eax
LBB19_7:
	leal	7344128(,%esi,4), %ecx
	.align	16, 0x90
LBB19_8:
	movl	%ebx, %edx
	movl	%esi, %ebp
	cmpl	$1048575, %ebp
	ja	LBB19_11
	leal	1(%ebp), %esi
	xorl	%ebx, %ebx
	cmpl	$0, (%ecx)
	leal	4(%ecx), %ecx
	jne	LBB19_8
	testl	%edx, %edx
	cmovel	%ebp, %eax
	incl	%edx
	movl	%edx, %ecx
	shll	$12, %ecx
	cmpl	12(%esp), %ecx
	movl	%edx, %ebx
	jbe	LBB19_7
LBB19_11:
	movl	%edx, %ecx
	shll	$12, %ecx
	xorl	%esi, %esi
	cmpl	12(%esp), %ecx
	jbe	LBB19_16
	movl	%eax, %esi
	shll	$12, %esi
	addl	$11538432, %esi
	leal	(%eax,%edx), %ecx
	cmpl	%ecx, %eax
	jae	LBB19_16
	leal	7344128(,%eax,4), %ecx
	.align	16, 0x90
LBB19_14:
	cmpl	$1048576, %eax
	jae	LBB19_15
	movl	%esi, (%ecx)
LBB19_15:
	incl	%eax
	addl	$4, %ecx
	decl	%edx
	jne	LBB19_14
LBB19_16:
	movl	%edi, 12(%esp)
	testl	%edi, %edi
	movl	36(%esp), %edi
	movl	4(%esp), %eax
	je	LBB19_19
	movl	12(%esp), %ebx
	movl	$55, %ebp
	.align	16, 0x90
LBB19_18:
	xorl	%edx, %edx
	divl	%edi
	movl	%esi, %ecx
	movzbl	%dl, %esi
	cmpl	$9, %esi
	movl	%ecx, %esi
	movl	$48, %ecx
	cmoval	%ebp, %ecx
	addl	%edx, %ecx
	movzbl	%cl, %ecx
	movl	%ecx, -4(%esi,%ebx,4)
	decl	%ebx
	jne	LBB19_18
LBB19_19:
	movl	8(%esp), %ecx
	movl	%esi, (%ecx)
	movl	12(%esp), %eax
	movl	%eax, 4(%ecx)
LBB19_4:
	movb	$-44, 8(%ecx)
	movl	%ecx, %eax
	addl	$16, %esp
	popl	%esi
	popl	%edi
	popl	%ebx
	popl	%ebp
	retl
	.cfi_endproc

	.def	 __ZN6common6string6String11starts_with20h744081d49c163c7adnbE;
	.scl	3;
	.type	32;
	.endef
	.align	16, 0x90
__ZN6common6string6String11starts_with20h744081d49c163c7adnbE:
	.cfi_startproc
	pushl	%ebx
Ltmp103:
	.cfi_def_cfa_offset 8
	pushl	%edi
Ltmp104:
	.cfi_def_cfa_offset 12
	pushl	%esi
Ltmp105:
	.cfi_def_cfa_offset 16
	subl	$20, %esp
Ltmp106:
	.cfi_def_cfa_offset 36
Ltmp107:
	.cfi_offset %esi, -16
Ltmp108:
	.cfi_offset %edi, -12
Ltmp109:
	.cfi_offset %ebx, -8
	movl	%edx, %esi
	movl	%ecx, %eax
	movl	4(%esi), %edi
	cmpl	%edi, 4(%eax)
	jae	LBB20_2
	xorl	%eax, %eax
	jmp	LBB20_13
LBB20_2:
	movl	%edi, 4(%esp)
	movl	$0, (%esp)
	leal	8(%esp), %ecx
	movl	%eax, %edx
	calll	__ZN6common6string6String6substr20h781d66f970ad1759blbE
	xorl	%ecx, %ecx
	cmpl	%edi, 12(%esp)
	movl	$0, %eax
	jne	LBB20_7
	movl	8(%esp), %edx
	movl	(%esi), %ebx
	.align	16, 0x90
LBB20_4:
	movb	$1, %al
	cmpl	%edi, %ecx
	jae	LBB20_7
	incl	%ecx
	movl	(%edx), %eax
	addl	$4, %edx
	cmpl	(%ebx), %eax
	leal	4(%ebx), %ebx
	je	LBB20_4
	xorl	%eax, %eax
LBB20_7:
	movzbl	16(%esp), %ecx
	cmpl	$212, %ecx
	jne	LBB20_13
	movl	8(%esp), %ecx
	testl	%ecx, %ecx
	je	LBB20_12
	movl	$7344128, %edx
	.align	16, 0x90
LBB20_10:
	cmpl	%ecx, (%edx)
	jne	LBB20_11
	movl	$0, (%edx)
LBB20_11:
	addl	$4, %edx
	cmpl	$11538432, %edx
	jne	LBB20_10
LBB20_12:
	movl	$0, 8(%esp)
	movl	$0, 12(%esp)
LBB20_13:
	movzbl	8(%esi), %ecx
	cmpl	$212, %ecx
	jne	LBB20_19
	movl	(%esi), %ecx
	testl	%ecx, %ecx
	je	LBB20_18
	movl	$7344128, %edx
	.align	16, 0x90
LBB20_16:
	cmpl	%ecx, (%edx)
	jne	LBB20_17
	movl	$0, (%edx)
LBB20_17:
	addl	$4, %edx
	cmpl	$11538432, %edx
	jne	LBB20_16
LBB20_18:
	movl	$0, (%esi)
	movl	$0, 4(%esi)
LBB20_19:
	movzbl	%al, %eax
	addl	$20, %esp
	popl	%esi
	popl	%edi
	popl	%ebx
	retl
	.cfi_endproc

	.def	 __ZN6common6string6String9ends_with20hceb16bdc2e4ddf1bInbE;
	.scl	3;
	.type	32;
	.endef
	.align	16, 0x90
__ZN6common6string6String9ends_with20hceb16bdc2e4ddf1bInbE:
	.cfi_startproc
	pushl	%ebx
Ltmp110:
	.cfi_def_cfa_offset 8
	pushl	%edi
Ltmp111:
	.cfi_def_cfa_offset 12
	pushl	%esi
Ltmp112:
	.cfi_def_cfa_offset 16
	subl	$20, %esp
Ltmp113:
	.cfi_def_cfa_offset 36
Ltmp114:
	.cfi_offset %esi, -16
Ltmp115:
	.cfi_offset %edi, -12
Ltmp116:
	.cfi_offset %ebx, -8
	movl	%edx, %esi
	movl	%ecx, %eax
	movl	4(%eax), %ecx
	movl	4(%esi), %edi
	subl	%edi, %ecx
	jae	LBB21_2
	xorl	%eax, %eax
	jmp	LBB21_13
LBB21_2:
	movl	%edi, 4(%esp)
	movl	%ecx, (%esp)
	leal	8(%esp), %ecx
	movl	%eax, %edx
	calll	__ZN6common6string6String6substr20h781d66f970ad1759blbE
	xorl	%ecx, %ecx
	cmpl	%edi, 12(%esp)
	movl	$0, %eax
	jne	LBB21_7
	movl	8(%esp), %edx
	movl	(%esi), %ebx
	.align	16, 0x90
LBB21_4:
	movb	$1, %al
	cmpl	%edi, %ecx
	jae	LBB21_7
	incl	%ecx
	movl	(%edx), %eax
	addl	$4, %edx
	cmpl	(%ebx), %eax
	leal	4(%ebx), %ebx
	je	LBB21_4
	xorl	%eax, %eax
LBB21_7:
	movzbl	16(%esp), %ecx
	cmpl	$212, %ecx
	jne	LBB21_13
	movl	8(%esp), %ecx
	testl	%ecx, %ecx
	je	LBB21_12
	movl	$7344128, %edx
	.align	16, 0x90
LBB21_10:
	cmpl	%ecx, (%edx)
	jne	LBB21_11
	movl	$0, (%edx)
LBB21_11:
	addl	$4, %edx
	cmpl	$11538432, %edx
	jne	LBB21_10
LBB21_12:
	movl	$0, 8(%esp)
	movl	$0, 12(%esp)
LBB21_13:
	movzbl	8(%esi), %ecx
	cmpl	$212, %ecx
	jne	LBB21_19
	movl	(%esi), %ecx
	testl	%ecx, %ecx
	je	LBB21_18
	movl	$7344128, %edx
	.align	16, 0x90
LBB21_16:
	cmpl	%ecx, (%edx)
	jne	LBB21_17
	movl	$0, (%edx)
LBB21_17:
	addl	$4, %edx
	cmpl	$11538432, %edx
	jne	LBB21_16
LBB21_18:
	movl	$0, (%esi)
	movl	$0, 4(%esi)
LBB21_19:
	movzbl	%al, %eax
	addl	$20, %esp
	popl	%esi
	popl	%edi
	popl	%ebx
	retl
	.cfi_endproc

	.def	 __ZN6common6string12String.Clone5clone20h5fca389a4257b67cmvbE;
	.scl	2;
	.type	32;
	.endef
	.globl	__ZN6common6string12String.Clone5clone20h5fca389a4257b67cmvbE
	.align	16, 0x90
__ZN6common6string12String.Clone5clone20h5fca389a4257b67cmvbE:
	.cfi_startproc
	pushl	%esi
Ltmp117:
	.cfi_def_cfa_offset 8
	subl	$8, %esp
Ltmp118:
	.cfi_def_cfa_offset 16
Ltmp119:
	.cfi_offset %esi, -8
	movl	16(%esp), %esi
	movl	20(%esp), %edx
	movl	4(%edx), %eax
	movl	%eax, 4(%esp)
	movl	$0, (%esp)
	movl	%esi, %ecx
	calll	__ZN6common6string6String6substr20h781d66f970ad1759blbE
	movl	%esi, %eax
	addl	$8, %esp
	popl	%esi
	retl
	.cfi_endproc

	.def	 __ZN6common6string10String.Add3add20h26afdd2bcebd3262cwbE;
	.scl	2;
	.type	32;
	.endef
	.globl	__ZN6common6string10String.Add3add20h26afdd2bcebd3262cwbE
	.align	16, 0x90
__ZN6common6string10String.Add3add20h26afdd2bcebd3262cwbE:
	.cfi_startproc
	pushl	%ebp
Ltmp120:
	.cfi_def_cfa_offset 8
	pushl	%ebx
Ltmp121:
	.cfi_def_cfa_offset 12
	pushl	%edi
Ltmp122:
	.cfi_def_cfa_offset 16
	pushl	%esi
Ltmp123:
	.cfi_def_cfa_offset 20
	subl	$12, %esp
Ltmp124:
	.cfi_def_cfa_offset 32
Ltmp125:
	.cfi_offset %esi, -20
Ltmp126:
	.cfi_offset %edi, -16
Ltmp127:
	.cfi_offset %ebx, -12
Ltmp128:
	.cfi_offset %ebp, -8
	movl	32(%esp), %eax
	movl	40(%esp), %ebx
	movl	36(%esp), %ebp
	movl	4(%ebp), %edx
	movl	4(%ebx), %ecx
	addl	%edx, %ecx
	je	LBB23_1
	leal	(,%ecx,4), %esi
	movl	%esi, 8(%esp)
	xorl	%edi, %edi
	testl	%esi, %esi
	je	LBB23_16
	movl	%edx, (%esp)
	movl	%ecx, 4(%esp)
	xorl	%edx, %edx
	xorl	%eax, %eax
	xorl	%ebx, %ebx
LBB23_18:
	leal	7344128(,%edx,4), %esi
	.align	16, 0x90
LBB23_19:
	movl	%eax, %ecx
	movl	%edx, %ebp
	cmpl	$1048575, %ebp
	ja	LBB23_20
	leal	1(%ebp), %edx
	xorl	%eax, %eax
	cmpl	$0, (%esi)
	leal	4(%esi), %esi
	jne	LBB23_19
	testl	%ecx, %ecx
	cmovel	%ebp, %ebx
	incl	%ecx
	movl	%ecx, %eax
	shll	$12, %eax
	cmpl	8(%esp), %eax
	movl	%ecx, %eax
	movl	36(%esp), %ebp
	jbe	LBB23_18
	jmp	LBB23_23
LBB23_20:
	movl	36(%esp), %ebp
LBB23_23:
	movl	%ecx, %eax
	shll	$12, %eax
	cmpl	8(%esp), %eax
	jbe	LBB23_24
	movl	%ebp, %edx
	movl	%ebx, %esi
	shll	$12, %esi
	addl	$11538432, %esi
	leal	(%ebx,%ecx), %eax
	cmpl	%eax, %ebx
	jae	LBB23_27
	leal	7344128(,%ebx,4), %ebp
	.align	16, 0x90
LBB23_29:
	cmpl	$1048576, %ebx
	jae	LBB23_30
	movl	%esi, (%ebp)
LBB23_30:
	incl	%ebx
	addl	$4, %ebp
	decl	%ecx
	jne	LBB23_29
	movl	%edx, %ebp
	movl	4(%ebp), %edx
	movl	32(%esp), %eax
	movl	40(%esp), %ebx
	jmp	LBB23_32
LBB23_1:
	movl	$0, (%eax)
	movl	$0, 4(%eax)
	jmp	LBB23_2
LBB23_16:
	movl	%ecx, 4(%esp)
	xorl	%esi, %esi
	jmp	LBB23_32
LBB23_24:
	xorl	%esi, %esi
	movl	32(%esp), %eax
	jmp	LBB23_25
LBB23_27:
	movl	32(%esp), %eax
	movl	%edx, %ebp
LBB23_25:
	movl	40(%esp), %ebx
	movl	(%esp), %edx
LBB23_32:
	testl	%edx, %edx
	je	LBB23_35
	xorl	%edi, %edi
	.align	16, 0x90
LBB23_34:
	movl	(%ebp), %ecx
	movl	(%ecx,%edi,4), %ecx
	movl	%ecx, (%esi,%edi,4)
	incl	%edi
	cmpl	4(%ebp), %edi
	jb	LBB23_34
LBB23_35:
	movl	%esi, 8(%esp)
	cmpl	$0, 4(%ebx)
	je	LBB23_38
	movl	8(%esp), %ecx
	leal	(%ecx,%edi,4), %esi
	xorl	%ecx, %ecx
	xorl	%edx, %edx
	.align	16, 0x90
LBB23_37:
	movl	(%ebx), %edi
	movl	(%ecx,%edi), %edi
	movl	%edi, (%esi,%edx,4)
	incl	%edx
	addl	$4, %ecx
	cmpl	4(%ebx), %edx
	jb	LBB23_37
LBB23_38:
	movl	8(%esp), %ecx
	movl	%ecx, (%eax)
	movl	4(%esp), %ecx
	movl	%ecx, 4(%eax)
LBB23_2:
	movb	$-44, 8(%eax)
	movzbl	8(%ebx), %ecx
	cmpl	$212, %ecx
	jne	LBB23_8
	movl	(%ebx), %edx
	testl	%edx, %edx
	je	LBB23_7
	movl	$7344128, %ecx
	.align	16, 0x90
LBB23_5:
	cmpl	%edx, (%ecx)
	jne	LBB23_6
	movl	$0, (%ecx)
LBB23_6:
	addl	$4, %ecx
	cmpl	$11538432, %ecx
	jne	LBB23_5
LBB23_7:
	movl	$0, (%ebx)
	movl	$0, 4(%ebx)
LBB23_8:
	movzbl	8(%ebp), %ecx
	cmpl	$212, %ecx
	jne	LBB23_14
	movl	(%ebp), %edx
	testl	%edx, %edx
	je	LBB23_13
	movl	$7344128, %ecx
	.align	16, 0x90
LBB23_11:
	cmpl	%edx, (%ecx)
	jne	LBB23_12
	movl	$0, (%ecx)
LBB23_12:
	addl	$4, %ecx
	cmpl	$11538432, %ecx
	jne	LBB23_11
LBB23_13:
	movl	$0, (%ebp)
	movl	$0, 4(%ebp)
LBB23_14:
	addl	$12, %esp
	popl	%esi
	popl	%edi
	popl	%ebx
	popl	%ebp
	retl
	.cfi_endproc

	.def	 __ZN6common6string39String.Add$LT$$RF$$u27$a$u20$String$GT$3add20h173db46f05021a13iybE;
	.scl	2;
	.type	32;
	.endef
	.globl	__ZN6common6string39String.Add$LT$$RF$$u27$a$u20$String$GT$3add20h173db46f05021a13iybE
	.align	16, 0x90
__ZN6common6string39String.Add$LT$$RF$$u27$a$u20$String$GT$3add20h173db46f05021a13iybE:
	.cfi_startproc
	pushl	%ebx
Ltmp129:
	.cfi_def_cfa_offset 8
	pushl	%edi
Ltmp130:
	.cfi_def_cfa_offset 12
	pushl	%esi
Ltmp131:
	.cfi_def_cfa_offset 16
	subl	$36, %esp
Ltmp132:
	.cfi_def_cfa_offset 52
Ltmp133:
	.cfi_offset %esi, -16
Ltmp134:
	.cfi_offset %edi, -12
Ltmp135:
	.cfi_offset %ebx, -8
	movl	52(%esp), %esi
	movl	56(%esp), %ebx
	movl	60(%esp), %edx
	movl	4(%edx), %eax
	movl	%eax, 4(%esp)
	movl	$0, (%esp)
	leal	24(%esp), %edi
	movl	%edi, %ecx
	calll	__ZN6common6string6String6substr20h781d66f970ad1759blbE
	movl	8(%ebx), %eax
	movl	%eax, 20(%esp)
	movsd	(%ebx), %xmm0
	movsd	%xmm0, 12(%esp)
	movl	%edi, 8(%esp)
	leal	12(%esp), %eax
	movl	%eax, 4(%esp)
	movl	%esi, (%esp)
	calll	__ZN6common6string10String.Add3add20h26afdd2bcebd3262cwbE
	movl	%esi, %eax
	addl	$36, %esp
	popl	%esi
	popl	%edi
	popl	%ebx
	retl
	.cfi_endproc

	.def	 __ZN6common6string36String.Add$LT$$RF$$u27$a$u20$str$GT$3add20hd634d7e9e6514b55IybE;
	.scl	2;
	.type	32;
	.endef
	.globl	__ZN6common6string36String.Add$LT$$RF$$u27$a$u20$str$GT$3add20hd634d7e9e6514b55IybE
	.align	16, 0x90
__ZN6common6string36String.Add$LT$$RF$$u27$a$u20$str$GT$3add20hd634d7e9e6514b55IybE:
	.cfi_startproc
	pushl	%ebx
Ltmp136:
	.cfi_def_cfa_offset 8
	pushl	%edi
Ltmp137:
	.cfi_def_cfa_offset 12
	pushl	%esi
Ltmp138:
	.cfi_def_cfa_offset 16
	subl	$36, %esp
Ltmp139:
	.cfi_def_cfa_offset 52
Ltmp140:
	.cfi_offset %esi, -16
Ltmp141:
	.cfi_offset %edi, -12
Ltmp142:
	.cfi_offset %ebx, -8
	movl	52(%esp), %esi
	movl	56(%esp), %ebx
	movl	60(%esp), %edx
	movl	64(%esp), %eax
	movl	%eax, (%esp)
	leal	24(%esp), %edi
	movl	%edi, %ecx
	calll	__ZN6common6string6String8from_str20h7f93e981d7e9751cHcbE
	movl	8(%ebx), %eax
	movl	%eax, 20(%esp)
	movsd	(%ebx), %xmm0
	movsd	%xmm0, 12(%esp)
	movl	%edi, 8(%esp)
	leal	12(%esp), %eax
	movl	%eax, 4(%esp)
	movl	%esi, (%esp)
	calll	__ZN6common6string10String.Add3add20h26afdd2bcebd3262cwbE
	movl	%esi, %eax
	addl	$36, %esp
	popl	%esi
	popl	%edi
	popl	%ebx
	retl
	.cfi_endproc

	.def	 __ZN6common6string22String.Add$LT$char$GT$3add20h7c2005ddfb05739a9ybE;
	.scl	2;
	.type	32;
	.endef
	.globl	__ZN6common6string22String.Add$LT$char$GT$3add20h7c2005ddfb05739a9ybE
	.align	16, 0x90
__ZN6common6string22String.Add$LT$char$GT$3add20h7c2005ddfb05739a9ybE:
	.cfi_startproc
	pushl	%ebx
Ltmp143:
	.cfi_def_cfa_offset 8
	pushl	%edi
Ltmp144:
	.cfi_def_cfa_offset 12
	pushl	%esi
Ltmp145:
	.cfi_def_cfa_offset 16
	subl	$36, %esp
Ltmp146:
	.cfi_def_cfa_offset 52
Ltmp147:
	.cfi_offset %esi, -16
Ltmp148:
	.cfi_offset %edi, -12
Ltmp149:
	.cfi_offset %ebx, -8
	movl	52(%esp), %esi
	movl	60(%esp), %ecx
	movl	56(%esp), %eax
	testl	%ecx, %ecx
	je	LBB26_5
	movl	$-1, %edx
	movl	$7344128, %ebx
	.align	16, 0x90
LBB26_2:
	movl	%ebx, %edi
	incl	%edx
	leal	4(%edi), %ebx
	cmpl	$0, (%edi)
	jne	LBB26_2
	shll	$12, %edx
	leal	11538432(%edx), %ebx
	movl	%ebx, (%edi)
	movl	%ecx, 11538432(%edx)
	movl	%ebx, 24(%esp)
	movl	$1, 28(%esp)
	jmp	LBB26_4
LBB26_5:
	movl	$0, 24(%esp)
	movl	$0, 28(%esp)
LBB26_4:
	movb	$-44, 32(%esp)
	movl	8(%eax), %ecx
	movl	%ecx, 20(%esp)
	movsd	(%eax), %xmm0
	movsd	%xmm0, 12(%esp)
	leal	24(%esp), %eax
	movl	%eax, 8(%esp)
	leal	12(%esp), %eax
	movl	%eax, 4(%esp)
	movl	%esi, (%esp)
	calll	__ZN6common6string10String.Add3add20h26afdd2bcebd3262cwbE
	movl	%esi, %eax
	addl	$36, %esp
	popl	%esi
	popl	%edi
	popl	%ebx
	retl
	.cfi_endproc

	.def	 __ZN6common6string23String.Add$LT$usize$GT$3add20h1df806eeade71b28vzbE;
	.scl	2;
	.type	32;
	.endef
	.globl	__ZN6common6string23String.Add$LT$usize$GT$3add20h1df806eeade71b28vzbE
	.align	16, 0x90
__ZN6common6string23String.Add$LT$usize$GT$3add20h1df806eeade71b28vzbE:
	.cfi_startproc
	pushl	%ebx
Ltmp150:
	.cfi_def_cfa_offset 8
	pushl	%edi
Ltmp151:
	.cfi_def_cfa_offset 12
	pushl	%esi
Ltmp152:
	.cfi_def_cfa_offset 16
	subl	$36, %esp
Ltmp153:
	.cfi_def_cfa_offset 52
Ltmp154:
	.cfi_offset %esi, -16
Ltmp155:
	.cfi_offset %edi, -12
Ltmp156:
	.cfi_offset %ebx, -8
	movl	52(%esp), %esi
	movl	56(%esp), %ebx
	movl	60(%esp), %edx
	movl	$10, (%esp)
	leal	24(%esp), %edi
	movl	%edi, %ecx
	calll	__ZN6common6string6String14from_num_radix20hc4d11e57622c5b406hbE
	movl	8(%ebx), %eax
	movl	%eax, 20(%esp)
	movsd	(%ebx), %xmm0
	movsd	%xmm0, 12(%esp)
	movl	%edi, 8(%esp)
	leal	12(%esp), %eax
	movl	%eax, 4(%esp)
	movl	%esi, (%esp)
	calll	__ZN6common6string10String.Add3add20h26afdd2bcebd3262cwbE
	movl	%esi, %eax
	addl	$36, %esp
	popl	%esi
	popl	%edi
	popl	%ebx
	retl
	.cfi_endproc

	.def	 __ZN6common3url3URL11from_string20hcfa9e8297be17280gPbE;
	.scl	3;
	.type	32;
	.endef
	.align	16, 0x90
__ZN6common3url3URL11from_string20hcfa9e8297be17280gPbE:
	.cfi_startproc
	pushl	%ebp
Ltmp157:
	.cfi_def_cfa_offset 8
	pushl	%ebx
Ltmp158:
	.cfi_def_cfa_offset 12
	pushl	%edi
Ltmp159:
	.cfi_def_cfa_offset 16
	pushl	%esi
Ltmp160:
	.cfi_def_cfa_offset 20
	subl	$308, %esp
Ltmp161:
	.cfi_def_cfa_offset 328
Ltmp162:
	.cfi_offset %esi, -20
Ltmp163:
	.cfi_offset %edi, -16
Ltmp164:
	.cfi_offset %ebx, -12
Ltmp165:
	.cfi_offset %ebp, -8
	movl	%edx, %esi
	movl	%esi, 52(%esp)
	movl	%ecx, 56(%esp)
	movl	$0, 232(%esp)
	movl	$0, 236(%esp)
	movb	$-44, 240(%esp)
	movl	$0, 244(%esp)
	movl	$0, 248(%esp)
	movb	$-44, 252(%esp)
	movl	$0, 256(%esp)
	movl	$0, 260(%esp)
	movb	$-44, 264(%esp)
	movl	$0, 268(%esp)
	movl	$0, 272(%esp)
	movb	$-44, 276(%esp)
	movl	$0, 280(%esp)
	movl	$0, 284(%esp)
	movb	$-44, 288(%esp)
	movl	$0, 292(%esp)
	movl	$0, 296(%esp)
	movb	$-44, 300(%esp)
	movl	$1, (%esp)
	leal	176(%esp), %ebp
	movl	$_str6763, %edx
	movl	%ebp, %ecx
	calll	__ZN6common6string6String8from_str20h7f93e981d7e9751cHcbE
	movl	%esi, 212(%esp)
	movl	$0, 216(%esp)
	movl	184(%esp), %eax
	movl	%eax, 228(%esp)
	movsd	176(%esp), %xmm0
	movsd	%xmm0, 220(%esp)
	leal	212(%esp), %eax
	movl	%eax, 4(%esp)
	leal	196(%esp), %eax
	movl	%eax, (%esp)
	calll	__ZN6common6string28Split$LT$$u27$a$GT$.Iterator4next20h3da0c4d793d6577fIabE
	cmpl	$1, 196(%esp)
	jne	LBB28_8
	leal	200(%esp), %edi
	movb	$61, 68(%esp)
	movb	$61, %bh
	movb	$61, %bl
	xorl	%esi, %esi
	.align	16, 0x90
LBB28_2:
	testl	%esi, %esi
	je	LBB28_21
	cmpl	$1, %esi
	je	LBB28_123
	cmpl	$2, %esi
	jne	LBB28_5
	movl	%esi, 64(%esp)
	movl	$1, (%esp)
	movl	$_str6772, %edx
	leal	152(%esp), %ecx
	calll	__ZN6common6string6String8from_str20h7f93e981d7e9751cHcbE
	movl	%edi, 176(%esp)
	movl	$0, 180(%esp)
	movl	160(%esp), %eax
	leal	184(%esp), %ecx
	movl	%eax, 8(%ecx)
	movsd	152(%esp), %xmm0
	movsd	%xmm0, (%ecx)
	movl	%ebp, %esi
	movl	%esi, 4(%esp)
	leal	136(%esp), %eax
	movl	%eax, (%esp)
	calll	__ZN6common6string28Split$LT$$u27$a$GT$.Iterator4next20h3da0c4d793d6577fIabE
	xorl	%edi, %edi
	cmpl	$1, 136(%esp)
	leal	140(%esp), %ebp
	jne	LBB28_94
	.align	16, 0x90
LBB28_23:
	movl	$1, (%esp)
	movl	$_str6766, %edx
	leal	104(%esp), %ecx
	calll	__ZN6common6string6String8from_str20h7f93e981d7e9751cHcbE
	movl	%ebp, 116(%esp)
	movl	$0, 120(%esp)
	movl	112(%esp), %eax
	leal	124(%esp), %ecx
	movl	%eax, 8(%ecx)
	movsd	104(%esp), %xmm0
	movsd	%xmm0, (%ecx)
	leal	116(%esp), %eax
	movl	%eax, 4(%esp)
	leal	88(%esp), %eax
	movl	%eax, (%esp)
	calll	__ZN6common6string28Split$LT$$u27$a$GT$.Iterator4next20h3da0c4d793d6577fIabE
	cmpl	$1, 88(%esp)
	movl	$0, %ebp
	leal	92(%esp), %esi
	jne	LBB28_83
	jmp	LBB28_24
	.align	16, 0x90
LBB28_129:
	movzbl	100(%esp), %eax
	cmpl	$212, %eax
	jne	LBB28_82
	movl	92(%esp), %eax
	movl	$7344128, %ecx
	testl	%eax, %eax
	je	LBB28_133
	.align	16, 0x90
LBB28_131:
	cmpl	%eax, (%ecx)
	jne	LBB28_132
	movl	$0, (%ecx)
LBB28_132:
	addl	$4, %ecx
	cmpl	$11538432, %ecx
	jne	LBB28_131
LBB28_133:
	movl	$0, 92(%esp)
	movl	$0, 96(%esp)
	jmp	LBB28_82
	.align	16, 0x90
LBB28_24:
	cmpl	$1, %edi
	jne	LBB28_25
	testl	%ebp, %ebp
	jne	LBB28_58
	movl	8(%esi), %eax
	movl	%eax, 84(%esp)
	movsd	(%esi), %xmm0
	movsd	%xmm0, 76(%esp)
	movl	$488447261, 8(%esi)
	movl	$488447261, 4(%esi)
	movl	$488447261, (%esi)
	movzbl	276(%esp), %eax
	cmpl	$212, %eax
	jne	LBB28_78
	movl	268(%esp), %eax
	movl	$7344128, %ecx
	testl	%eax, %eax
	je	LBB28_77
	.align	16, 0x90
LBB28_75:
	cmpl	%eax, (%ecx)
	jne	LBB28_76
	movl	$0, (%ecx)
LBB28_76:
	addl	$4, %ecx
	cmpl	$11538432, %ecx
	jne	LBB28_75
LBB28_77:
	movl	$0, 268(%esp)
	movl	$0, 272(%esp)
LBB28_78:
	movl	84(%esp), %eax
	leal	268(%esp), %ecx
	jmp	LBB28_65
	.align	16, 0x90
LBB28_25:
	testl	%edi, %edi
	jne	LBB28_80
	testl	%ebp, %ebp
	jne	LBB28_27
	movl	8(%esi), %eax
	movl	%eax, 84(%esp)
	movsd	(%esi), %xmm0
	movsd	%xmm0, 76(%esp)
	movl	$488447261, 8(%esi)
	movl	$488447261, 4(%esi)
	movl	$488447261, (%esi)
	movzbl	252(%esp), %eax
	cmpl	$212, %eax
	jne	LBB28_71
	movl	244(%esp), %eax
	movl	$7344128, %ecx
	testl	%eax, %eax
	je	LBB28_70
	.align	16, 0x90
LBB28_68:
	cmpl	%eax, (%ecx)
	jne	LBB28_69
	movl	$0, (%ecx)
LBB28_69:
	addl	$4, %ecx
	cmpl	$11538432, %ecx
	jne	LBB28_68
LBB28_70:
	movl	$0, 244(%esp)
	movl	$0, 248(%esp)
LBB28_71:
	movl	84(%esp), %eax
	leal	244(%esp), %ecx
	jmp	LBB28_65
	.align	16, 0x90
LBB28_58:
	cmpl	$1, %ebp
	jne	LBB28_80
	movl	8(%esi), %eax
	movl	%eax, 84(%esp)
	movsd	(%esi), %xmm0
	movsd	%xmm0, 76(%esp)
	movl	$488447261, 8(%esi)
	movl	$488447261, 4(%esi)
	movl	$488447261, (%esi)
	movzbl	288(%esp), %eax
	cmpl	$212, %eax
	jne	LBB28_64
	movl	280(%esp), %eax
	movl	$7344128, %ecx
	testl	%eax, %eax
	je	LBB28_63
	.align	16, 0x90
LBB28_61:
	cmpl	%eax, (%ecx)
	jne	LBB28_62
	movl	$0, (%ecx)
LBB28_62:
	addl	$4, %ecx
	cmpl	$11538432, %ecx
	jne	LBB28_61
LBB28_63:
	movl	$0, 280(%esp)
	movl	$0, 284(%esp)
LBB28_64:
	movl	84(%esp), %eax
	leal	280(%esp), %ecx
	jmp	LBB28_65
LBB28_27:
	cmpl	$1, %ebp
	jne	LBB28_80
	movl	8(%esi), %eax
	movl	%eax, 84(%esp)
	movsd	(%esi), %xmm0
	movsd	%xmm0, 76(%esp)
	movl	$488447261, 8(%esi)
	movl	$488447261, 4(%esi)
	movl	$488447261, (%esi)
	movzbl	264(%esp), %eax
	cmpl	$212, %eax
	jne	LBB28_33
	movl	256(%esp), %eax
	movl	$7344128, %ecx
	testl	%eax, %eax
	je	LBB28_32
	.align	16, 0x90
LBB28_30:
	cmpl	%eax, (%ecx)
	jne	LBB28_31
	movl	$0, (%ecx)
LBB28_31:
	addl	$4, %ecx
	cmpl	$11538432, %ecx
	jne	LBB28_30
LBB28_32:
	movl	$0, 256(%esp)
	movl	$0, 260(%esp)
LBB28_33:
	movl	84(%esp), %eax
	leal	256(%esp), %ecx
	.align	16, 0x90
LBB28_65:
	movl	%eax, 8(%ecx)
	movsd	76(%esp), %xmm0
	movsd	%xmm0, (%ecx)
	incl	%ebp
	jmp	LBB28_81
	.align	16, 0x90
LBB28_80:
	incl	%ebp
	movzbl	%bl, %eax
	cmpl	$45, %eax
	jne	LBB28_129
LBB28_81:
	movb	$45, %bl
LBB28_82:
	movl	$488447261, 8(%esi)
	movl	$488447261, 4(%esi)
	movl	$488447261, (%esi)
	leal	116(%esp), %eax
	movl	%eax, 4(%esp)
	leal	88(%esp), %eax
	movl	%eax, (%esp)
	calll	__ZN6common6string28Split$LT$$u27$a$GT$.Iterator4next20h3da0c4d793d6577fIabE
	cmpl	$1, 88(%esp)
	je	LBB28_24
LBB28_83:
	movzbl	132(%esp), %eax
	cmpl	$212, %eax
	leal	176(%esp), %esi
	jne	LBB28_88
	movl	124(%esp), %eax
	movl	$7344128, %ecx
	testl	%eax, %eax
	je	LBB28_87
	.align	16, 0x90
LBB28_85:
	cmpl	%eax, (%ecx)
	jne	LBB28_86
	movl	$0, (%ecx)
LBB28_86:
	addl	$4, %ecx
	cmpl	$11538432, %ecx
	jne	LBB28_85
LBB28_87:
	movl	$0, 124(%esp)
	movl	$0, 128(%esp)
LBB28_88:
	movzbl	148(%esp), %eax
	cmpl	$212, %eax
	leal	140(%esp), %edx
	jne	LBB28_93
	movl	140(%esp), %eax
	movl	$7344128, %ecx
	testl	%eax, %eax
	je	LBB28_92
	.align	16, 0x90
LBB28_90:
	cmpl	%eax, (%ecx)
	jne	LBB28_91
	movl	$0, (%ecx)
LBB28_91:
	addl	$4, %ecx
	cmpl	$11538432, %ecx
	jne	LBB28_90
LBB28_92:
	movl	$0, 140(%esp)
	movl	$0, 144(%esp)
LBB28_93:
	incl	%edi
	movl	$488447261, 8(%edx)
	movl	$488447261, 4(%edx)
	movl	$488447261, (%edx)
	movl	%esi, 4(%esp)
	leal	136(%esp), %eax
	movl	%eax, (%esp)
	movl	%edx, %ebp
	calll	__ZN6common6string28Split$LT$$u27$a$GT$.Iterator4next20h3da0c4d793d6577fIabE
	cmpl	$1, 136(%esp)
	je	LBB28_23
LBB28_94:
	movl	%esi, %ebp
	movzbl	192(%esp), %eax
	cmpl	$212, %eax
	movl	64(%esp), %esi
	jne	LBB28_99
	movl	184(%esp), %eax
	movl	$7344128, %ecx
	testl	%eax, %eax
	je	LBB28_98
	.align	16, 0x90
LBB28_96:
	cmpl	%eax, (%ecx)
	jne	LBB28_97
	movl	$0, (%ecx)
LBB28_97:
	addl	$4, %ecx
	cmpl	$11538432, %ecx
	jne	LBB28_96
LBB28_98:
	movl	$0, 184(%esp)
	movl	$0, 188(%esp)
LBB28_99:
	cmpl	$1, %edi
	jne	LBB28_50
	leal	244(%esp), %eax
	movl	%eax, %ecx
	movl	8(%ecx), %eax
	movl	%eax, 184(%esp)
	movsd	(%ecx), %xmm0
	movsd	%xmm0, 176(%esp)
	movl	$488447261, 8(%ecx)
	movl	$488447261, 4(%ecx)
	movl	$488447261, (%ecx)
	movb	$29, %al
	movzbl	276(%esp), %ecx
	cmpl	$212, %ecx
	jne	LBB28_106
	movl	268(%esp), %ecx
	movl	$7344128, %edx
	movb	$29, %al
	testl	%ecx, %ecx
	je	LBB28_105
	.align	16, 0x90
LBB28_102:
	cmpl	%ecx, (%edx)
	jne	LBB28_103
	movl	$0, (%edx)
LBB28_103:
	addl	$4, %edx
	cmpl	$11538432, %edx
	jne	LBB28_102
	movb	252(%esp), %al
LBB28_105:
	movl	$0, 268(%esp)
	movl	$0, 272(%esp)
LBB28_106:
	movl	184(%esp), %ecx
	leal	268(%esp), %edx
	movl	%ecx, 8(%edx)
	movsd	176(%esp), %xmm0
	movsd	%xmm0, (%edx)
	movzbl	%al, %eax
	cmpl	$212, %eax
	jne	LBB28_111
	movl	244(%esp), %eax
	movl	$7344128, %ecx
	testl	%eax, %eax
	je	LBB28_110
	.align	16, 0x90
LBB28_108:
	cmpl	%eax, (%ecx)
	jne	LBB28_109
	movl	$0, (%ecx)
LBB28_109:
	addl	$4, %ecx
	cmpl	$11538432, %ecx
	jne	LBB28_108
LBB28_110:
	movl	$0, 244(%esp)
	movl	$0, 248(%esp)
LBB28_111:
	movl	$0, 244(%esp)
	movl	$0, 248(%esp)
	movb	$-44, 252(%esp)
	movb	178(%esp), %al
	leal	253(%esp), %ecx
	movb	%al, 2(%ecx)
	movw	176(%esp), %ax
	movw	%ax, (%ecx)
	leal	256(%esp), %eax
	movl	%eax, %ecx
	movl	8(%ecx), %eax
	movl	%eax, 184(%esp)
	movsd	(%ecx), %xmm0
	movsd	%xmm0, 176(%esp)
	movl	$488447261, 8(%ecx)
	movl	$488447261, 4(%ecx)
	movl	$488447261, (%ecx)
	movb	$29, %al
	movzbl	288(%esp), %ecx
	cmpl	$212, %ecx
	leal	200(%esp), %edi
	jne	LBB28_117
	movl	280(%esp), %ecx
	movl	$7344128, %edx
	movb	$29, %al
	testl	%ecx, %ecx
	je	LBB28_116
	.align	16, 0x90
LBB28_113:
	cmpl	%ecx, (%edx)
	jne	LBB28_114
	movl	$0, (%edx)
LBB28_114:
	addl	$4, %edx
	cmpl	$11538432, %edx
	jne	LBB28_113
	movb	264(%esp), %al
LBB28_116:
	movl	$0, 280(%esp)
	movl	$0, 284(%esp)
LBB28_117:
	movl	184(%esp), %ecx
	leal	280(%esp), %edx
	movl	%ecx, 8(%edx)
	movsd	176(%esp), %xmm0
	movsd	%xmm0, (%edx)
	movzbl	%al, %eax
	cmpl	$212, %eax
	jne	LBB28_122
	movl	256(%esp), %eax
	movl	$7344128, %ecx
	testl	%eax, %eax
	je	LBB28_121
	.align	16, 0x90
LBB28_119:
	cmpl	%eax, (%ecx)
	jne	LBB28_120
	movl	$0, (%ecx)
LBB28_120:
	addl	$4, %ecx
	cmpl	$11538432, %ecx
	jne	LBB28_119
LBB28_121:
	movl	$0, 256(%esp)
	movl	$0, 260(%esp)
LBB28_122:
	movl	$0, 256(%esp)
	movl	$0, 260(%esp)
	movb	$-44, 264(%esp)
	movb	178(%esp), %al
	leal	265(%esp), %ecx
	movb	%al, 2(%ecx)
	movw	176(%esp), %ax
	movw	%ax, (%ecx)
	jmp	LBB28_123
	.align	16, 0x90
LBB28_21:
	movl	$1, (%esp)
	movl	$_str6766, %edx
	leal	164(%esp), %ecx
	calll	__ZN6common6string6String8from_str20h7f93e981d7e9751cHcbE
	movl	%edi, 176(%esp)
	movl	$0, 180(%esp)
	movl	172(%esp), %eax
	leal	184(%esp), %ecx
	movl	%eax, 8(%ecx)
	movsd	164(%esp), %xmm0
	movsd	%xmm0, (%ecx)
	movl	%ebp, 4(%esp)
	leal	116(%esp), %eax
	movl	%eax, (%esp)
	calll	__ZN6common6string28Split$LT$$u27$a$GT$.Iterator4next20h3da0c4d793d6577fIabE
	xorl	%edi, %edi
	jmp	LBB28_44
	.align	16, 0x90
LBB28_43:
	leal	120(%esp), %eax
	movl	$488447261, 8(%eax)
	movl	$488447261, 4(%eax)
	movl	$488447261, (%eax)
	movl	%ebp, 4(%esp)
	leal	116(%esp), %eax
	movl	%eax, (%esp)
	calll	__ZN6common6string28Split$LT$$u27$a$GT$.Iterator4next20h3da0c4d793d6577fIabE
LBB28_44:
	cmpl	$1, 116(%esp)
	jne	LBB28_45
	testl	%edi, %edi
	je	LBB28_35
	incl	%edi
	movzbl	%bh, %eax
	cmpl	$45, %eax
	jne	LBB28_51
	movb	$45, %bh
	jmp	LBB28_43
	.align	16, 0x90
LBB28_35:
	leal	120(%esp), %eax
	movl	%eax, %ecx
	movl	8(%ecx), %eax
	movl	%eax, 144(%esp)
	movsd	(%ecx), %xmm0
	movsd	%xmm0, 136(%esp)
	movl	$488447261, 8(%ecx)
	movl	$488447261, 4(%ecx)
	movl	$488447261, (%ecx)
	movzbl	240(%esp), %eax
	cmpl	$212, %eax
	jne	LBB28_40
	movl	232(%esp), %eax
	movl	$7344128, %ecx
	testl	%eax, %eax
	je	LBB28_39
	.align	16, 0x90
LBB28_37:
	cmpl	%eax, (%ecx)
	jne	LBB28_38
	movl	$0, (%ecx)
LBB28_38:
	addl	$4, %ecx
	cmpl	$11538432, %ecx
	jne	LBB28_37
LBB28_39:
	movl	$0, 232(%esp)
	movl	$0, 236(%esp)
LBB28_40:
	movl	144(%esp), %eax
	movl	%eax, 240(%esp)
	movsd	136(%esp), %xmm0
	movsd	%xmm0, 232(%esp)
	movb	$45, %bh
	movl	$1, %edi
	jmp	LBB28_43
	.align	16, 0x90
LBB28_51:
	movzbl	128(%esp), %eax
	cmpl	$212, %eax
	jne	LBB28_43
	movl	120(%esp), %eax
	movl	$7344128, %ecx
	testl	%eax, %eax
	je	LBB28_55
	.align	16, 0x90
LBB28_53:
	cmpl	%eax, (%ecx)
	jne	LBB28_54
	movl	$0, (%ecx)
LBB28_54:
	addl	$4, %ecx
	cmpl	$11538432, %ecx
	jne	LBB28_53
LBB28_55:
	movl	$0, 120(%esp)
	movl	$0, 124(%esp)
	jmp	LBB28_43
	.align	16, 0x90
LBB28_45:
	movzbl	192(%esp), %eax
	cmpl	$212, %eax
	jne	LBB28_50
	movl	184(%esp), %eax
	movl	$7344128, %ecx
	testl	%eax, %eax
	je	LBB28_49
	.align	16, 0x90
LBB28_47:
	cmpl	%eax, (%ecx)
	jne	LBB28_48
	movl	$0, (%ecx)
LBB28_48:
	addl	$4, %ecx
	cmpl	$11538432, %ecx
	jne	LBB28_47
LBB28_49:
	movl	$0, 184(%esp)
	movl	$0, 188(%esp)
LBB28_50:
	leal	200(%esp), %edi
LBB28_123:
	movb	68(%esp), %cl
	incl	%esi
	movzbl	%cl, %eax
	cmpl	$45, %eax
	je	LBB28_6
	movb	%cl, 68(%esp)
	movzbl	208(%esp), %eax
	cmpl	$212, %eax
	jne	LBB28_7
	movl	200(%esp), %eax
	movl	$7344128, %ecx
	testl	%eax, %eax
	je	LBB28_128
	.align	16, 0x90
LBB28_126:
	cmpl	%eax, (%ecx)
	jne	LBB28_127
	movl	$0, (%ecx)
LBB28_127:
	addl	$4, %ecx
	cmpl	$11538432, %ecx
	jne	LBB28_126
LBB28_128:
	movl	$0, 200(%esp)
	movl	$0, 204(%esp)
	jmp	LBB28_7
LBB28_5:
	movl	200(%esp), %eax
	movl	%eax, 68(%esp)
	movl	204(%esp), %eax
	movl	%eax, 64(%esp)
	movb	208(%esp), %al
	movb	%al, 60(%esp)
	leal	209(%esp), %eax
	movl	%eax, %ecx
	movb	2(%ecx), %al
	movb	%al, 74(%esp)
	movw	(%ecx), %ax
	movw	%ax, 72(%esp)
	movl	$488447261, 8(%edi)
	movl	$488447261, 4(%edi)
	movl	$488447261, (%edi)
	movl	%edi, %ebp
	movl	296(%esp), %edi
	leal	1(%edi), %eax
	movl	%eax, 296(%esp)
	movl	292(%esp), %ecx
	leal	4(,%edi,4), %eax
	leal	(%eax,%eax,2), %edx
	calll	__ZN6common6memory7realloc20hc094b26789a71b31vXaE
	movl	%eax, 292(%esp)
	leal	(%edi,%edi,2), %ecx
	movl	%ebp, %edi
	movb	74(%esp), %dl
	movb	%dl, 306(%esp)
	movw	72(%esp), %dx
	movw	%dx, 304(%esp)
	movl	68(%esp), %edx
	movl	%edx, (%eax,%ecx,4)
	movl	64(%esp), %edx
	movl	%edx, 4(%eax,%ecx,4)
	leal	176(%esp), %ebp
	movb	60(%esp), %dl
	movb	%dl, 8(%eax,%ecx,4)
	movb	306(%esp), %dl
	movb	%dl, 11(%eax,%ecx,4)
	movw	304(%esp), %dx
	movw	%dx, 9(%eax,%ecx,4)
	incl	%esi
LBB28_6:
	movb	$45, 68(%esp)
LBB28_7:
	movl	$488447261, 8(%edi)
	movl	$488447261, 4(%edi)
	movl	$488447261, (%edi)
	leal	212(%esp), %eax
	movl	%eax, 4(%esp)
	leal	196(%esp), %eax
	movl	%eax, (%esp)
	calll	__ZN6common6string28Split$LT$$u27$a$GT$.Iterator4next20h3da0c4d793d6577fIabE
	cmpl	$1, 196(%esp)
	je	LBB28_2
LBB28_8:
	movzbl	228(%esp), %eax
	cmpl	$212, %eax
	movl	56(%esp), %ebx
	jne	LBB28_14
	movl	220(%esp), %eax
	testl	%eax, %eax
	je	LBB28_13
	movl	$7344128, %ecx
	.align	16, 0x90
LBB28_11:
	cmpl	%eax, (%ecx)
	jne	LBB28_12
	movl	$0, (%ecx)
LBB28_12:
	addl	$4, %ecx
	cmpl	$11538432, %ecx
	jne	LBB28_11
LBB28_13:
	movl	$0, 220(%esp)
	movl	$0, 224(%esp)
LBB28_14:
	leal	232(%esp), %edx
	movl	$18, %ecx
	movl	%ebx, %edi
	movl	%edx, %esi
	rep;movsl
	movl	$488447261, %eax
	movl	$18, %ecx
	movl	%edx, %edi
	rep;stosl
	movl	%edx, %ecx
	calll	__ZN16common..url..URL9drop.678617h7ef6f2223f856485E
	movl	52(%esp), %edx
	movzbl	8(%edx), %eax
	cmpl	$212, %eax
	jne	LBB28_20
	movl	(%edx), %eax
	testl	%eax, %eax
	je	LBB28_19
	movl	$7344128, %ecx
	.align	16, 0x90
LBB28_17:
	cmpl	%eax, (%ecx)
	jne	LBB28_18
	movl	$0, (%ecx)
LBB28_18:
	addl	$4, %ecx
	cmpl	$11538432, %ecx
	jne	LBB28_17
LBB28_19:
	movl	$0, (%edx)
	movl	$0, 4(%edx)
LBB28_20:
	movl	%ebx, %eax
	addl	$308, %esp
	popl	%esi
	popl	%edi
	popl	%ebx
	popl	%ebp
	retl
	.cfi_endproc

	.def	 __ZN16common..url..URL9drop.678617h7ef6f2223f856485E;
	.scl	3;
	.type	32;
	.endef
	.align	16, 0x90
__ZN16common..url..URL9drop.678617h7ef6f2223f856485E:
	pushl	%ebp
	pushl	%ebx
	pushl	%edi
	pushl	%esi
	movzbl	8(%ecx), %eax
	cmpl	$212, %eax
	jne	LBB29_6
	movl	(%ecx), %eax
	testl	%eax, %eax
	je	LBB29_5
	movl	$7344128, %edx
	.align	16, 0x90
LBB29_3:
	cmpl	%eax, (%edx)
	jne	LBB29_4
	movl	$0, (%edx)
LBB29_4:
	addl	$4, %edx
	cmpl	$11538432, %edx
	jne	LBB29_3
LBB29_5:
	movl	$0, (%ecx)
	movl	$0, 4(%ecx)
LBB29_6:
	movzbl	20(%ecx), %eax
	cmpl	$212, %eax
	jne	LBB29_12
	movl	12(%ecx), %eax
	testl	%eax, %eax
	je	LBB29_11
	movl	$7344128, %edx
	.align	16, 0x90
LBB29_9:
	cmpl	%eax, (%edx)
	jne	LBB29_10
	movl	$0, (%edx)
LBB29_10:
	addl	$4, %edx
	cmpl	$11538432, %edx
	jne	LBB29_9
LBB29_11:
	movl	$0, 12(%ecx)
	movl	$0, 16(%ecx)
LBB29_12:
	movzbl	32(%ecx), %eax
	cmpl	$212, %eax
	jne	LBB29_18
	movl	24(%ecx), %eax
	testl	%eax, %eax
	je	LBB29_17
	movl	$7344128, %edx
	.align	16, 0x90
LBB29_15:
	cmpl	%eax, (%edx)
	jne	LBB29_16
	movl	$0, (%edx)
LBB29_16:
	addl	$4, %edx
	cmpl	$11538432, %edx
	jne	LBB29_15
LBB29_17:
	movl	$0, 24(%ecx)
	movl	$0, 28(%ecx)
LBB29_18:
	movzbl	44(%ecx), %eax
	cmpl	$212, %eax
	jne	LBB29_24
	movl	36(%ecx), %eax
	testl	%eax, %eax
	je	LBB29_23
	movl	$7344128, %edx
	.align	16, 0x90
LBB29_21:
	cmpl	%eax, (%edx)
	jne	LBB29_22
	movl	$0, (%edx)
LBB29_22:
	addl	$4, %edx
	cmpl	$11538432, %edx
	jne	LBB29_21
LBB29_23:
	movl	$0, 36(%ecx)
	movl	$0, 40(%ecx)
LBB29_24:
	movzbl	56(%ecx), %eax
	cmpl	$212, %eax
	jne	LBB29_30
	movl	48(%ecx), %eax
	testl	%eax, %eax
	je	LBB29_29
	movl	$7344128, %edx
	.align	16, 0x90
LBB29_27:
	cmpl	%eax, (%edx)
	jne	LBB29_28
	movl	$0, (%edx)
LBB29_28:
	addl	$4, %edx
	cmpl	$11538432, %edx
	jne	LBB29_27
LBB29_29:
	movl	$0, 48(%ecx)
	movl	$0, 52(%ecx)
LBB29_30:
	movzbl	68(%ecx), %eax
	cmpl	$212, %eax
	jne	LBB29_38
	movl	64(%ecx), %edx
	testl	%edx, %edx
	je	LBB29_32
	movl	60(%ecx), %eax
	xorl	%esi, %esi
	.align	16, 0x90
LBB29_40:
	leal	(%esi,%esi,2), %ebp
	leal	1(%esi), %esi
	movl	(%eax,%ebp,4), %edi
	testl	%edi, %edi
	je	LBB29_42
	movl	$7344128, %ebx
	movzbl	8(%eax,%ebp,4), %ebp
	cmpl	$212, %ebp
	jne	LBB29_42
	.align	16, 0x90
LBB29_43:
	cmpl	%edi, (%ebx)
	jne	LBB29_44
	movl	$0, (%ebx)
LBB29_44:
	addl	$4, %ebx
	cmpl	$11538432, %ebx
	jne	LBB29_43
LBB29_42:
	cmpl	%edx, %esi
	jne	LBB29_40
	jmp	LBB29_33
LBB29_32:
	movl	60(%ecx), %eax
LBB29_33:
	testl	%eax, %eax
	je	LBB29_37
	movl	$7344128, %edx
	.align	16, 0x90
LBB29_35:
	cmpl	%eax, (%edx)
	jne	LBB29_36
	movl	$0, (%edx)
LBB29_36:
	addl	$4, %edx
	cmpl	$11538432, %edx
	jne	LBB29_35
LBB29_37:
	movl	$0, 60(%ecx)
	movl	$0, 64(%ecx)
LBB29_38:
	popl	%esi
	popl	%edi
	popl	%ebx
	popl	%ebp
	retl

	.def	 __ZN7drivers4disk4Disk4read20hbdd84e1c2e3e7f04j2bE;
	.scl	3;
	.type	32;
	.endef
	.align	16, 0x90
__ZN7drivers4disk4Disk4read20hbdd84e1c2e3e7f04j2bE:
	.cfi_startproc
	pushl	%ebp
Ltmp166:
	.cfi_def_cfa_offset 8
	pushl	%ebx
Ltmp167:
	.cfi_def_cfa_offset 12
	pushl	%edi
Ltmp168:
	.cfi_def_cfa_offset 16
	pushl	%esi
Ltmp169:
	.cfi_def_cfa_offset 20
	subl	$16, %esp
Ltmp170:
	.cfi_def_cfa_offset 36
Ltmp171:
	.cfi_offset %esi, -20
Ltmp172:
	.cfi_offset %edi, -16
Ltmp173:
	.cfi_offset %ebx, -12
Ltmp174:
	.cfi_offset %ebp, -8
	movl	%edx, %ebx
	cmpl	$0, 44(%esp)
	je	LBB30_12
	movzwl	40(%esp), %ebp
	movzwl	(%ecx), %esi
	movl	%esi, %edi
	addl	$7, %edi
	.align	16, 0x90
LBB30_2:
	movw	%di, %dx
	#APP

	inb	%dx, %al


	#NO_APP
	testb	%al, %al
	js	LBB30_2
	leal	6(%esi), %edx
	movb	$64, %al
	#APP

	outb	%al, %dx


	#NO_APP
	leal	2(%esi), %edx
	movl	%edx, 8(%esp)
	movl	%ebp, %eax
	movl	%eax, 12(%esp)
	movb	%ah, %al
	#APP

	outb	%al, %dx


	#NO_APP
	movl	%ebx, %eax
	shrl	$24, %eax
	leal	3(%esi), %edx
	movl	%edx, 4(%esp)
	#APP

	outb	%al, %dx


	#NO_APP
	leal	4(%esi), %ebp
	movl	36(%esp), %eax
	movw	%bp, %dx
	#APP

	outb	%al, %dx


	#NO_APP
	leal	5(%esi), %edx
	movl	%edx, (%esp)
	movb	%ah, %al
	#APP

	outb	%al, %dx


	#NO_APP
	movl	12(%esp), %eax
	movl	8(%esp), %edx
	#APP

	outb	%al, %dx


	#NO_APP
	movb	%bl, %al
	movl	4(%esp), %edx
	#APP

	outb	%al, %dx


	#NO_APP
	movb	%bh, %al
	movw	%bp, %dx
	#APP

	outb	%al, %dx


	#NO_APP
	shrl	$16, %ebx
	movb	%bl, %al
	movl	(%esp), %edx
	#APP

	outb	%al, %dx


	#NO_APP
	movb	$36, %al
	movw	%di, %dx
	#APP

	outb	%al, %dx


	#NO_APP
	movl	12(%esp), %eax
	testw	%ax, %ax
	je	LBB30_12
	movzwl	%ax, %eax
	movl	%eax, 12(%esp)
	movl	44(%esp), %eax
	leal	2(%eax), %ebx
	xorl	%ebp, %ebp
	jmp	LBB30_7
	.align	16, 0x90
LBB30_6:
	movzwl	(%ecx), %esi
	addl	$512, %ebx
	movl	%edi, %ebp
LBB30_7:
	leal	7(%esi), %edx
	.align	16, 0x90
LBB30_8:
	#APP

	inb	%dx, %al


	#NO_APP
	testb	%al, %al
	js	LBB30_8
	#APP

	inb	%dx, %al


	#NO_APP
	andb	$41, %al
	movzbl	%al, %eax
	cmpl	$8, %eax
	jne	LBB30_12
	leal	1(%ebp), %edi
	shll	$9, %ebp
	movw	%si, %dx
	#APP

	inw	%dx, %ax


	#NO_APP
	movl	44(%esp), %edx
	movw	%ax, (%ebp,%edx)
	movl	$255, %esi
	movl	%ebx, %ebp
	.align	16, 0x90
LBB30_11:
	movw	(%ecx), %dx
	#APP

	inw	%dx, %ax


	#NO_APP
	movw	%ax, (%ebp)
	addl	$2, %ebp
	decl	%esi
	jne	LBB30_11
	cmpl	12(%esp), %edi
	jb	LBB30_6
LBB30_12:
	addl	$16, %esp
	popl	%esi
	popl	%edi
	popl	%ebx
	popl	%ebp
	retl
	.cfi_endproc

	.def	 __ZN7drivers8keyboard29KeyEvent...core..clone..Clone5clone20hb4e07b10ed7dda78sacE;
	.scl	2;
	.type	32;
	.endef
	.globl	__ZN7drivers8keyboard29KeyEvent...core..clone..Clone5clone20hb4e07b10ed7dda78sacE
	.align	16, 0x90
__ZN7drivers8keyboard29KeyEvent...core..clone..Clone5clone20hb4e07b10ed7dda78sacE:
	.cfi_startproc
	movl	4(%esp), %eax
	movl	8(%esp), %ecx
	movl	(%ecx), %edx
	movl	%edx, (%eax)
	movb	4(%ecx), %dl
	movb	%dl, 4(%eax)
	movb	5(%ecx), %cl
	movb	%cl, 5(%eax)
	retl
	.cfi_endproc

	.def	 __ZN7drivers5mouse31MouseEvent...core..clone..Clone5clone20h379d20d40abba98eGicE;
	.scl	2;
	.type	32;
	.endef
	.globl	__ZN7drivers5mouse31MouseEvent...core..clone..Clone5clone20h379d20d40abba98eGicE
	.align	16, 0x90
__ZN7drivers5mouse31MouseEvent...core..clone..Clone5clone20h379d20d40abba98eGicE:
	.cfi_startproc
	movl	4(%esp), %eax
	movl	8(%esp), %ecx
	movl	(%ecx), %edx
	movl	%edx, (%eax)
	movl	4(%ecx), %edx
	movl	%edx, 4(%eax)
	movb	8(%ecx), %dl
	movb	%dl, 8(%eax)
	movb	9(%ecx), %dl
	movb	%dl, 9(%eax)
	movb	10(%ecx), %dl
	movb	%dl, 10(%eax)
	movb	11(%ecx), %cl
	movb	%cl, 11(%eax)
	retl
	.cfi_endproc

	.def	 __ZN2i89drop.687717hd2638cd5fb2bef16E;
	.scl	3;
	.type	32;
	.endef
	.align	16, 0x90
__ZN2i89drop.687717hd2638cd5fb2bef16E:
	retl

	.def	 __ZN3usb4xhci18XHCI.SessionDevice6on_irq20h9be1b698a35521bfQkgE;
	.scl	2;
	.type	32;
	.endef
	.globl	__ZN3usb4xhci18XHCI.SessionDevice6on_irq20h9be1b698a35521bfQkgE
	.align	16, 0x90
__ZN3usb4xhci18XHCI.SessionDevice6on_irq20h9be1b698a35521bfQkgE:
	.cfi_startproc
	pushl	%ebp
Ltmp175:
	.cfi_def_cfa_offset 8
	pushl	%ebx
Ltmp176:
	.cfi_def_cfa_offset 12
	pushl	%edi
Ltmp177:
	.cfi_def_cfa_offset 16
	pushl	%esi
Ltmp178:
	.cfi_def_cfa_offset 20
Ltmp179:
	.cfi_offset %esi, -20
Ltmp180:
	.cfi_offset %edi, -16
Ltmp181:
	.cfi_offset %ebx, -12
Ltmp182:
	.cfi_offset %ebp, -8
	movl	20(%esp), %eax
	movzbl	17(%eax), %eax
	movzbl	28(%esp), %ecx
	cmpl	%ecx, %eax
	jne	LBB34_18
	movl	$_str7448, %esi
	movl	$_str7448+12, %ebp
	.align	16, 0x90
LBB34_2:
	leal	1(%esi), %ecx
	movzbl	(%esi), %eax
	testb	%al, %al
	js	LBB34_4
	movl	%ecx, %esi
	jmp	LBB34_17
	.align	16, 0x90
LBB34_4:
	movl	$_str7448+12, %ebx
	cmpl	%ebx, %ecx
	je	LBB34_5
	movzbl	1(%esi), %edx
	addl	$2, %esi
	andl	$63, %edx
	movl	%esi, %ebx
	jmp	LBB34_7
LBB34_5:
	xorl	%edx, %edx
	movl	%ecx, %esi
LBB34_7:
	movl	%eax, %edi
	andl	$31, %edi
	cmpl	$224, %eax
	jb	LBB34_8
	xorl	%ecx, %ecx
	movl	$_str7448+12, %ebp
	cmpl	%ebp, %ebx
	je	LBB34_11
	movzbl	(%ebx), %ecx
	incl	%ebx
	andl	$63, %ecx
	movl	%ebx, %esi
	movl	%ebx, %ebp
LBB34_11:
	shll	$6, %edx
	orl	%ecx, %edx
	cmpl	$240, %eax
	jb	LBB34_12
	xorl	%eax, %eax
	movl	$_str7448+12, %ecx
	cmpl	%ecx, %ebp
	je	LBB34_15
	movzbl	(%ebp), %eax
	incl	%ebp
	andl	$63, %eax
	movl	%ebp, %esi
LBB34_15:
	shll	$6, %edx
	orl	%eax, %edx
	jmp	LBB34_16
LBB34_8:
	shll	$6, %edi
	orl	%edi, %edx
	movl	%edx, %eax
	jmp	LBB34_17
LBB34_12:
	shll	$12, %edi
	orl	%edi, %edx
LBB34_16:
	movl	%edx, %eax
	movl	$_str7448+12, %ebp
	.align	16, 0x90
LBB34_17:
	movw	$1016, %dx
	#APP

	outb	%al, %dx


	#NO_APP
	cmpl	%ebp, %esi
	jne	LBB34_2
LBB34_18:
	popl	%esi
	popl	%edi
	popl	%ebx
	popl	%ebp
	retl
	.cfi_endproc

	.def	 __ZN7network7rtl813921RTL8139.SessionDevice6on_irq20h35dfc6024c7e6009CHeE;
	.scl	2;
	.type	32;
	.endef
	.globl	__ZN7network7rtl813921RTL8139.SessionDevice6on_irq20h35dfc6024c7e6009CHeE
	.align	16, 0x90
__ZN7network7rtl813921RTL8139.SessionDevice6on_irq20h35dfc6024c7e6009CHeE:
	.cfi_startproc
	pushl	%ebp
Ltmp183:
	.cfi_def_cfa_offset 8
	pushl	%ebx
Ltmp184:
	.cfi_def_cfa_offset 12
	pushl	%edi
Ltmp185:
	.cfi_def_cfa_offset 16
	pushl	%esi
Ltmp186:
	.cfi_def_cfa_offset 20
	subl	$92, %esp
Ltmp187:
	.cfi_def_cfa_offset 112
Ltmp188:
	.cfi_offset %esi, -20
Ltmp189:
	.cfi_offset %edi, -16
Ltmp190:
	.cfi_offset %ebx, -12
Ltmp191:
	.cfi_offset %ebp, -8
	movl	112(%esp), %edx
	movzbl	17(%edx), %eax
	movzbl	120(%esp), %ecx
	cmpl	%ecx, %eax
	jne	LBB35_3
	movzwl	12(%edx), %esi
	movl	%esi, 16(%esp)
	leal	48(%esi), %edx
	#APP

	inl	%dx, %eax


	#NO_APP
	movl	%eax, %ebx
	movl	%ebx, 32(%esp)
	leal	56(%esi), %edx
	movl	%edx, 28(%esp)
	#APP

	inw	%dx, %ax


	#NO_APP
	movw	%ax, %cx
	addl	$16, %ecx
	movl	%esi, %edx
	addl	$58, %edx
	#APP

	inw	%dx, %ax


	#NO_APP
	movzwl	%ax, %eax
	movl	%eax, 24(%esp)
	movzwl	%cx, %edi
	cmpl	%eax, %edi
	je	LBB35_2
	.align	16, 0x90
LBB35_4:
	movzwl	2(%edi,%ebx), %eax
	movl	%eax, 40(%esp)
	movl	%eax, %esi
	addl	$-4, %esi
	movl	$0, %ebp
	je	LBB35_19
	leal	4(%edi,%ebx), %eax
	movl	%eax, 36(%esp)
	movl	%edi, 44(%esp)
	xorl	%eax, %eax
	xorl	%edi, %edi
	xorl	%ecx, %ecx
LBB35_6:
	movl	%esi, %ebx
	leal	7344128(,%eax,4), %ebp
	.align	16, 0x90
LBB35_7:
	movl	%edi, %edx
	movl	%eax, %esi
	cmpl	$1048575, %esi
	ja	LBB35_8
	leal	1(%esi), %eax
	xorl	%edi, %edi
	cmpl	$0, (%ebp)
	leal	4(%ebp), %ebp
	jne	LBB35_7
	testl	%edx, %edx
	cmovel	%esi, %ecx
	incl	%edx
	movl	%edx, %esi
	shll	$12, %esi
	cmpl	%ebx, %esi
	movl	%ebx, %esi
	movl	%edx, %edi
	jbe	LBB35_6
	jmp	LBB35_11
	.align	16, 0x90
LBB35_8:
	movl	%ebx, %esi
LBB35_11:
	movl	%edx, %eax
	shll	$12, %eax
	xorl	%ebp, %ebp
	cmpl	%esi, %eax
	jbe	LBB35_17
	movl	%ecx, %ebp
	shll	$12, %ebp
	addl	$11538432, %ebp
	leal	(%ecx,%edx), %eax
	cmpl	%eax, %ecx
	jae	LBB35_17
	movl	%esi, %eax
	leal	7344128(,%ecx,4), %esi
	.align	16, 0x90
LBB35_14:
	cmpl	$1048576, %ecx
	jae	LBB35_15
	movl	%ebp, (%esi)
LBB35_15:
	incl	%ecx
	addl	$4, %esi
	decl	%edx
	jne	LBB35_14
	movl	%eax, %esi
LBB35_17:
	movl	%esi, 8(%esp)
	movl	36(%esp), %eax
	movl	%eax, 4(%esp)
	movl	%ebp, (%esp)
	calll	_memmove
	cmpl	$14, %esi
	movl	44(%esp), %edi
	jb	LBB35_18
	movw	12(%ebp), %ax
	leal	64(%esp), %ecx
	movw	%ax, 12(%ecx)
	movl	8(%ebp), %eax
	movl	%eax, 8(%ecx)
	movsd	(%ebp), %xmm0
	movsd	%xmm0, (%ecx)
	xorl	%ebx, %ebx
	cmpl	$14, %esi
	jne	LBB35_22
	xorl	%ecx, %ecx
	jmp	LBB35_46
	.align	16, 0x90
LBB35_18:
	movl	32(%esp), %ebx
LBB35_19:
	movaps	_const7029+16, %xmm0
	movups	%xmm0, 76(%esp)
	movapd	_const7029, %xmm0
	movupd	%xmm0, 60(%esp)
	xorl	%ecx, %ecx
	jmp	LBB35_47
LBB35_22:
	movl	%esi, 20(%esp)
	movl	40(%esp), %eax
	leal	-18(%eax), %eax
	movl	%eax, 36(%esp)
	xorl	%esi, %esi
	xorl	%edx, %edx
LBB35_23:
	leal	7344128(,%ebx,4), %edi
	.align	16, 0x90
LBB35_24:
	movl	%esi, %eax
	movl	%ebx, %ecx
	cmpl	$1048575, %ecx
	ja	LBB35_27
	leal	1(%ecx), %ebx
	xorl	%esi, %esi
	cmpl	$0, (%edi)
	leal	4(%edi), %edi
	jne	LBB35_24
	testl	%eax, %eax
	cmovel	%ecx, %edx
	incl	%eax
	movl	%eax, %ecx
	shll	$12, %ecx
	cmpl	36(%esp), %ecx
	movl	%eax, %esi
	jbe	LBB35_23
LBB35_27:
	movl	%eax, %ecx
	shll	$12, %ecx
	xorl	%ebx, %ebx
	movl	36(%esp), %esi
	cmpl	%esi, %ecx
	movl	%esi, %ecx
	movl	20(%esp), %esi
	jbe	LBB35_34
	movl	%ecx, %edi
	movl	%edx, %ebx
	shll	$12, %ebx
	addl	$11538432, %ebx
	leal	(%edx,%eax), %ecx
	cmpl	%ecx, %edx
	jae	LBB35_33
	movl	%esi, %ecx
	leal	7344128(,%edx,4), %esi
	.align	16, 0x90
LBB35_30:
	cmpl	$1048576, %edx
	jae	LBB35_31
	movl	%ebx, (%esi)
LBB35_31:
	incl	%edx
	addl	$4, %esi
	decl	%eax
	jne	LBB35_30
	movl	%ecx, %esi
LBB35_33:
	movl	%edi, %ecx
LBB35_34:
	cmpl	$15, %esi
	movl	44(%esp), %edi
	jb	LBB35_46
	movl	%ecx, 36(%esp)
	movl	$14, %edx
	movl	40(%esp), %ecx
	cmpl	$18, %ecx
	je	LBB35_43
	leal	-18(%ecx), %eax
	andl	$-32, %eax
	leal	14(%eax), %esi
	movl	$14, %edx
	cmpl	$14, %esi
	je	LBB35_42
	leal	-5(%ebp,%ecx), %ecx
	cmpl	%ecx, %ebx
	ja	LBB35_39
	movl	40(%esp), %ecx
	leal	-19(%ebx,%ecx), %ecx
	leal	14(%ebp), %edi
	cmpl	%ecx, %edi
	movl	44(%esp), %edi
	jbe	LBB35_42
LBB35_39:
	movl	%edi, %ecx
	leal	16(%ebx), %edx
	leal	30(%ebp), %edi
	.align	16, 0x90
LBB35_40:
	movupd	-16(%edi), %xmm0
	movups	(%edi), %xmm1
	movupd	%xmm0, -16(%edx)
	movups	%xmm1, (%edx)
	addl	$32, %edx
	addl	$32, %edi
	addl	$-32, %eax
	jne	LBB35_40
	movl	%esi, %edx
	movl	%ecx, %edi
LBB35_42:
	movl	20(%esp), %esi
	cmpl	%edx, %esi
	movl	40(%esp), %ecx
	je	LBB35_45
LBB35_43:
	movl	%ecx, 40(%esp)
	.align	16, 0x90
LBB35_44:
	movb	(%ebp,%edx), %al
	movb	%al, -14(%ebx,%edx)
	leal	1(%edx), %edx
	cmpl	%edx, %esi
	jne	LBB35_44
LBB35_45:
	movl	36(%esp), %ecx
LBB35_46:
	movl	%ebx, 80(%esp)
	movl	%ecx, 84(%esp)
	movb	$-44, 88(%esp)
	movl	$1, 60(%esp)
	movl	$1, %ecx
	movl	32(%esp), %ebx
LBB35_47:
	movl	$7344128, %eax
	testl	%ebp, %ebp
	je	LBB35_51
	.align	16, 0x90
LBB35_48:
	cmpl	%ebp, (%eax)
	jne	LBB35_49
	movl	$0, (%eax)
LBB35_49:
	addl	$4, %eax
	cmpl	$11538432, %eax
	jne	LBB35_48
	movl	60(%esp), %ecx
LBB35_51:
	cmpl	$1, %ecx
	jne	LBB35_73
	movl	%edi, 44(%esp)
	movl	116(%esp), %eax
	movl	%eax, 8(%esp)
	leal	64(%esp), %eax
	movl	%eax, 4(%esp)
	leal	48(%esp), %eax
	movl	%eax, (%esp)
	calll	__ZN7network8ethernet19EthernetII.Response7respond20h845ea6230c4f36080beE
	movl	48(%esp), %ecx
	movl	52(%esp), %edx
	movl	%edx, 36(%esp)
	movl	%edx, %eax
	orl	%ecx, %eax
	movl	%ecx, %ebp
	movl	$_ref_mut_slice7046, %eax
	cmovel	%eax, %ebp
	movl	%edx, %eax
	movl	$0, %edx
	cmovel	%edx, %eax
	testl	%eax, %eax
	je	LBB35_58
	leal	(%eax,%eax,2), %eax
	leal	(%ebp,%eax,4), %esi
	.align	16, 0x90
LBB35_54:
	testl	%ebp, %ebp
	je	LBB35_58
	movl	(%ebp), %eax
	movl	112(%esp), %edx
	movzwl	12(%edx), %edi
	movzwl	__ZN7network7rtl813910RTL8139_TX20h7dc94791dfe8bd0eyHeE, %edx
	leal	32(%edi,%edx,4), %edx
	#APP

	outl	%eax, %dx


	#NO_APP
	movzwl	__ZN7network7rtl813910RTL8139_TX20h7dc94791dfe8bd0eyHeE, %eax
	leal	16(%edi,%eax,4), %edx
	addl	$16, %edi
	movl	4(%ebp), %eax
	movl	$8191, %ebx
	andl	%ebx, %eax
	leal	12(%ebp), %ebp
	#APP

	outl	%eax, %dx


	#NO_APP
	.align	16, 0x90
LBB35_56:
	movzwl	__ZN7network7rtl813910RTL8139_TX20h7dc94791dfe8bd0eyHeE, %eax
	leal	(%edi,%eax,4), %edx
	#APP

	inl	%dx, %eax


	#NO_APP
	testb	$32, %ah
	je	LBB35_56
	movzwl	__ZN7network7rtl813910RTL8139_TX20h7dc94791dfe8bd0eyHeE, %eax
	incl	%eax
	andl	$3, %eax
	movw	%ax, __ZN7network7rtl813910RTL8139_TX20h7dc94791dfe8bd0eyHeE
	cmpl	%esi, %ebp
	jne	LBB35_54
LBB35_58:
	movzbl	56(%esp), %eax
	cmpl	$212, %eax
	jne	LBB35_67
	xorl	%eax, %eax
	movl	36(%esp), %ebx
	testl	%ebx, %ebx
	je	LBB35_63
	.align	16, 0x90
LBB35_60:
	leal	(%eax,%eax,2), %edi
	leal	1(%eax), %eax
	movl	(%ecx,%edi,4), %edx
	testl	%edx, %edx
	je	LBB35_62
	movl	$7344128, %esi
	movzbl	8(%ecx,%edi,4), %edi
	cmpl	$212, %edi
	jne	LBB35_62
	.align	16, 0x90
LBB35_75:
	cmpl	%edx, (%esi)
	jne	LBB35_76
	movl	$0, (%esi)
LBB35_76:
	addl	$4, %esi
	cmpl	$11538432, %esi
	jne	LBB35_75
LBB35_62:
	cmpl	%ebx, %eax
	jne	LBB35_60
LBB35_63:
	movl	$7344128, %eax
	testl	%ecx, %ecx
	je	LBB35_66
	.align	16, 0x90
LBB35_64:
	cmpl	%ecx, (%eax)
	jne	LBB35_65
	movl	$0, (%eax)
LBB35_65:
	addl	$4, %eax
	cmpl	$11538432, %eax
	jne	LBB35_64
LBB35_66:
	movl	$0, 48(%esp)
	movl	$0, 52(%esp)
LBB35_67:
	movzbl	88(%esp), %eax
	cmpl	$212, %eax
	movl	32(%esp), %ebx
	movl	44(%esp), %edi
	jne	LBB35_72
	movl	80(%esp), %eax
	movl	$7344128, %ecx
	testl	%eax, %eax
	je	LBB35_71
	.align	16, 0x90
LBB35_69:
	cmpl	%eax, (%ecx)
	jne	LBB35_70
	movl	$0, (%ecx)
LBB35_70:
	addl	$4, %ecx
	cmpl	$11538432, %ecx
	jne	LBB35_69
LBB35_71:
	movl	$0, 80(%esp)
	movl	$0, 84(%esp)
LBB35_72:
	leal	64(%esp), %eax
	movl	$488447261, 24(%eax)
	movl	$488447261, 20(%eax)
	movl	$488447261, 16(%eax)
	movl	$488447261, 12(%eax)
	movl	$488447261, 8(%eax)
	movl	$488447261, 4(%eax)
	movl	$488447261, (%eax)
LBB35_73:
	movl	40(%esp), %eax
	leal	7(%edi,%eax), %ecx
	andl	$-4, %ecx
	leal	-8192(%ecx), %eax
	cmpl	$8191, %ecx
	movl	%ecx, %edi
	cmoval	%eax, %edi
	cmovbew	%cx, %ax
	addl	$-16, %eax
	movl	28(%esp), %edx
	#APP

	outw	%ax, %dx


	#NO_APP
	cmpl	24(%esp), %edi
	jne	LBB35_4
LBB35_2:
	movl	16(%esp), %eax
	leal	62(%eax), %edx
	movw	$1, %ax
	#APP

	outw	%ax, %dx


	#NO_APP
LBB35_3:
	addl	$92, %esp
	popl	%esi
	popl	%edi
	popl	%ebx
	popl	%ebp
	retl
	.cfi_endproc

	.def	 __ZN7network10intel8254x24Intel8254x.SessionDevice6on_irq20hd195f425dabd12efIoeE;
	.scl	2;
	.type	32;
	.endef
	.globl	__ZN7network10intel8254x24Intel8254x.SessionDevice6on_irq20hd195f425dabd12efIoeE
	.align	16, 0x90
__ZN7network10intel8254x24Intel8254x.SessionDevice6on_irq20hd195f425dabd12efIoeE:
	.cfi_startproc
	pushl	%ebp
Ltmp192:
	.cfi_def_cfa_offset 8
	pushl	%ebx
Ltmp193:
	.cfi_def_cfa_offset 12
	pushl	%edi
Ltmp194:
	.cfi_def_cfa_offset 16
	pushl	%esi
Ltmp195:
	.cfi_def_cfa_offset 20
Ltmp196:
	.cfi_offset %esi, -20
Ltmp197:
	.cfi_offset %edi, -16
Ltmp198:
	.cfi_offset %ebx, -12
Ltmp199:
	.cfi_offset %ebp, -8
	movl	20(%esp), %eax
	movzbl	17(%eax), %eax
	movzbl	28(%esp), %ecx
	cmpl	%ecx, %eax
	jne	LBB36_18
	movl	$_str7074, %esi
	movl	$_str7074+19, %ebp
	.align	16, 0x90
LBB36_2:
	leal	1(%esi), %ecx
	movzbl	(%esi), %eax
	testb	%al, %al
	js	LBB36_4
	movl	%ecx, %esi
	jmp	LBB36_17
	.align	16, 0x90
LBB36_4:
	movl	$_str7074+19, %ebx
	cmpl	%ebx, %ecx
	je	LBB36_5
	movzbl	1(%esi), %edx
	addl	$2, %esi
	andl	$63, %edx
	movl	%esi, %ebx
	jmp	LBB36_7
LBB36_5:
	xorl	%edx, %edx
	movl	%ecx, %esi
LBB36_7:
	movl	%eax, %edi
	andl	$31, %edi
	cmpl	$224, %eax
	jb	LBB36_8
	xorl	%ecx, %ecx
	movl	$_str7074+19, %ebp
	cmpl	%ebp, %ebx
	je	LBB36_11
	movzbl	(%ebx), %ecx
	incl	%ebx
	andl	$63, %ecx
	movl	%ebx, %esi
	movl	%ebx, %ebp
LBB36_11:
	shll	$6, %edx
	orl	%ecx, %edx
	cmpl	$240, %eax
	jb	LBB36_12
	xorl	%eax, %eax
	movl	$_str7074+19, %ecx
	cmpl	%ecx, %ebp
	je	LBB36_15
	movzbl	(%ebp), %eax
	incl	%ebp
	andl	$63, %eax
	movl	%ebp, %esi
LBB36_15:
	shll	$6, %edx
	orl	%eax, %edx
	jmp	LBB36_16
LBB36_8:
	shll	$6, %edi
	orl	%edi, %edx
	movl	%edx, %eax
	jmp	LBB36_17
LBB36_12:
	shll	$12, %edi
	orl	%edi, %edx
LBB36_16:
	movl	%edx, %eax
	movl	$_str7074+19, %ebp
	.align	16, 0x90
LBB36_17:
	movw	$1016, %dx
	#APP

	outb	%al, %dx


	#NO_APP
	cmpl	%ebp, %esi
	jne	LBB36_2
LBB36_18:
	popl	%esi
	popl	%edi
	popl	%ebx
	popl	%ebp
	retl
	.cfi_endproc

	.def	 __ZN7drivers3pci8pci_init20he405581be07ac067zucE;
	.scl	3;
	.type	32;
	.endef
	.align	16, 0x90
__ZN7drivers3pci8pci_init20he405581be07ac067zucE:
	.cfi_startproc
	pushl	%ebp
Ltmp200:
	.cfi_def_cfa_offset 8
	pushl	%ebx
Ltmp201:
	.cfi_def_cfa_offset 12
	pushl	%edi
Ltmp202:
	.cfi_def_cfa_offset 16
	pushl	%esi
Ltmp203:
	.cfi_def_cfa_offset 20
	subl	$72, %esp
Ltmp204:
	.cfi_def_cfa_offset 92
Ltmp205:
	.cfi_offset %esi, -20
Ltmp206:
	.cfi_offset %edi, -16
Ltmp207:
	.cfi_offset %ebx, -12
Ltmp208:
	.cfi_offset %ebp, -8
	movl	%ecx, 20(%esp)
	movl	$_str6654+2, %ebp
	xorl	%eax, %eax
	.align	16, 0x90
LBB37_2:
	movl	%eax, 36(%esp)
	shll	$16, %eax
	movl	%eax, 4(%esp)
	xorl	%eax, %eax
	.align	16, 0x90
LBB37_4:
	movl	%eax, 40(%esp)
	movl	%eax, %ecx
	shll	$11, %ecx
	orl	4(%esp), %ecx
	movl	%ecx, 32(%esp)
	movl	%ecx, %eax
	orl	$-2147483588, %eax
	movl	%eax, 24(%esp)
	movl	%ecx, %eax
	orl	$-2147483632, %eax
	movl	%eax, 16(%esp)
	xorl	%eax, %eax
	jmp	LBB37_5
	.align	16, 0x90
LBB37_148:
	cmpl	$12, %eax
	jne	LBB37_796
	cmpl	$3, %ecx
	jne	LBB37_796
	movzbl	%dh, %eax
	movl	$_str6889, %ecx
	cmpl	$31, %eax
	jg	LBB37_156
	testl	%eax, %eax
	jne	LBB37_152
	orl	$-2147483616, %esi
	movw	$3320, %dx
	movl	%esi, %eax
	#APP

	outl	%eax, %dx


	#NO_APP
	movw	$3324, %dx
	#APP

	inl	%dx, %eax


	#NO_APP
	movl	%eax, 68(%esp)
	movl	$_str6887, %esi
	.align	16, 0x90
LBB37_763:
	leal	1(%esi), %ecx
	movzbl	(%esi), %eax
	testb	%al, %al
	js	LBB37_765
	movl	%ecx, %esi
	jmp	LBB37_778
	.align	16, 0x90
LBB37_765:
	movl	$_str6887+19, %edi
	cmpl	%edi, %ecx
	je	LBB37_766
	movzbl	1(%esi), %edx
	addl	$2, %esi
	andl	$63, %edx
	movl	%esi, %edi
	jmp	LBB37_768
LBB37_766:
	xorl	%edx, %edx
	movl	%ecx, %esi
LBB37_768:
	movl	%eax, %ebx
	andl	$31, %ebx
	cmpl	$224, %eax
	jb	LBB37_769
	xorl	%ecx, %ecx
	movl	$_str6887+19, %ebp
	cmpl	%ebp, %edi
	je	LBB37_772
	movzbl	(%edi), %ecx
	incl	%edi
	andl	$63, %ecx
	movl	%edi, %esi
	movl	%edi, %ebp
LBB37_772:
	shll	$6, %edx
	orl	%ecx, %edx
	cmpl	$240, %eax
	jb	LBB37_773
	xorl	%eax, %eax
	movl	$_str6887+19, %ecx
	cmpl	%ecx, %ebp
	je	LBB37_776
	movzbl	(%ebp), %eax
	incl	%ebp
	andl	$63, %eax
	movl	%ebp, %esi
LBB37_776:
	shll	$6, %edx
	orl	%eax, %edx
	jmp	LBB37_777
LBB37_769:
	shll	$6, %ebx
	orl	%ebx, %edx
	movl	%edx, %eax
	jmp	LBB37_778
LBB37_773:
	shll	$12, %ebx
	orl	%ebx, %edx
LBB37_777:
	movl	%edx, %eax
	movl	$_str6654+2, %ebp
	.align	16, 0x90
LBB37_778:
	movw	$1016, %dx
	#APP

	outb	%al, %dx


	#NO_APP
	movl	$_str6887+19, %eax
	cmpl	%eax, %esi
	jne	LBB37_763
	movl	68(%esp), %ecx
	andl	$-16, %ecx
	calll	__ZN6common5debug2dh20h857ba5a54e7b7d79roaE
	movb	$10, %al
	movw	$1016, %dx
	#APP

	outb	%al, %dx


	#NO_APP
	jmp	LBB37_996
LBB37_796:
	movl	56(%esp), %eax
	shrl	$16, %eax
	movl	44(%esp), %ecx
	cmpl	$32902, %ecx
	jne	LBB37_797
	cmpl	$4110, %eax
	jne	LBB37_996
	movw	$3320, %dx
	movl	16(%esp), %eax
	#APP

	outl	%eax, %dx


	#NO_APP
	movw	$3324, %dx
	#APP

	inl	%dx, %eax


	#NO_APP
	movl	$-1, %ecx
	movl	$7344128, %esi
	.align	16, 0x90
LBB37_895:
	movl	%esi, %edx
	incl	%ecx
	xorl	%esi, %esi
	cmpl	$1048575, %ecx
	ja	LBB37_898
	leal	4(%edx), %esi
	cmpl	$0, (%edx)
	jne	LBB37_895
	shll	$12, %ecx
	addl	$11538432, %ecx
	movl	%ecx, (%edx)
	movl	%ecx, %esi
LBB37_898:
	movl	%esi, 60(%esp)
	movl	36(%esp), %ecx
	movl	%ecx, (%esi)
	movl	40(%esp), %ecx
	movl	%ecx, 4(%esi)
	movl	52(%esp), %ecx
	movl	%ecx, 8(%esi)
	movl	%eax, %ecx
	notl	%ecx
	andl	$-16, %eax
	movl	%eax, 12(%esi)
	andl	$1, %ecx
	movb	%cl, 16(%esi)
	movw	$3320, %dx
	movl	24(%esp), %eax
	#APP

	outl	%eax, %dx


	#NO_APP
	movw	$3324, %dx
	#APP

	inl	%dx, %eax


	#NO_APP
	andb	$15, %al
	movb	%al, 17(%esi)
	movl	$_str7083, %ecx
	.align	16, 0x90
LBB37_899:
	leal	1(%ecx), %esi
	movzbl	(%ecx), %eax
	testb	%al, %al
	js	LBB37_901
	movl	%esi, %ecx
	jmp	LBB37_915
	.align	16, 0x90
LBB37_901:
	movl	$_str7083+16, %edi
	cmpl	%edi, %esi
	je	LBB37_902
	movzbl	1(%ecx), %edx
	addl	$2, %ecx
	andl	$63, %edx
	movl	%ecx, %edi
	jmp	LBB37_904
LBB37_902:
	xorl	%edx, %edx
	movl	%esi, %ecx
LBB37_904:
	movl	%eax, %esi
	andl	$31, %esi
	cmpl	$224, %eax
	jb	LBB37_905
	xorl	%ebp, %ebp
	movl	$_str7083+16, %ebx
	cmpl	%ebx, %edi
	je	LBB37_909
	movzbl	(%edi), %ebp
	incl	%edi
	andl	$63, %ebp
	movl	%edi, %ecx
	movl	%edi, %ebx
LBB37_909:
	shll	$6, %edx
	orl	%ebp, %edx
	cmpl	$240, %eax
	jb	LBB37_910
	xorl	%eax, %eax
	movl	$_str7083+16, %esi
	cmpl	%esi, %ebx
	je	LBB37_913
	movzbl	(%ebx), %eax
	incl	%ebx
	andl	$63, %eax
	movl	%ebx, %ecx
LBB37_913:
	shll	$6, %edx
	orl	%eax, %edx
	jmp	LBB37_914
LBB37_905:
	shll	$6, %esi
	orl	%esi, %edx
	jmp	LBB37_914
LBB37_910:
	shll	$12, %esi
	orl	%esi, %edx
LBB37_914:
	movl	%edx, %eax
LBB37_915:
	movw	$1016, %dx
	#APP

	outb	%al, %dx


	#NO_APP
	movl	$_str7083+16, %eax
	cmpl	%eax, %ecx
	jne	LBB37_899
	movl	60(%esp), %edi
	movl	12(%edi), %ecx
	calll	__ZN6common5debug2dh20h857ba5a54e7b7d79roaE
	movl	$_str7085, %esi
	movl	$_str7087, %ebx
	cmpb	$0, 16(%edi)
	je	LBB37_934
	.align	16, 0x90
LBB37_917:
	leal	1(%esi), %edx
	movzbl	(%esi), %eax
	testb	%al, %al
	js	LBB37_919
	movl	%edx, %esi
	jmp	LBB37_933
	.align	16, 0x90
LBB37_919:
	movl	$_str7085+14, %edi
	cmpl	%edi, %edx
	je	LBB37_920
	movzbl	1(%esi), %ecx
	addl	$2, %esi
	andl	$63, %ecx
	movl	%esi, %edi
	jmp	LBB37_922
LBB37_920:
	xorl	%ecx, %ecx
	movl	%edx, %esi
LBB37_922:
	movl	%eax, %edx
	andl	$31, %edx
	cmpl	$224, %eax
	jb	LBB37_923
	xorl	%ebp, %ebp
	movl	$_str7085+14, %ebx
	cmpl	%ebx, %edi
	je	LBB37_927
	movzbl	(%edi), %ebp
	incl	%edi
	andl	$63, %ebp
	movl	%edi, %esi
	movl	%edi, %ebx
LBB37_927:
	shll	$6, %ecx
	orl	%ebp, %ecx
	cmpl	$240, %eax
	jb	LBB37_928
	xorl	%eax, %eax
	movl	$_str7085+14, %edx
	cmpl	%edx, %ebx
	je	LBB37_931
	movzbl	(%ebx), %eax
	incl	%ebx
	andl	$63, %eax
	movl	%ebx, %esi
LBB37_931:
	shll	$6, %ecx
	orl	%eax, %ecx
	jmp	LBB37_932
LBB37_923:
	shll	$6, %edx
	orl	%edx, %ecx
	jmp	LBB37_932
LBB37_928:
	shll	$12, %edx
	orl	%edx, %ecx
LBB37_932:
	movl	%ecx, %eax
LBB37_933:
	movw	$1016, %dx
	#APP

	outb	%al, %dx


	#NO_APP
	movl	$_str7089, %ecx
	movl	$_str7085+14, %eax
	cmpl	%eax, %esi
	jne	LBB37_917
	jmp	LBB37_951
	.align	16, 0x90
LBB37_934:
	leal	1(%ebx), %edx
	movzbl	(%ebx), %eax
	testb	%al, %al
	js	LBB37_936
	movl	%edx, %ebx
	jmp	LBB37_950
	.align	16, 0x90
LBB37_936:
	movl	$_str7087+12, %esi
	cmpl	%esi, %edx
	je	LBB37_937
	movzbl	1(%ebx), %ecx
	addl	$2, %ebx
	andl	$63, %ecx
	movl	%ebx, %esi
	jmp	LBB37_939
LBB37_937:
	xorl	%ecx, %ecx
	movl	%edx, %ebx
LBB37_939:
	movl	%eax, %edx
	andl	$31, %edx
	cmpl	$224, %eax
	jb	LBB37_940
	xorl	%ebp, %ebp
	movl	$_str7087+12, %edi
	cmpl	%edi, %esi
	je	LBB37_944
	movzbl	(%esi), %ebp
	incl	%esi
	andl	$63, %ebp
	movl	%esi, %ebx
	movl	%esi, %edi
LBB37_944:
	shll	$6, %ecx
	orl	%ebp, %ecx
	cmpl	$240, %eax
	jb	LBB37_945
	xorl	%eax, %eax
	movl	$_str7087+12, %edx
	cmpl	%edx, %edi
	je	LBB37_948
	movzbl	(%edi), %eax
	incl	%edi
	andl	$63, %eax
	movl	%edi, %ebx
LBB37_948:
	shll	$6, %ecx
	orl	%eax, %ecx
	jmp	LBB37_949
LBB37_940:
	shll	$6, %edx
	orl	%edx, %ecx
	jmp	LBB37_949
LBB37_945:
	shll	$12, %edx
	orl	%edx, %ecx
LBB37_949:
	movl	%ecx, %eax
LBB37_950:
	movw	$1016, %dx
	#APP

	outb	%al, %dx


	#NO_APP
	movl	$_str7089, %ecx
	movl	$_str7087+12, %eax
	cmpl	%eax, %ebx
	jne	LBB37_934
	.align	16, 0x90
LBB37_951:
	leal	1(%ecx), %esi
	movzbl	(%ecx), %eax
	testb	%al, %al
	js	LBB37_953
	movl	%esi, %ecx
	jmp	LBB37_967
	.align	16, 0x90
LBB37_953:
	movl	$_str7089+7, %edi
	cmpl	%edi, %esi
	je	LBB37_954
	movzbl	1(%ecx), %edx
	addl	$2, %ecx
	andl	$63, %edx
	movl	%ecx, %edi
	jmp	LBB37_956
LBB37_954:
	xorl	%edx, %edx
	movl	%esi, %ecx
LBB37_956:
	movl	%eax, %esi
	andl	$31, %esi
	cmpl	$224, %eax
	jb	LBB37_957
	xorl	%ebp, %ebp
	movl	$_str7089+7, %ebx
	cmpl	%ebx, %edi
	je	LBB37_961
	movzbl	(%edi), %ebp
	incl	%edi
	andl	$63, %ebp
	movl	%edi, %ecx
	movl	%edi, %ebx
LBB37_961:
	shll	$6, %edx
	orl	%ebp, %edx
	cmpl	$240, %eax
	jb	LBB37_962
	xorl	%eax, %eax
	movl	$_str7089+7, %esi
	cmpl	%esi, %ebx
	je	LBB37_965
	movzbl	(%ebx), %eax
	incl	%ebx
	andl	$63, %eax
	movl	%ebx, %ecx
LBB37_965:
	shll	$6, %edx
	orl	%eax, %edx
	jmp	LBB37_966
LBB37_957:
	shll	$6, %esi
	orl	%esi, %edx
	jmp	LBB37_966
LBB37_962:
	shll	$12, %esi
	orl	%esi, %edx
LBB37_966:
	movl	%edx, %eax
LBB37_967:
	movw	$1016, %dx
	#APP

	outb	%al, %dx


	#NO_APP
	movl	$_str7089+7, %eax
	cmpl	%eax, %ecx
	jne	LBB37_951
	movl	60(%esp), %esi
	movzbl	17(%esi), %ecx
	movb	%cl, %al
	shrb	$4, %al
	cmpl	$160, %ecx
	jb	LBB37_969
	addb	$55, %al
	jmp	LBB37_971
LBB37_156:
	cmpl	$32, %eax
	jne	LBB37_157
	orl	$-2147483632, %esi
	movw	$3320, %dx
	movl	%esi, %eax
	#APP

	outl	%eax, %dx


	#NO_APP
	movw	$3324, %dx
	#APP

	inl	%dx, %eax


	#NO_APP
	movl	%eax, 68(%esp)
	movl	$_str6883, %esi
	movl	$_str6883+19, %edi
	.align	16, 0x90
LBB37_732:
	leal	1(%esi), %ecx
	movzbl	(%esi), %eax
	testb	%al, %al
	js	LBB37_734
	movl	%ecx, %esi
	jmp	LBB37_746
	.align	16, 0x90
LBB37_734:
	movl	$_str6883+19, %edi
	cmpl	%edi, %ecx
	je	LBB37_735
	movzbl	1(%esi), %edx
	addl	$2, %esi
	andl	$63, %edx
	movl	%esi, %edi
	jmp	LBB37_737
LBB37_735:
	xorl	%edx, %edx
	movl	%ecx, %esi
LBB37_737:
	movl	%eax, %ebx
	andl	$31, %ebx
	cmpl	$224, %eax
	jb	LBB37_738
	xorl	%ecx, %ecx
	movl	$_str6883+19, %ebp
	cmpl	%ebp, %edi
	je	LBB37_741
	movzbl	(%edi), %ecx
	incl	%edi
	andl	$63, %ecx
	movl	%edi, %esi
	movl	%edi, %ebp
LBB37_741:
	shll	$6, %edx
	orl	%ecx, %edx
	cmpl	$240, %eax
	jb	LBB37_742
	xorl	%eax, %eax
	movl	$_str6883+19, %edi
	cmpl	%edi, %ebp
	je	LBB37_745
	movzbl	(%ebp), %eax
	incl	%ebp
	andl	$63, %eax
	movl	%ebp, %esi
LBB37_745:
	shll	$6, %edx
	orl	%eax, %edx
	movl	%edx, %eax
	movl	$_str6654+2, %ebp
	jmp	LBB37_746
LBB37_738:
	shll	$6, %ebx
	orl	%ebx, %edx
	movl	%edx, %eax
	movl	$_str6883+19, %edi
	jmp	LBB37_746
LBB37_742:
	shll	$12, %ebx
	orl	%ebx, %edx
	movl	%edx, %eax
	movl	$_str6654+2, %ebp
	movl	$_str6883+19, %edi
	.align	16, 0x90
LBB37_746:
	movw	$1016, %dx
	#APP

	outb	%al, %dx


	#NO_APP
	cmpl	%edi, %esi
	jne	LBB37_732
	movl	68(%esp), %ecx
	andl	$-16, %ecx
	calll	__ZN6common5debug2dh20h857ba5a54e7b7d79roaE
	movb	$10, %al
	movw	$1016, %dx
	#APP

	outb	%al, %dx


	#NO_APP
	jmp	LBB37_996
LBB37_797:
	cmpl	$4332, %ecx
	jne	LBB37_996
	cmpl	$33081, %eax
	jne	LBB37_996
	orl	$-2147483632, %esi
	movw	$3320, %dx
	movl	%esi, %eax
	#APP

	outl	%eax, %dx


	#NO_APP
	movw	$3324, %dx
	#APP

	inl	%dx, %eax


	#NO_APP
	movl	$-1, %ecx
	movl	$7344128, %esi
	.align	16, 0x90
LBB37_800:
	movl	%esi, %edx
	incl	%ecx
	xorl	%esi, %esi
	cmpl	$1048575, %ecx
	ja	LBB37_803
	leal	4(%edx), %esi
	cmpl	$0, (%edx)
	jne	LBB37_800
	shll	$12, %ecx
	addl	$11538432, %ecx
	movl	%ecx, (%edx)
	movl	%ecx, %esi
LBB37_803:
	movl	%esi, 68(%esp)
	movl	36(%esp), %ecx
	movl	%ecx, (%esi)
	movl	40(%esp), %ecx
	movl	%ecx, 4(%esi)
	movl	52(%esp), %ecx
	movl	%ecx, 8(%esi)
	movl	%eax, %ecx
	notl	%ecx
	andl	$-16, %eax
	movl	%eax, 12(%esi)
	andl	$1, %ecx
	movb	%cl, 16(%esi)
	movw	$3320, %dx
	movl	24(%esp), %eax
	#APP

	outl	%eax, %dx


	#NO_APP
	movw	$3324, %dx
	#APP

	inl	%dx, %eax


	#NO_APP
	andb	$15, %al
	movb	%al, 17(%esi)
	movl	$_str7145, %ecx
	.align	16, 0x90
LBB37_804:
	leal	1(%ecx), %esi
	movzbl	(%ecx), %eax
	testb	%al, %al
	js	LBB37_806
	movl	%esi, %ecx
	jmp	LBB37_820
	.align	16, 0x90
LBB37_806:
	movl	$_str7145+12, %edi
	cmpl	%edi, %esi
	je	LBB37_807
	movzbl	1(%ecx), %edx
	addl	$2, %ecx
	andl	$63, %edx
	movl	%ecx, %edi
	jmp	LBB37_809
LBB37_807:
	xorl	%edx, %edx
	movl	%esi, %ecx
LBB37_809:
	movl	%eax, %esi
	andl	$31, %esi
	cmpl	$224, %eax
	jb	LBB37_810
	xorl	%ebp, %ebp
	movl	$_str7145+12, %ebx
	cmpl	%ebx, %edi
	je	LBB37_814
	movzbl	(%edi), %ebp
	incl	%edi
	andl	$63, %ebp
	movl	%edi, %ecx
	movl	%edi, %ebx
LBB37_814:
	shll	$6, %edx
	orl	%ebp, %edx
	cmpl	$240, %eax
	jb	LBB37_815
	xorl	%eax, %eax
	movl	$_str7145+12, %esi
	cmpl	%esi, %ebx
	je	LBB37_818
	movzbl	(%ebx), %eax
	incl	%ebx
	andl	$63, %eax
	movl	%ebx, %ecx
LBB37_818:
	shll	$6, %edx
	orl	%eax, %edx
	jmp	LBB37_819
LBB37_810:
	shll	$6, %esi
	orl	%esi, %edx
	jmp	LBB37_819
LBB37_815:
	shll	$12, %esi
	orl	%esi, %edx
LBB37_819:
	movl	%edx, %eax
LBB37_820:
	movw	$1016, %dx
	#APP

	outb	%al, %dx


	#NO_APP
	movl	$_str7145+12, %eax
	cmpl	%eax, %ecx
	jne	LBB37_804
	movl	68(%esp), %edi
	movl	12(%edi), %ecx
	movl	%ecx, 64(%esp)
	calll	__ZN6common5debug2dh20h857ba5a54e7b7d79roaE
	movl	$_str7085, %esi
	movl	$_str7087, %ebx
	cmpb	$0, 16(%edi)
	je	LBB37_839
	.align	16, 0x90
LBB37_822:
	leal	1(%esi), %edx
	movzbl	(%esi), %eax
	testb	%al, %al
	js	LBB37_824
	movl	%edx, %esi
	jmp	LBB37_838
	.align	16, 0x90
LBB37_824:
	movl	$_str7085+14, %edi
	cmpl	%edi, %edx
	je	LBB37_825
	movzbl	1(%esi), %ecx
	addl	$2, %esi
	andl	$63, %ecx
	movl	%esi, %edi
	jmp	LBB37_827
LBB37_825:
	xorl	%ecx, %ecx
	movl	%edx, %esi
LBB37_827:
	movl	%eax, %edx
	andl	$31, %edx
	cmpl	$224, %eax
	jb	LBB37_828
	xorl	%ebp, %ebp
	movl	$_str7085+14, %ebx
	cmpl	%ebx, %edi
	je	LBB37_832
	movzbl	(%edi), %ebp
	incl	%edi
	andl	$63, %ebp
	movl	%edi, %esi
	movl	%edi, %ebx
LBB37_832:
	shll	$6, %ecx
	orl	%ebp, %ecx
	cmpl	$240, %eax
	jb	LBB37_833
	xorl	%eax, %eax
	movl	$_str7085+14, %edx
	cmpl	%edx, %ebx
	je	LBB37_836
	movzbl	(%ebx), %eax
	incl	%ebx
	andl	$63, %eax
	movl	%ebx, %esi
LBB37_836:
	shll	$6, %ecx
	orl	%eax, %ecx
	jmp	LBB37_837
LBB37_828:
	shll	$6, %edx
	orl	%edx, %ecx
	jmp	LBB37_837
LBB37_833:
	shll	$12, %edx
	orl	%edx, %ecx
LBB37_837:
	movl	%ecx, %eax
LBB37_838:
	movw	$1016, %dx
	#APP

	outb	%al, %dx


	#NO_APP
	movl	$_str7147, %ecx
	movl	$_str7085+14, %eax
	cmpl	%eax, %esi
	jne	LBB37_822
	jmp	LBB37_856
	.align	16, 0x90
LBB37_839:
	leal	1(%ebx), %edx
	movzbl	(%ebx), %eax
	testb	%al, %al
	js	LBB37_841
	movl	%edx, %ebx
	jmp	LBB37_855
	.align	16, 0x90
LBB37_841:
	movl	$_str7087+12, %esi
	cmpl	%esi, %edx
	je	LBB37_842
	movzbl	1(%ebx), %ecx
	addl	$2, %ebx
	andl	$63, %ecx
	movl	%ebx, %esi
	jmp	LBB37_844
LBB37_842:
	xorl	%ecx, %ecx
	movl	%edx, %ebx
LBB37_844:
	movl	%eax, %edx
	andl	$31, %edx
	cmpl	$224, %eax
	jb	LBB37_845
	xorl	%ebp, %ebp
	movl	$_str7087+12, %edi
	cmpl	%edi, %esi
	je	LBB37_849
	movzbl	(%esi), %ebp
	incl	%esi
	andl	$63, %ebp
	movl	%esi, %ebx
	movl	%esi, %edi
LBB37_849:
	shll	$6, %ecx
	orl	%ebp, %ecx
	cmpl	$240, %eax
	jb	LBB37_850
	xorl	%eax, %eax
	movl	$_str7087+12, %edx
	cmpl	%edx, %edi
	je	LBB37_853
	movzbl	(%edi), %eax
	incl	%edi
	andl	$63, %eax
	movl	%edi, %ebx
LBB37_853:
	shll	$6, %ecx
	orl	%eax, %ecx
	jmp	LBB37_854
LBB37_845:
	shll	$6, %edx
	orl	%edx, %ecx
	jmp	LBB37_854
LBB37_850:
	shll	$12, %edx
	orl	%edx, %ecx
LBB37_854:
	movl	%ecx, %eax
LBB37_855:
	movw	$1016, %dx
	#APP

	outb	%al, %dx


	#NO_APP
	movl	$_str7147, %ecx
	movl	$_str7087+12, %eax
	cmpl	%eax, %ebx
	jne	LBB37_839
	.align	16, 0x90
LBB37_856:
	leal	1(%ecx), %esi
	movzbl	(%ecx), %eax
	testb	%al, %al
	js	LBB37_858
	movl	%esi, %ecx
	jmp	LBB37_872
	.align	16, 0x90
LBB37_858:
	movl	$_str7147+6, %edi
	cmpl	%edi, %esi
	je	LBB37_859
	movzbl	1(%ecx), %edx
	addl	$2, %ecx
	andl	$63, %edx
	movl	%ecx, %edi
	jmp	LBB37_861
LBB37_859:
	xorl	%edx, %edx
	movl	%esi, %ecx
LBB37_861:
	movl	%eax, %esi
	andl	$31, %esi
	cmpl	$224, %eax
	jb	LBB37_862
	xorl	%ebp, %ebp
	movl	$_str7147+6, %ebx
	cmpl	%ebx, %edi
	je	LBB37_866
	movzbl	(%edi), %ebp
	incl	%edi
	andl	$63, %ebp
	movl	%edi, %ecx
	movl	%edi, %ebx
LBB37_866:
	shll	$6, %edx
	orl	%ebp, %edx
	cmpl	$240, %eax
	jb	LBB37_867
	xorl	%eax, %eax
	movl	$_str7147+6, %esi
	cmpl	%esi, %ebx
	je	LBB37_870
	movzbl	(%ebx), %eax
	incl	%ebx
	andl	$63, %eax
	movl	%ebx, %ecx
LBB37_870:
	shll	$6, %edx
	orl	%eax, %edx
	jmp	LBB37_871
LBB37_862:
	shll	$6, %esi
	orl	%esi, %edx
	jmp	LBB37_871
LBB37_867:
	shll	$12, %esi
	orl	%esi, %edx
LBB37_871:
	movl	%edx, %eax
LBB37_872:
	movw	$1016, %dx
	#APP

	outb	%al, %dx


	#NO_APP
	movl	$_str7147+6, %eax
	cmpl	%eax, %ecx
	jne	LBB37_856
	movl	68(%esp), %esi
	movzbl	17(%esi), %ecx
	movb	%cl, %al
	shrb	$4, %al
	cmpl	$160, %ecx
	jb	LBB37_874
	addb	$55, %al
	jmp	LBB37_876
LBB37_152:
	cmpl	$16, %eax
	jne	LBB37_780
	orl	$-2147483632, %esi
	movw	$3320, %dx
	movl	%esi, %eax
	#APP

	outl	%eax, %dx


	#NO_APP
	movw	$3324, %dx
	#APP

	inl	%dx, %eax


	#NO_APP
	movl	%eax, 68(%esp)
	movl	$_str6885, %esi
	movl	$_str6885+19, %edi
	.align	16, 0x90
LBB37_154:
	leal	1(%esi), %ecx
	movzbl	(%esi), %eax
	testb	%al, %al
	js	LBB37_748
	movl	%ecx, %esi
	jmp	LBB37_760
	.align	16, 0x90
LBB37_748:
	movl	$_str6885+19, %edi
	cmpl	%edi, %ecx
	je	LBB37_749
	movzbl	1(%esi), %edx
	addl	$2, %esi
	andl	$63, %edx
	movl	%esi, %edi
	jmp	LBB37_751
LBB37_749:
	xorl	%edx, %edx
	movl	%ecx, %esi
LBB37_751:
	movl	%eax, %ebx
	andl	$31, %ebx
	cmpl	$224, %eax
	jb	LBB37_752
	xorl	%ecx, %ecx
	movl	$_str6885+19, %ebp
	cmpl	%ebp, %edi
	je	LBB37_755
	movzbl	(%edi), %ecx
	incl	%edi
	andl	$63, %ecx
	movl	%edi, %esi
	movl	%edi, %ebp
LBB37_755:
	shll	$6, %edx
	orl	%ecx, %edx
	cmpl	$240, %eax
	jb	LBB37_756
	xorl	%eax, %eax
	movl	$_str6885+19, %edi
	cmpl	%edi, %ebp
	je	LBB37_759
	movzbl	(%ebp), %eax
	incl	%ebp
	andl	$63, %eax
	movl	%ebp, %esi
LBB37_759:
	shll	$6, %edx
	orl	%eax, %edx
	movl	%edx, %eax
	movl	$_str6654+2, %ebp
	jmp	LBB37_760
LBB37_752:
	shll	$6, %ebx
	orl	%ebx, %edx
	movl	%edx, %eax
	movl	$_str6885+19, %edi
	jmp	LBB37_760
LBB37_756:
	shll	$12, %ebx
	orl	%ebx, %edx
	movl	%edx, %eax
	movl	$_str6654+2, %ebp
	movl	$_str6885+19, %edi
	.align	16, 0x90
LBB37_760:
	movw	$1016, %dx
	#APP

	outb	%al, %dx


	#NO_APP
	cmpl	%edi, %esi
	jne	LBB37_154
	movl	68(%esp), %ecx
	andl	$-16, %ecx
	calll	__ZN6common5debug2dh20h857ba5a54e7b7d79roaE
	movb	$10, %al
	movw	$1016, %dx
	#APP

	outb	%al, %dx


	#NO_APP
	jmp	LBB37_996
LBB37_157:
	cmpl	$48, %eax
	jne	LBB37_780
	orl	$-2147483632, %esi
	movw	$3320, %dx
	movl	%esi, %eax
	#APP

	outl	%eax, %dx


	#NO_APP
	movw	$3324, %dx
	#APP

	inl	%dx, %eax


	#NO_APP
	movl	$-1, %ecx
	movl	$7344128, %esi
	.align	16, 0x90
LBB37_159:
	movl	%esi, %edx
	incl	%ecx
	xorl	%esi, %esi
	cmpl	$1048575, %ecx
	ja	LBB37_162
	leal	4(%edx), %esi
	cmpl	$0, (%edx)
	jne	LBB37_159
	shll	$12, %ecx
	addl	$11538432, %ecx
	movl	%ecx, (%edx)
	movl	%ecx, %esi
LBB37_162:
	movl	%esi, 12(%esp)
	movl	36(%esp), %ecx
	movl	%ecx, (%esi)
	movl	40(%esp), %ecx
	movl	%ecx, 4(%esi)
	movl	52(%esp), %ecx
	movl	%ecx, 8(%esi)
	movl	%eax, %ecx
	notl	%ecx
	andl	$-16, %eax
	movl	%eax, 12(%esi)
	andl	$1, %ecx
	movb	%cl, 16(%esi)
	movw	$3320, %dx
	movl	24(%esp), %eax
	#APP

	outl	%eax, %dx


	#NO_APP
	movw	$3324, %dx
	#APP

	inl	%dx, %eax


	#NO_APP
	andb	$15, %al
	movb	%al, 17(%esi)
	movl	$_str7450, %ecx
	.align	16, 0x90
LBB37_163:
	leal	1(%ecx), %esi
	movzbl	(%ecx), %eax
	testb	%al, %al
	js	LBB37_165
	movl	%esi, %ecx
	jmp	LBB37_178
	.align	16, 0x90
LBB37_165:
	movl	$_str7450+9, %edi
	cmpl	%edi, %esi
	je	LBB37_166
	movzbl	1(%ecx), %edx
	addl	$2, %ecx
	andl	$63, %edx
	movl	%ecx, %edi
	jmp	LBB37_168
LBB37_166:
	xorl	%edx, %edx
	movl	%esi, %ecx
LBB37_168:
	movl	%eax, %esi
	andl	$31, %esi
	cmpl	$224, %eax
	jb	LBB37_169
	xorl	%ebp, %ebp
	movl	$_str7450+9, %ebx
	cmpl	%ebx, %edi
	je	LBB37_172
	movzbl	(%edi), %ebp
	incl	%edi
	andl	$63, %ebp
	movl	%edi, %ecx
	movl	%edi, %ebx
LBB37_172:
	shll	$6, %edx
	orl	%ebp, %edx
	cmpl	$240, %eax
	jb	LBB37_173
	xorl	%eax, %eax
	movl	$_str7450+9, %esi
	cmpl	%esi, %ebx
	je	LBB37_176
	movzbl	(%ebx), %eax
	incl	%ebx
	andl	$63, %eax
	movl	%ebx, %ecx
LBB37_176:
	shll	$6, %edx
	orl	%eax, %edx
	jmp	LBB37_177
LBB37_169:
	shll	$6, %esi
	orl	%esi, %edx
	movl	%edx, %eax
	jmp	LBB37_178
LBB37_173:
	shll	$12, %esi
	orl	%esi, %edx
LBB37_177:
	movl	%edx, %eax
	movl	$_str6654+2, %ebp
	.align	16, 0x90
LBB37_178:
	movw	$1016, %dx
	#APP

	outb	%al, %dx


	#NO_APP
	movl	$_str7450+9, %eax
	cmpl	%eax, %ecx
	jne	LBB37_163
	movl	12(%esp), %edi
	movl	12(%edi), %ecx
	movl	%ecx, 60(%esp)
	calll	__ZN6common5debug2dh20h857ba5a54e7b7d79roaE
	movl	$_str7085, %esi
	movl	$_str7087, %ebx
	cmpb	$0, 16(%edi)
	je	LBB37_196
	.align	16, 0x90
LBB37_180:
	leal	1(%esi), %edx
	movzbl	(%esi), %eax
	testb	%al, %al
	js	LBB37_182
	movl	%edx, %esi
	jmp	LBB37_195
	.align	16, 0x90
LBB37_182:
	movl	$_str7085+14, %edi
	cmpl	%edi, %edx
	je	LBB37_183
	movzbl	1(%esi), %ecx
	addl	$2, %esi
	andl	$63, %ecx
	movl	%esi, %edi
	jmp	LBB37_185
LBB37_183:
	xorl	%ecx, %ecx
	movl	%edx, %esi
LBB37_185:
	movl	%eax, %edx
	andl	$31, %edx
	cmpl	$224, %eax
	jb	LBB37_186
	xorl	%ebp, %ebp
	movl	$_str7085+14, %ebx
	cmpl	%ebx, %edi
	je	LBB37_189
	movzbl	(%edi), %ebp
	incl	%edi
	andl	$63, %ebp
	movl	%edi, %esi
	movl	%edi, %ebx
LBB37_189:
	shll	$6, %ecx
	orl	%ebp, %ecx
	cmpl	$240, %eax
	jb	LBB37_190
	xorl	%eax, %eax
	movl	$_str7085+14, %edx
	cmpl	%edx, %ebx
	je	LBB37_193
	movzbl	(%ebx), %eax
	incl	%ebx
	andl	$63, %eax
	movl	%ebx, %esi
LBB37_193:
	shll	$6, %ecx
	orl	%eax, %ecx
	jmp	LBB37_194
LBB37_186:
	shll	$6, %edx
	orl	%edx, %ecx
	movl	%ecx, %eax
	jmp	LBB37_195
LBB37_190:
	shll	$12, %edx
	orl	%edx, %ecx
LBB37_194:
	movl	%ecx, %eax
	movl	$_str6654+2, %ebp
	.align	16, 0x90
LBB37_195:
	movw	$1016, %dx
	#APP

	outb	%al, %dx


	#NO_APP
	movl	$_str7147, %ecx
	movl	$_str7085+14, %eax
	cmpl	%eax, %esi
	jne	LBB37_180
	jmp	LBB37_212
	.align	16, 0x90
LBB37_780:
	leal	1(%ecx), %esi
	movzbl	(%ecx), %eax
	testb	%al, %al
	js	LBB37_782
	movl	%esi, %ecx
	jmp	LBB37_795
	.align	16, 0x90
LBB37_782:
	movl	$_str6889+30, %edi
	cmpl	%edi, %esi
	je	LBB37_783
	movzbl	1(%ecx), %edx
	addl	$2, %ecx
	andl	$63, %edx
	movl	%ecx, %edi
	jmp	LBB37_785
LBB37_783:
	xorl	%edx, %edx
	movl	%esi, %ecx
LBB37_785:
	movl	%eax, %esi
	andl	$31, %esi
	cmpl	$224, %eax
	jb	LBB37_786
	xorl	%ebp, %ebp
	movl	$_str6889+30, %ebx
	cmpl	%ebx, %edi
	je	LBB37_789
	movzbl	(%edi), %ebp
	incl	%edi
	andl	$63, %ebp
	movl	%edi, %ecx
	movl	%edi, %ebx
LBB37_789:
	shll	$6, %edx
	orl	%ebp, %edx
	cmpl	$240, %eax
	jb	LBB37_790
	xorl	%eax, %eax
	movl	$_str6889+30, %esi
	cmpl	%esi, %ebx
	je	LBB37_793
	movzbl	(%ebx), %eax
	incl	%ebx
	andl	$63, %eax
	movl	%ebx, %ecx
LBB37_793:
	shll	$6, %edx
	orl	%eax, %edx
	jmp	LBB37_794
LBB37_786:
	shll	$6, %esi
	orl	%esi, %edx
	movl	%edx, %eax
	jmp	LBB37_795
LBB37_790:
	shll	$12, %esi
	orl	%esi, %edx
LBB37_794:
	movl	%edx, %eax
	movl	$_str6654+2, %ebp
	.align	16, 0x90
LBB37_795:
	movw	$1016, %dx
	#APP

	outb	%al, %dx


	#NO_APP
	movl	$_str6889+30, %eax
	cmpl	%eax, %ecx
	jne	LBB37_780
	jmp	LBB37_996
	.align	16, 0x90
LBB37_196:
	leal	1(%ebx), %edx
	movzbl	(%ebx), %eax
	testb	%al, %al
	js	LBB37_198
	movl	%edx, %ebx
	jmp	LBB37_211
	.align	16, 0x90
LBB37_198:
	movl	$_str7087+12, %esi
	cmpl	%esi, %edx
	je	LBB37_199
	movzbl	1(%ebx), %ecx
	addl	$2, %ebx
	andl	$63, %ecx
	movl	%ebx, %esi
	jmp	LBB37_201
LBB37_199:
	xorl	%ecx, %ecx
	movl	%edx, %ebx
LBB37_201:
	movl	%eax, %edx
	andl	$31, %edx
	cmpl	$224, %eax
	jb	LBB37_202
	xorl	%ebp, %ebp
	movl	$_str7087+12, %edi
	cmpl	%edi, %esi
	je	LBB37_205
	movzbl	(%esi), %ebp
	incl	%esi
	andl	$63, %ebp
	movl	%esi, %ebx
	movl	%esi, %edi
LBB37_205:
	shll	$6, %ecx
	orl	%ebp, %ecx
	cmpl	$240, %eax
	jb	LBB37_206
	xorl	%eax, %eax
	movl	$_str7087+12, %edx
	cmpl	%edx, %edi
	movl	$_str6654+2, %ebp
	je	LBB37_209
	movzbl	(%edi), %eax
	incl	%edi
	andl	$63, %eax
	movl	%edi, %ebx
LBB37_209:
	shll	$6, %ecx
	orl	%eax, %ecx
	jmp	LBB37_210
LBB37_202:
	shll	$6, %edx
	orl	%edx, %ecx
LBB37_210:
	movl	%ecx, %eax
	jmp	LBB37_211
LBB37_206:
	shll	$12, %edx
	orl	%edx, %ecx
	movl	%ecx, %eax
	movl	$_str6654+2, %ebp
	.align	16, 0x90
LBB37_211:
	movw	$1016, %dx
	#APP

	outb	%al, %dx


	#NO_APP
	movl	$_str7147, %ecx
	movl	$_str7087+12, %eax
	cmpl	%eax, %ebx
	jne	LBB37_196
	.align	16, 0x90
LBB37_212:
	leal	1(%ecx), %esi
	movzbl	(%ecx), %eax
	testb	%al, %al
	js	LBB37_214
	movl	%esi, %ecx
	jmp	LBB37_227
	.align	16, 0x90
LBB37_214:
	movl	$_str7147+6, %edi
	cmpl	%edi, %esi
	je	LBB37_215
	movzbl	1(%ecx), %edx
	addl	$2, %ecx
	andl	$63, %edx
	movl	%ecx, %edi
	jmp	LBB37_217
LBB37_215:
	xorl	%edx, %edx
	movl	%esi, %ecx
LBB37_217:
	movl	%eax, %esi
	andl	$31, %esi
	cmpl	$224, %eax
	jb	LBB37_218
	xorl	%ebp, %ebp
	movl	$_str7147+6, %ebx
	cmpl	%ebx, %edi
	je	LBB37_221
	movzbl	(%edi), %ebp
	incl	%edi
	andl	$63, %ebp
	movl	%edi, %ecx
	movl	%edi, %ebx
LBB37_221:
	shll	$6, %edx
	orl	%ebp, %edx
	cmpl	$240, %eax
	jb	LBB37_222
	xorl	%eax, %eax
	movl	$_str7147+6, %esi
	cmpl	%esi, %ebx
	je	LBB37_225
	movzbl	(%ebx), %eax
	incl	%ebx
	andl	$63, %eax
	movl	%ebx, %ecx
LBB37_225:
	shll	$6, %edx
	orl	%eax, %edx
	jmp	LBB37_226
LBB37_218:
	shll	$6, %esi
	orl	%esi, %edx
	movl	%edx, %eax
	jmp	LBB37_227
LBB37_222:
	shll	$12, %esi
	orl	%esi, %edx
LBB37_226:
	movl	%edx, %eax
	movl	$_str6654+2, %ebp
	.align	16, 0x90
LBB37_227:
	movw	$1016, %dx
	#APP

	outb	%al, %dx


	#NO_APP
	movl	$_str7147+6, %eax
	cmpl	%eax, %ecx
	jne	LBB37_212
	movl	12(%esp), %esi
	movzbl	17(%esi), %ecx
	movb	%cl, %al
	shrb	$4, %al
	cmpl	$160, %ecx
	jb	LBB37_229
	addb	$55, %al
	jmp	LBB37_231
LBB37_969:
	orb	$48, %al
LBB37_971:
	movw	$1016, %dx
	#APP

	outb	%al, %dx


	#NO_APP
	andb	$15, %cl
	movzbl	%cl, %eax
	movl	%esi, %edi
	cmpl	$10, %eax
	jb	LBB37_972
	addb	$55, %cl
	jmp	LBB37_974
LBB37_972:
	orb	$48, %cl
LBB37_974:
	movw	$1016, %dx
	movb	%cl, %al
	#APP

	outb	%al, %dx


	#NO_APP
	movb	$10, %al
	movw	$1016, %dx
	#APP

	outb	%al, %dx


	#NO_APP
	xorl	%esi, %esi
	xorl	%edx, %edx
	movl	%edi, %ecx
	calll	__ZN7network10intel8254x10Intel8254x4read20hd71152ea2dc53d3b9oeE
	movl	$8, %edx
	movl	%edi, %ecx
	calll	__ZN7network10intel8254x10Intel8254x4read20hd71152ea2dc53d3b9oeE
	movl	$208, %edx
	movl	%edi, %ecx
	calll	__ZN7network10intel8254x10Intel8254x4read20hd71152ea2dc53d3b9oeE
	xorl	%edx, %edx
	movl	%edi, %ecx
	calll	__ZN7network10intel8254x10Intel8254x4read20hd71152ea2dc53d3b9oeE
	orl	$96, %eax
	movl	%eax, (%esp)
	xorl	%edx, %edx
	movl	%edi, %ecx
	calll	__ZN7network10intel8254x10Intel8254x5write20hbb5fb91b5fd9a4fbsqeE
	xorl	%edx, %edx
	movl	%edi, %ecx
	calll	__ZN7network10intel8254x10Intel8254x4read20hd71152ea2dc53d3b9oeE
	andl	$-9, %eax
	movl	%eax, (%esp)
	xorl	%edx, %edx
	movl	%edi, %ecx
	calll	__ZN7network10intel8254x10Intel8254x5write20hbb5fb91b5fd9a4fbsqeE
	xorl	%edx, %edx
	movl	%edi, %ecx
	calll	__ZN7network10intel8254x10Intel8254x4read20hd71152ea2dc53d3b9oeE
	andl	$2147483647, %eax
	movl	%eax, (%esp)
	xorl	%edx, %edx
	movl	%edi, %ecx
	calll	__ZN7network10intel8254x10Intel8254x5write20hbb5fb91b5fd9a4fbsqeE
	xorl	%edx, %edx
	movl	%edi, %ecx
	calll	__ZN7network10intel8254x10Intel8254x4read20hd71152ea2dc53d3b9oeE
	andl	$-129, %eax
	movl	%eax, (%esp)
	xorl	%edx, %edx
	movl	%edi, %ecx
	calll	__ZN7network10intel8254x10Intel8254x5write20hbb5fb91b5fd9a4fbsqeE
	movl	$0, (%esp)
	movl	$44, %edx
	movl	%edi, %ecx
	calll	__ZN7network10intel8254x10Intel8254x5write20hbb5fb91b5fd9a4fbsqeE
	movl	$0, (%esp)
	movl	$40, %edx
	movl	%edi, %ecx
	calll	__ZN7network10intel8254x10Intel8254x5write20hbb5fb91b5fd9a4fbsqeE
	movl	$0, (%esp)
	movl	$48, %edx
	movl	%edi, %ecx
	calll	__ZN7network10intel8254x10Intel8254x5write20hbb5fb91b5fd9a4fbsqeE
	movl	$0, (%esp)
	movl	$368, %edx
	movl	%edi, %ecx
	calll	__ZN7network10intel8254x10Intel8254x5write20hbb5fb91b5fd9a4fbsqeE
	xorl	%edx, %edx
	movl	%edi, %ecx
	calll	__ZN7network10intel8254x10Intel8254x4read20hd71152ea2dc53d3b9oeE
	andl	$-1073741825, %eax
	movl	%eax, (%esp)
	xorl	%edx, %edx
	movl	%edi, %ecx
	calll	__ZN7network10intel8254x10Intel8254x5write20hbb5fb91b5fd9a4fbsqeE
	movl	$538976288, (%esp)
	movl	$21504, %edx
	movl	%edi, %ecx
	calll	__ZN7network10intel8254x10Intel8254x5write20hbb5fb91b5fd9a4fbsqeE
	movl	$8224, (%esp)
	movl	$21508, %edx
	movl	%edi, %ecx
	calll	__ZN7network10intel8254x10Intel8254x5write20hbb5fb91b5fd9a4fbsqeE
	movl	$220, (%esp)
	movl	$208, %edx
	movl	%edi, %ecx
	calll	__ZN7network10intel8254x10Intel8254x5write20hbb5fb91b5fd9a4fbsqeE
	xorl	%eax, %eax
	xorl	%ecx, %ecx
LBB37_975:
	leal	7344128(,%esi,4), %edi
	.align	16, 0x90
LBB37_976:
	movl	%eax, %edx
	movl	%esi, %ebx
	cmpl	$1048575, %ebx
	ja	LBB37_979
	leal	1(%ebx), %esi
	xorl	%eax, %eax
	cmpl	$0, (%edi)
	leal	4(%edi), %edi
	jne	LBB37_976
	testl	%edx, %edx
	cmovel	%ebx, %ecx
	incl	%edx
	movl	%edx, %eax
	andl	$1048575, %eax
	cmpl	$17, %eax
	movl	%edx, %eax
	jb	LBB37_975
LBB37_979:
	movl	%edx, %eax
	andl	$1048575, %eax
	xorl	%edi, %edi
	cmpl	$17, %eax
	movl	$0, 64(%esp)
	jb	LBB37_984
	movl	%ecx, %eax
	shll	$12, %eax
	addl	$11538432, %eax
	movl	%eax, 64(%esp)
	leal	(%ecx,%edx), %eax
	cmpl	%eax, %ecx
	jae	LBB37_984
	leal	7344128(,%ecx,4), %esi
	.align	16, 0x90
LBB37_982:
	cmpl	$1048576, %ecx
	jae	LBB37_983
	movl	64(%esp), %eax
	movl	%eax, (%esi)
LBB37_983:
	incl	%ecx
	addl	$4, %esi
	decl	%edx
	jne	LBB37_982
	.align	16, 0x90
LBB37_984:
	movl	%edi, %ecx
	leal	1(%ecx), %eax
	movl	%eax, 68(%esp)
	xorl	%eax, %eax
	xorl	%edi, %edi
	xorl	%edx, %edx
LBB37_985:
	leal	7344128(,%eax,4), %ebp
	.align	16, 0x90
LBB37_986:
	movl	%edi, %ebx
	movl	%eax, %esi
	cmpl	$1048575, %esi
	ja	LBB37_989
	leal	1(%esi), %eax
	xorl	%edi, %edi
	cmpl	$0, (%ebp)
	leal	4(%ebp), %ebp
	jne	LBB37_986
	testl	%ebx, %ebx
	cmovel	%esi, %edx
	incl	%ebx
	movl	%ebx, %esi
	andl	$1048575, %esi
	cmpl	$2, %esi
	movl	%ebx, %edi
	jb	LBB37_985
	.align	16, 0x90
LBB37_989:
	movl	%ebx, %eax
	andl	$1048575, %eax
	xorl	%esi, %esi
	cmpl	$2, %eax
	movl	$_str6654+2, %ebp
	jb	LBB37_994
	movl	%edx, %esi
	shll	$12, %esi
	addl	$11538432, %esi
	leal	(%edx,%ebx), %eax
	cmpl	%eax, %edx
	jae	LBB37_994
	leal	7344128(,%edx,4), %edi
	.align	16, 0x90
LBB37_992:
	cmpl	$1048576, %edx
	jae	LBB37_993
	movl	%esi, (%edi)
LBB37_993:
	incl	%edx
	addl	$4, %edi
	decl	%ebx
	jne	LBB37_992
LBB37_994:
	shll	$4, %ecx
	movl	64(%esp), %eax
	movl	%esi, (%ecx,%eax)
	movl	$0, 4(%ecx,%eax)
	movl	68(%esp), %edi
	cmpl	$4096, %edi
	jne	LBB37_984
	movl	$0, (%esp)
	movl	$10244, %edx
	movl	60(%esp), %ebx
	movl	%ebx, %ecx
	calll	__ZN7network10intel8254x10Intel8254x5write20hbb5fb91b5fd9a4fbsqeE
	movl	64(%esp), %eax
	movl	%eax, (%esp)
	movl	$10240, %edx
	movl	%ebx, %ecx
	calll	__ZN7network10intel8254x10Intel8254x5write20hbb5fb91b5fd9a4fbsqeE
	movl	$65536, (%esp)
	movl	$10248, %edx
	movl	%ebx, %ecx
	calll	__ZN7network10intel8254x10Intel8254x5write20hbb5fb91b5fd9a4fbsqeE
	movl	$0, (%esp)
	movl	$10256, %edx
	movl	%ebx, %ecx
	calll	__ZN7network10intel8254x10Intel8254x5write20hbb5fb91b5fd9a4fbsqeE
	movl	$65536, (%esp)
	movl	$10264, %edx
	movl	%ebx, %ecx
	calll	__ZN7network10intel8254x10Intel8254x5write20hbb5fb91b5fd9a4fbsqeE
	movl	$256, %edx
	movl	%ebx, %ecx
	calll	__ZN7network10intel8254x10Intel8254x4read20hd71152ea2dc53d3b9oeE
	orl	$2, %eax
	movl	%eax, (%esp)
	movl	$256, %edx
	movl	%ebx, %ecx
	calll	__ZN7network10intel8254x10Intel8254x5write20hbb5fb91b5fd9a4fbsqeE
	movl	$256, %edx
	movl	%ebx, %ecx
	calll	__ZN7network10intel8254x10Intel8254x4read20hd71152ea2dc53d3b9oeE
	orl	$32, %eax
	movl	%eax, (%esp)
	movl	$256, %edx
	movl	%ebx, %ecx
	calll	__ZN7network10intel8254x10Intel8254x5write20hbb5fb91b5fd9a4fbsqeE
	movl	$256, %edx
	movl	%ebx, %ecx
	calll	__ZN7network10intel8254x10Intel8254x4read20hd71152ea2dc53d3b9oeE
	andl	$-193, %eax
	movl	%eax, (%esp)
	movl	$256, %edx
	movl	%ebx, %ecx
	calll	__ZN7network10intel8254x10Intel8254x5write20hbb5fb91b5fd9a4fbsqeE
	movl	$256, %edx
	movl	%ebx, %ecx
	calll	__ZN7network10intel8254x10Intel8254x4read20hd71152ea2dc53d3b9oeE
	orl	$32768, %eax
	movl	%eax, (%esp)
	movl	$256, %edx
	movl	%ebx, %ecx
	calll	__ZN7network10intel8254x10Intel8254x5write20hbb5fb91b5fd9a4fbsqeE
	movl	$256, %edx
	movl	%ebx, %ecx
	calll	__ZN7network10intel8254x10Intel8254x4read20hd71152ea2dc53d3b9oeE
	orl	$196608, %eax
	movl	%eax, (%esp)
	movl	$256, %edx
	movl	%ebx, %ecx
	calll	__ZN7network10intel8254x10Intel8254x5write20hbb5fb91b5fd9a4fbsqeE
	movl	$256, %edx
	movl	%ebx, %ecx
	calll	__ZN7network10intel8254x10Intel8254x4read20hd71152ea2dc53d3b9oeE
	orl	$33554432, %eax
	movl	%eax, (%esp)
	movl	$256, %edx
	movl	%ebx, %ecx
	calll	__ZN7network10intel8254x10Intel8254x5write20hbb5fb91b5fd9a4fbsqeE
	movl	$256, %edx
	movl	%ebx, %ecx
	calll	__ZN7network10intel8254x10Intel8254x4read20hd71152ea2dc53d3b9oeE
	orl	$67108864, %eax
	movl	%eax, (%esp)
	movl	$256, %edx
	movl	%ebx, %ecx
	calll	__ZN7network10intel8254x10Intel8254x5write20hbb5fb91b5fd9a4fbsqeE
	movl	$220, (%esp)
	movl	$208, %edx
	movl	%ebx, %ecx
	calll	__ZN7network10intel8254x10Intel8254x5write20hbb5fb91b5fd9a4fbsqeE
	xorl	%edx, %edx
	movl	%ebx, %ecx
	calll	__ZN7network10intel8254x10Intel8254x4read20hd71152ea2dc53d3b9oeE
	movl	$8, %edx
	movl	%ebx, %ecx
	calll	__ZN7network10intel8254x10Intel8254x4read20hd71152ea2dc53d3b9oeE
	movl	$208, %edx
	movl	%ebx, %ecx
	calll	__ZN7network10intel8254x10Intel8254x4read20hd71152ea2dc53d3b9oeE
	movl	20(%esp), %edi
	movl	72(%edi), %esi
	leal	1(%esi), %eax
	movl	%eax, 72(%edi)
	movl	68(%edi), %ecx
	leal	8(,%esi,8), %edx
	calll	__ZN6common6memory7realloc20hc094b26789a71b31vXaE
	movl	%eax, 68(%edi)
	movl	%ebx, (%eax,%esi,8)
	movl	$_vtable6895, 4(%eax,%esi,8)
	jmp	LBB37_996
LBB37_229:
	orb	$48, %al
LBB37_231:
	movw	$1016, %dx
	#APP

	outb	%al, %dx


	#NO_APP
	andb	$15, %cl
	movzbl	%cl, %eax
	cmpl	$10, %eax
	jb	LBB37_232
	addb	$55, %cl
	jmp	LBB37_234
LBB37_232:
	orb	$48, %cl
LBB37_234:
	movw	$1016, %dx
	movb	%cl, %al
	#APP

	outb	%al, %dx


	#NO_APP
	movb	$10, %al
	movw	$1016, %dx
	#APP

	outb	%al, %dx


	#NO_APP
	movl	(%esi), %eax
	movl	4(%esi), %ecx
	movl	8(%esi), %edx
	shll	$16, %eax
	shll	$11, %ecx
	shll	$8, %edx
	orl	%eax, %ecx
	orl	%edx, %ecx
	orl	$-2147483644, %ecx
	movw	$3320, %dx
	movl	%ecx, %eax
	#APP

	outl	%eax, %dx


	#NO_APP
	movw	$3324, %dx
	#APP

	inl	%dx, %eax


	#NO_APP
	movl	%eax, %esi
	orl	$4, %esi
	movw	$3320, %dx
	movl	%ecx, %eax
	#APP

	outl	%eax, %dx


	#NO_APP
	movw	$3324, %dx
	movl	%esi, %eax
	#APP

	outl	%eax, %dx


	#NO_APP
	movl	60(%esp), %ecx
	movzbl	(%ecx), %eax
	movl	%eax, 64(%esp)
	movl	20(%ecx), %eax
	movl	%eax, 8(%esp)
	movl	24(%ecx), %eax
	movl	%eax, 28(%esp)
	movl	$_str7453, %ecx
	.align	16, 0x90
LBB37_235:
	leal	1(%ecx), %esi
	movzbl	(%ecx), %eax
	testb	%al, %al
	js	LBB37_237
	movl	%esi, %ecx
	jmp	LBB37_250
	.align	16, 0x90
LBB37_237:
	movl	$_str7453+10, %edi
	cmpl	%edi, %esi
	je	LBB37_238
	movzbl	1(%ecx), %edx
	addl	$2, %ecx
	andl	$63, %edx
	movl	%ecx, %edi
	jmp	LBB37_240
LBB37_238:
	xorl	%edx, %edx
	movl	%esi, %ecx
LBB37_240:
	movl	%eax, %esi
	andl	$31, %esi
	cmpl	$224, %eax
	jb	LBB37_241
	xorl	%ebp, %ebp
	movl	$_str7453+10, %ebx
	cmpl	%ebx, %edi
	je	LBB37_244
	movzbl	(%edi), %ebp
	incl	%edi
	andl	$63, %ebp
	movl	%edi, %ecx
	movl	%edi, %ebx
LBB37_244:
	shll	$6, %edx
	orl	%ebp, %edx
	cmpl	$240, %eax
	jb	LBB37_245
	xorl	%eax, %eax
	movl	$_str7453+10, %esi
	cmpl	%esi, %ebx
	je	LBB37_248
	movzbl	(%ebx), %eax
	incl	%ebx
	andl	$63, %eax
	movl	%ebx, %ecx
LBB37_248:
	shll	$6, %edx
	orl	%eax, %edx
	jmp	LBB37_249
LBB37_241:
	shll	$6, %esi
	orl	%esi, %edx
	movl	%edx, %eax
	jmp	LBB37_250
LBB37_245:
	shll	$12, %esi
	orl	%esi, %edx
LBB37_249:
	movl	%edx, %eax
	movl	$_str6654+2, %ebp
	.align	16, 0x90
LBB37_250:
	movw	$1016, %dx
	#APP

	outb	%al, %dx


	#NO_APP
	movl	$_str7453+10, %eax
	cmpl	%eax, %ecx
	jne	LBB37_235
	movl	60(%esp), %ecx
	calll	__ZN6common5debug2dh20h857ba5a54e7b7d79roaE
	movl	$_str7455, %ecx
	.align	16, 0x90
LBB37_252:
	leal	1(%ecx), %esi
	movzbl	(%ecx), %eax
	testb	%al, %al
	js	LBB37_254
	movl	%esi, %ecx
	jmp	LBB37_267
	.align	16, 0x90
LBB37_254:
	movl	$_str7455+10, %edi
	cmpl	%edi, %esi
	je	LBB37_255
	movzbl	1(%ecx), %edx
	addl	$2, %ecx
	andl	$63, %edx
	movl	%ecx, %edi
	jmp	LBB37_257
LBB37_255:
	xorl	%edx, %edx
	movl	%esi, %ecx
LBB37_257:
	movl	%eax, %esi
	andl	$31, %esi
	cmpl	$224, %eax
	jb	LBB37_258
	xorl	%ebp, %ebp
	movl	$_str7455+10, %ebx
	cmpl	%ebx, %edi
	je	LBB37_261
	movzbl	(%edi), %ebp
	incl	%edi
	andl	$63, %ebp
	movl	%edi, %ecx
	movl	%edi, %ebx
LBB37_261:
	shll	$6, %edx
	orl	%ebp, %edx
	cmpl	$240, %eax
	jb	LBB37_262
	xorl	%eax, %eax
	movl	$_str7455+10, %esi
	cmpl	%esi, %ebx
	je	LBB37_265
	movzbl	(%ebx), %eax
	incl	%ebx
	andl	$63, %eax
	movl	%ebx, %ecx
LBB37_265:
	shll	$6, %edx
	orl	%eax, %edx
	jmp	LBB37_266
LBB37_258:
	shll	$6, %esi
	orl	%esi, %edx
	movl	%edx, %eax
	jmp	LBB37_267
LBB37_262:
	shll	$12, %esi
	orl	%esi, %edx
LBB37_266:
	movl	%edx, %eax
	movl	$_str6654+2, %ebp
	.align	16, 0x90
LBB37_267:
	movw	$1016, %dx
	#APP

	outb	%al, %dx


	#NO_APP
	movl	$_str7455+10, %eax
	cmpl	%eax, %ecx
	jne	LBB37_252
	movl	64(%esp), %ecx
	addl	60(%esp), %ecx
	movl	%ecx, 64(%esp)
	calll	__ZN6common5debug2dh20h857ba5a54e7b7d79roaE
	movl	$_str7457, %ecx
	.align	16, 0x90
LBB37_269:
	leal	1(%ecx), %esi
	movzbl	(%ecx), %eax
	testb	%al, %al
	js	LBB37_271
	movl	%esi, %ecx
	jmp	LBB37_284
	.align	16, 0x90
LBB37_271:
	movl	$_str7457+10, %edi
	cmpl	%edi, %esi
	je	LBB37_272
	movzbl	1(%ecx), %edx
	addl	$2, %ecx
	andl	$63, %edx
	movl	%ecx, %edi
	jmp	LBB37_274
LBB37_272:
	xorl	%edx, %edx
	movl	%esi, %ecx
LBB37_274:
	movl	%eax, %esi
	andl	$31, %esi
	cmpl	$224, %eax
	jb	LBB37_275
	xorl	%ebp, %ebp
	movl	$_str7457+10, %ebx
	cmpl	%ebx, %edi
	je	LBB37_278
	movzbl	(%edi), %ebp
	incl	%edi
	andl	$63, %ebp
	movl	%edi, %ecx
	movl	%edi, %ebx
LBB37_278:
	shll	$6, %edx
	orl	%ebp, %edx
	cmpl	$240, %eax
	jb	LBB37_279
	xorl	%eax, %eax
	movl	$_str7457+10, %esi
	cmpl	%esi, %ebx
	je	LBB37_282
	movzbl	(%ebx), %eax
	incl	%ebx
	andl	$63, %eax
	movl	%ebx, %ecx
LBB37_282:
	shll	$6, %edx
	orl	%eax, %edx
	jmp	LBB37_283
LBB37_275:
	shll	$6, %esi
	orl	%esi, %edx
	movl	%edx, %eax
	jmp	LBB37_284
LBB37_279:
	shll	$12, %esi
	orl	%esi, %edx
LBB37_283:
	movl	%edx, %eax
	movl	$_str6654+2, %ebp
	.align	16, 0x90
LBB37_284:
	movw	$1016, %dx
	#APP

	outb	%al, %dx


	#NO_APP
	movl	$_str7457+10, %eax
	cmpl	%eax, %ecx
	jne	LBB37_269
	movl	8(%esp), %ecx
	addl	60(%esp), %ecx
	movl	%ecx, 8(%esp)
	calll	__ZN6common5debug2dh20h857ba5a54e7b7d79roaE
	movl	$_str7459, %ecx
	.align	16, 0x90
LBB37_286:
	leal	1(%ecx), %esi
	movzbl	(%ecx), %eax
	testb	%al, %al
	js	LBB37_288
	movl	%esi, %ecx
	jmp	LBB37_301
	.align	16, 0x90
LBB37_288:
	movl	$_str7459+10, %edi
	cmpl	%edi, %esi
	je	LBB37_289
	movzbl	1(%ecx), %edx
	addl	$2, %ecx
	andl	$63, %edx
	movl	%ecx, %edi
	jmp	LBB37_291
LBB37_289:
	xorl	%edx, %edx
	movl	%esi, %ecx
LBB37_291:
	movl	%eax, %esi
	andl	$31, %esi
	cmpl	$224, %eax
	jb	LBB37_292
	xorl	%ebp, %ebp
	movl	$_str7459+10, %ebx
	cmpl	%ebx, %edi
	je	LBB37_295
	movzbl	(%edi), %ebp
	incl	%edi
	andl	$63, %ebp
	movl	%edi, %ecx
	movl	%edi, %ebx
LBB37_295:
	shll	$6, %edx
	orl	%ebp, %edx
	cmpl	$240, %eax
	jb	LBB37_296
	xorl	%eax, %eax
	movl	$_str7459+10, %esi
	cmpl	%esi, %ebx
	je	LBB37_299
	movzbl	(%ebx), %eax
	incl	%ebx
	andl	$63, %eax
	movl	%ebx, %ecx
LBB37_299:
	shll	$6, %edx
	orl	%eax, %edx
	jmp	LBB37_300
LBB37_292:
	shll	$6, %esi
	orl	%esi, %edx
	movl	%edx, %eax
	jmp	LBB37_301
LBB37_296:
	shll	$12, %esi
	orl	%esi, %edx
LBB37_300:
	movl	%edx, %eax
	movl	$_str6654+2, %ebp
	.align	16, 0x90
LBB37_301:
	movw	$1016, %dx
	#APP

	outb	%al, %dx


	#NO_APP
	movl	$_str7459+10, %eax
	cmpl	%eax, %ecx
	jne	LBB37_286
	movl	28(%esp), %ecx
	addl	60(%esp), %ecx
	movl	%ecx, 28(%esp)
	calll	__ZN6common5debug2dh20h857ba5a54e7b7d79roaE
	movb	$10, %al
	movw	$1016, %dx
	#APP

	outb	%al, %dx


	#NO_APP
	movl	$_str7462, %esi
	movl	$_str7464, %ecx
	movl	64(%esp), %eax
	testb	$8, 5(%eax)
	je	LBB37_303
	.align	16, 0x90
LBB37_323:
	leal	1(%esi), %ebx
	movzbl	(%esi), %eax
	testb	%al, %al
	js	LBB37_325
	movl	%ebx, %esi
	jmp	LBB37_338
	.align	16, 0x90
LBB37_325:
	movl	$_str7462+21, %edi
	cmpl	%edi, %ebx
	je	LBB37_326
	movzbl	1(%esi), %edx
	addl	$2, %esi
	andl	$63, %edx
	movl	%esi, %edi
	jmp	LBB37_328
LBB37_326:
	xorl	%edx, %edx
	movl	%ebx, %esi
LBB37_328:
	movl	%eax, %ebx
	andl	$31, %ebx
	cmpl	$224, %eax
	jb	LBB37_329
	movl	$_str7462+21, %ebp
	cmpl	%ebp, %edi
	movl	$0, %ebp
	movl	$_str7462+21, 68(%esp)
	je	LBB37_332
	movzbl	(%edi), %ebp
	incl	%edi
	andl	$63, %ebp
	movl	%edi, %esi
	movl	%edi, 68(%esp)
LBB37_332:
	shll	$6, %edx
	orl	%ebp, %edx
	cmpl	$240, %eax
	jb	LBB37_333
	xorl	%eax, %eax
	movl	$_str7462+21, %edi
	movl	68(%esp), %ebx
	cmpl	%edi, %ebx
	movl	%ebx, %edi
	je	LBB37_336
	movzbl	(%edi), %eax
	incl	%edi
	andl	$63, %eax
	movl	%edi, %esi
LBB37_336:
	shll	$6, %edx
	orl	%eax, %edx
	jmp	LBB37_337
LBB37_329:
	shll	$6, %ebx
	orl	%ebx, %edx
	movl	%edx, %eax
	jmp	LBB37_338
LBB37_333:
	shll	$12, %ebx
	orl	%ebx, %edx
LBB37_337:
	movl	%edx, %eax
	movl	$_str6654+2, %ebp
	.align	16, 0x90
LBB37_338:
	movw	$1016, %dx
	#APP

	outb	%al, %dx


	#NO_APP
	movl	$_str7462+21, %eax
	cmpl	%eax, %esi
	jne	LBB37_323
	movl	64(%esp), %eax
	testb	$8, 5(%eax)
	movl	$_str7462, %esi
	jne	LBB37_323
	.align	16, 0x90
LBB37_303:
	leal	1(%ecx), %esi
	movzbl	(%ecx), %eax
	testb	%al, %al
	js	LBB37_305
	movl	%esi, %ecx
	jmp	LBB37_318
	.align	16, 0x90
LBB37_305:
	movl	$_str7464+17, %edi
	cmpl	%edi, %esi
	je	LBB37_306
	movzbl	1(%ecx), %edx
	addl	$2, %ecx
	andl	$63, %edx
	movl	%ecx, %edi
	jmp	LBB37_308
LBB37_306:
	xorl	%edx, %edx
	movl	%esi, %ecx
LBB37_308:
	movl	%eax, %esi
	andl	$31, %esi
	cmpl	$224, %eax
	jb	LBB37_309
	xorl	%ebp, %ebp
	movl	$_str7464+17, %ebx
	cmpl	%ebx, %edi
	je	LBB37_312
	movzbl	(%edi), %ebp
	incl	%edi
	andl	$63, %ebp
	movl	%edi, %ecx
	movl	%edi, %ebx
LBB37_312:
	shll	$6, %edx
	orl	%ebp, %edx
	cmpl	$240, %eax
	jb	LBB37_313
	xorl	%eax, %eax
	movl	$_str7464+17, %esi
	cmpl	%esi, %ebx
	je	LBB37_316
	movzbl	(%ebx), %eax
	incl	%ebx
	andl	$63, %eax
	movl	%ebx, %ecx
LBB37_316:
	shll	$6, %edx
	orl	%eax, %edx
	jmp	LBB37_317
LBB37_309:
	shll	$6, %esi
	orl	%esi, %edx
	movl	%edx, %eax
	jmp	LBB37_318
LBB37_313:
	shll	$12, %esi
	orl	%esi, %edx
LBB37_317:
	movl	%edx, %eax
	movl	$_str6654+2, %ebp
	.align	16, 0x90
LBB37_318:
	movw	$1016, %dx
	#APP

	outb	%al, %dx


	#NO_APP
	movl	$_str7464+17, %eax
	cmpl	%eax, %ecx
	jne	LBB37_303
	movl	64(%esp), %edi
	movl	4(%edi), %ecx
	calll	__ZN6common5debug2dh20h857ba5a54e7b7d79roaE
	movb	$10, %al
	movw	$1016, %dx
	#APP

	outb	%al, %dx


	#NO_APP
	andb	$-2, (%edi)
	movl	$_str7469, %ecx
	movl	$_str7467, %esi
	testb	$1, 4(%edi)
	jne	LBB37_320
	.align	16, 0x90
LBB37_424:
	leal	1(%esi), %ebx
	movzbl	(%esi), %eax
	testb	%al, %al
	js	LBB37_426
	movl	%ebx, %esi
	jmp	LBB37_439
	.align	16, 0x90
LBB37_426:
	movl	$_str7467+18, %edi
	cmpl	%edi, %ebx
	je	LBB37_427
	movzbl	1(%esi), %edx
	addl	$2, %esi
	andl	$63, %edx
	movl	%esi, %edi
	jmp	LBB37_429
LBB37_427:
	xorl	%edx, %edx
	movl	%ebx, %esi
LBB37_429:
	movl	%eax, %ebx
	andl	$31, %ebx
	cmpl	$224, %eax
	jb	LBB37_430
	movl	$_str7467+18, %ebp
	cmpl	%ebp, %edi
	movl	$0, %ebp
	movl	$_str7467+18, 68(%esp)
	je	LBB37_433
	movzbl	(%edi), %ebp
	incl	%edi
	andl	$63, %ebp
	movl	%edi, %esi
	movl	%edi, 68(%esp)
LBB37_433:
	shll	$6, %edx
	orl	%ebp, %edx
	cmpl	$240, %eax
	jb	LBB37_434
	xorl	%eax, %eax
	movl	$_str7467+18, %edi
	movl	68(%esp), %ebx
	cmpl	%edi, %ebx
	movl	%ebx, %edi
	je	LBB37_437
	movzbl	(%edi), %eax
	incl	%edi
	andl	$63, %eax
	movl	%edi, %esi
LBB37_437:
	shll	$6, %edx
	orl	%eax, %edx
	jmp	LBB37_438
LBB37_430:
	shll	$6, %ebx
	orl	%ebx, %edx
	movl	%edx, %eax
	jmp	LBB37_439
LBB37_434:
	shll	$12, %ebx
	orl	%ebx, %edx
LBB37_438:
	movl	%edx, %eax
	movl	$_str6654+2, %ebp
	.align	16, 0x90
LBB37_439:
	movw	$1016, %dx
	#APP

	outb	%al, %dx


	#NO_APP
	movl	$_str7467+18, %eax
	cmpl	%eax, %esi
	jne	LBB37_424
	movl	64(%esp), %eax
	testb	$1, 4(%eax)
	movl	$_str7467, %esi
	je	LBB37_424
	.align	16, 0x90
LBB37_320:
	leal	1(%ecx), %esi
	movzbl	(%ecx), %eax
	testb	%al, %al
	js	LBB37_339
	movl	%esi, %ecx
	jmp	LBB37_352
	.align	16, 0x90
LBB37_339:
	movl	$_str7469+14, %edi
	cmpl	%edi, %esi
	je	LBB37_340
	movzbl	1(%ecx), %edx
	addl	$2, %ecx
	andl	$63, %edx
	movl	%ecx, %edi
	jmp	LBB37_342
LBB37_340:
	xorl	%edx, %edx
	movl	%esi, %ecx
LBB37_342:
	movl	%eax, %esi
	andl	$31, %esi
	cmpl	$224, %eax
	jb	LBB37_343
	xorl	%ebp, %ebp
	movl	$_str7469+14, %ebx
	cmpl	%ebx, %edi
	je	LBB37_346
	movzbl	(%edi), %ebp
	incl	%edi
	andl	$63, %ebp
	movl	%edi, %ecx
	movl	%edi, %ebx
LBB37_346:
	shll	$6, %edx
	orl	%ebp, %edx
	cmpl	$240, %eax
	jb	LBB37_347
	xorl	%eax, %eax
	movl	$_str7469+14, %esi
	cmpl	%esi, %ebx
	je	LBB37_350
	movzbl	(%ebx), %eax
	incl	%ebx
	andl	$63, %eax
	movl	%ebx, %ecx
LBB37_350:
	shll	$6, %edx
	orl	%eax, %edx
	jmp	LBB37_351
LBB37_343:
	shll	$6, %esi
	orl	%esi, %edx
	movl	%edx, %eax
	jmp	LBB37_352
LBB37_347:
	shll	$12, %esi
	orl	%esi, %edx
LBB37_351:
	movl	%edx, %eax
	movl	$_str6654+2, %ebp
	.align	16, 0x90
LBB37_352:
	movw	$1016, %dx
	#APP

	outb	%al, %dx


	#NO_APP
	movl	$_str7469+14, %eax
	cmpl	%eax, %ecx
	jne	LBB37_320
	movl	64(%esp), %eax
	movl	(%eax), %ecx
	calll	__ZN6common5debug2dh20h857ba5a54e7b7d79roaE
	movb	$10, %al
	movw	$1016, %dx
	#APP

	outb	%al, %dx


	#NO_APP
	movl	60(%esp), %eax
	movl	4(%eax), %eax
	movl	%eax, 52(%esp)
	movl	$_str7471, %ecx
	.align	16, 0x90
LBB37_354:
	leal	1(%ecx), %esi
	movzbl	(%ecx), %eax
	testb	%al, %al
	js	LBB37_356
	movl	%esi, %ecx
	jmp	LBB37_369
	.align	16, 0x90
LBB37_356:
	movl	$_str7471+10, %edi
	cmpl	%edi, %esi
	je	LBB37_357
	movzbl	1(%ecx), %edx
	addl	$2, %ecx
	andl	$63, %edx
	movl	%ecx, %edi
	jmp	LBB37_359
LBB37_357:
	xorl	%edx, %edx
	movl	%esi, %ecx
LBB37_359:
	movl	%eax, %esi
	andl	$31, %esi
	cmpl	$224, %eax
	jb	LBB37_360
	xorl	%ebp, %ebp
	movl	$_str7471+10, %ebx
	cmpl	%ebx, %edi
	je	LBB37_363
	movzbl	(%edi), %ebp
	incl	%edi
	andl	$63, %ebp
	movl	%edi, %ecx
	movl	%edi, %ebx
LBB37_363:
	shll	$6, %edx
	orl	%ebp, %edx
	cmpl	$240, %eax
	jb	LBB37_364
	xorl	%eax, %eax
	movl	$_str7471+10, %esi
	cmpl	%esi, %ebx
	je	LBB37_367
	movzbl	(%ebx), %eax
	incl	%ebx
	andl	$63, %eax
	movl	%ebx, %ecx
LBB37_367:
	shll	$6, %edx
	orl	%eax, %edx
	jmp	LBB37_368
LBB37_360:
	shll	$6, %esi
	orl	%esi, %edx
	movl	%edx, %eax
	jmp	LBB37_369
LBB37_364:
	shll	$12, %esi
	orl	%esi, %edx
LBB37_368:
	movl	%edx, %eax
	movl	$_str6654+2, %ebp
	.align	16, 0x90
LBB37_369:
	movw	$1016, %dx
	#APP

	outb	%al, %dx


	#NO_APP
	movl	$_str7471+10, %eax
	cmpl	%eax, %ecx
	jne	LBB37_354
	movl	52(%esp), %eax
	movzbl	%al, %ecx
	movl	%ecx, 68(%esp)
	calll	__ZN6common5debug2dd20h67ae0f1b7d732e10SoaE
	movb	$10, %al
	movw	$1016, %dx
	#APP

	outb	%al, %dx


	#NO_APP
	movl	$_str7473, %ecx
	.align	16, 0x90
LBB37_371:
	leal	1(%ecx), %esi
	movzbl	(%ecx), %eax
	testb	%al, %al
	js	LBB37_373
	movl	%esi, %ecx
	jmp	LBB37_386
	.align	16, 0x90
LBB37_373:
	movl	$_str7473+10, %edi
	cmpl	%edi, %esi
	je	LBB37_374
	movzbl	1(%ecx), %edx
	addl	$2, %ecx
	andl	$63, %edx
	movl	%ecx, %edi
	jmp	LBB37_376
LBB37_374:
	xorl	%edx, %edx
	movl	%esi, %ecx
LBB37_376:
	movl	%eax, %ebx
	andl	$31, %ebx
	cmpl	$224, %eax
	jb	LBB37_377
	xorl	%esi, %esi
	movl	$_str7473+10, %ebp
	cmpl	%ebp, %edi
	je	LBB37_380
	movzbl	(%edi), %esi
	incl	%edi
	andl	$63, %esi
	movl	%edi, %ecx
	movl	%edi, %ebp
LBB37_380:
	shll	$6, %edx
	orl	%esi, %edx
	cmpl	$240, %eax
	jb	LBB37_381
	xorl	%eax, %eax
	movl	$_str7473+10, %esi
	cmpl	%esi, %ebp
	je	LBB37_384
	movzbl	(%ebp), %eax
	incl	%ebp
	andl	$63, %eax
	movl	%ebp, %ecx
LBB37_384:
	shll	$6, %edx
	orl	%eax, %edx
	jmp	LBB37_385
LBB37_377:
	shll	$6, %ebx
	orl	%ebx, %edx
	movl	%edx, %eax
	jmp	LBB37_386
LBB37_381:
	shll	$12, %ebx
	orl	%ebx, %edx
LBB37_385:
	movl	%edx, %eax
	movl	$_str6654+2, %ebp
	.align	16, 0x90
LBB37_386:
	movw	$1016, %dx
	#APP

	outb	%al, %dx


	#NO_APP
	movl	$_str7473+10, %eax
	cmpl	%eax, %ecx
	jne	LBB37_371
	movl	52(%esp), %ecx
	shrl	$24, %ecx
	movl	%ecx, 52(%esp)
	calll	__ZN6common5debug2dd20h67ae0f1b7d732e10SoaE
	movb	$10, %al
	movw	$1016, %dx
	#APP

	outb	%al, %dx


	#NO_APP
	movl	64(%esp), %eax
	movl	68(%esp), %ecx
	movl	%ecx, 56(%eax)
	movl	$_str7476, %ecx
	.align	16, 0x90
LBB37_388:
	leal	1(%ecx), %esi
	movzbl	(%ecx), %eax
	testb	%al, %al
	js	LBB37_390
	movl	%esi, %ecx
	jmp	LBB37_403
	.align	16, 0x90
LBB37_390:
	movl	$_str7476+14, %edi
	cmpl	%edi, %esi
	je	LBB37_391
	movzbl	1(%ecx), %edx
	addl	$2, %ecx
	andl	$63, %edx
	movl	%ecx, %edi
	jmp	LBB37_393
LBB37_391:
	xorl	%edx, %edx
	movl	%esi, %ecx
LBB37_393:
	movl	%eax, %ebx
	andl	$31, %ebx
	cmpl	$224, %eax
	jb	LBB37_394
	xorl	%esi, %esi
	movl	$_str7476+14, %ebp
	cmpl	%ebp, %edi
	je	LBB37_397
	movzbl	(%edi), %esi
	incl	%edi
	andl	$63, %esi
	movl	%edi, %ecx
	movl	%edi, %ebp
LBB37_397:
	shll	$6, %edx
	orl	%esi, %edx
	cmpl	$240, %eax
	jb	LBB37_398
	xorl	%eax, %eax
	movl	$_str7476+14, %esi
	cmpl	%esi, %ebp
	je	LBB37_401
	movzbl	(%ebp), %eax
	incl	%ebp
	andl	$63, %eax
	movl	%ebp, %ecx
LBB37_401:
	shll	$6, %edx
	orl	%eax, %edx
	jmp	LBB37_402
LBB37_394:
	shll	$6, %ebx
	orl	%ebx, %edx
	movl	%edx, %eax
	jmp	LBB37_403
LBB37_398:
	shll	$12, %ebx
	orl	%ebx, %edx
LBB37_402:
	movl	%edx, %eax
	movl	$_str6654+2, %ebp
	.align	16, 0x90
LBB37_403:
	movw	$1016, %dx
	#APP

	outb	%al, %dx


	#NO_APP
	movl	$_str7476+14, %eax
	cmpl	%eax, %ecx
	jne	LBB37_388
	movl	64(%esp), %eax
	movl	56(%eax), %ecx
	calll	__ZN6common5debug2dd20h67ae0f1b7d732e10SoaE
	movb	$10, %al
	movw	$1016, %dx
	#APP

	outb	%al, %dx


	#NO_APP
	xorl	%eax, %eax
	movl	68(%esp), %ecx
	testl	%ecx, %ecx
	je	LBB37_420
	leal	(,%ecx,8), %ecx
	movl	%ecx, 60(%esp)
	xorl	%edx, %edx
	xorl	%ecx, %ecx
LBB37_406:
	leal	7344128(,%eax,4), %esi
	.align	16, 0x90
LBB37_407:
	movl	%edx, %ebx
	movl	%eax, %edi
	cmpl	$1048575, %edi
	ja	LBB37_410
	leal	1(%edi), %eax
	xorl	%edx, %edx
	cmpl	$0, (%esi)
	leal	4(%esi), %esi
	jne	LBB37_407
	testl	%ebx, %ebx
	cmovel	%edi, %ecx
	incl	%ebx
	movl	%ebx, %edx
	shll	$12, %edx
	cmpl	60(%esp), %edx
	movl	%ebx, %edx
	jbe	LBB37_406
LBB37_410:
	movl	%ebx, %eax
	shll	$12, %eax
	xorl	%edx, %edx
	cmpl	60(%esp), %eax
	movl	$0, %eax
	jbe	LBB37_415
	movl	%ecx, %eax
	shll	$12, %eax
	addl	$11538432, %eax
	leal	(%ecx,%ebx), %esi
	cmpl	%esi, %ecx
	jae	LBB37_415
	leal	7344128(,%ecx,4), %edi
	.align	16, 0x90
LBB37_413:
	cmpl	$1048576, %ecx
	jae	LBB37_414
	movl	%eax, (%edi)
LBB37_414:
	incl	%ecx
	addl	$4, %edi
	decl	%ebx
	jne	LBB37_413
	.align	16, 0x90
LBB37_415:
	movl	%edx, %ecx
	leal	1(%ecx), %edx
	movl	$-1, %edi
	movl	$7344128, %ebx
	.align	16, 0x90
LBB37_416:
	movl	%ebx, %esi
	incl	%edi
	xorl	%ebx, %ebx
	cmpl	$1048575, %edi
	ja	LBB37_419
	leal	4(%esi), %ebx
	cmpl	$0, (%esi)
	jne	LBB37_416
	shll	$12, %edi
	addl	$11538432, %edi
	movl	%edi, (%esi)
	movl	%edi, %ebx
LBB37_419:
	movl	%ebx, (%eax,%ecx,8)
	movl	$0, 4(%eax,%ecx,8)
	cmpl	68(%esp), %edx
	jne	LBB37_415
LBB37_420:
	movl	64(%esp), %ecx
	movl	%eax, 48(%ecx)
	movl	$0, 52(%ecx)
	movl	$_str7478, %ecx
	.align	16, 0x90
LBB37_421:
	leal	1(%ecx), %esi
	movzbl	(%ecx), %eax
	testb	%al, %al
	js	LBB37_440
	movl	%esi, %ecx
	jmp	LBB37_453
	.align	16, 0x90
LBB37_440:
	movl	$_str7478+38, %edi
	cmpl	%edi, %esi
	je	LBB37_441
	movzbl	1(%ecx), %edx
	addl	$2, %ecx
	andl	$63, %edx
	movl	%ecx, %edi
	jmp	LBB37_443
LBB37_441:
	xorl	%edx, %edx
	movl	%esi, %ecx
LBB37_443:
	movl	%eax, %esi
	andl	$31, %esi
	cmpl	$224, %eax
	jb	LBB37_444
	xorl	%ebp, %ebp
	movl	$_str7478+38, %ebx
	cmpl	%ebx, %edi
	je	LBB37_447
	movzbl	(%edi), %ebp
	incl	%edi
	andl	$63, %ebp
	movl	%edi, %ecx
	movl	%edi, %ebx
LBB37_447:
	shll	$6, %edx
	orl	%ebp, %edx
	cmpl	$240, %eax
	jb	LBB37_448
	xorl	%eax, %eax
	movl	$_str7478+38, %esi
	cmpl	%esi, %ebx
	je	LBB37_451
	movzbl	(%ebx), %eax
	incl	%ebx
	andl	$63, %eax
	movl	%ebx, %ecx
LBB37_451:
	shll	$6, %edx
	orl	%eax, %edx
	jmp	LBB37_452
LBB37_444:
	shll	$6, %esi
	orl	%esi, %edx
	movl	%edx, %eax
	jmp	LBB37_453
LBB37_448:
	shll	$12, %esi
	orl	%esi, %edx
LBB37_452:
	movl	%edx, %eax
	movl	$_str6654+2, %ebp
	.align	16, 0x90
LBB37_453:
	movw	$1016, %dx
	#APP

	outb	%al, %dx


	#NO_APP
	movl	$_str7478+38, %eax
	cmpl	%eax, %ecx
	jne	LBB37_421
	movl	64(%esp), %eax
	movl	48(%eax), %ecx
	calll	__ZN6common5debug2dh20h857ba5a54e7b7d79roaE
	movb	$10, %al
	movw	$1016, %dx
	#APP

	outb	%al, %dx


	#NO_APP
	xorl	%ecx, %ecx
	xorl	%esi, %esi
	xorl	%eax, %eax
LBB37_455:
	leal	7344128(,%ecx,4), %edi
	.align	16, 0x90
LBB37_456:
	movl	%esi, %edx
	movl	%ecx, %ebx
	cmpl	$1048575, %ebx
	ja	LBB37_459
	leal	1(%ebx), %ecx
	xorl	%esi, %esi
	cmpl	$0, (%edi)
	leal	4(%edi), %edi
	jne	LBB37_456
	testl	%edx, %edx
	cmovel	%ebx, %eax
	incl	%edx
	movl	%edx, %esi
	andl	$1048575, %esi
	cmpl	$2, %esi
	movl	%edx, %esi
	jb	LBB37_455
LBB37_459:
	movl	%edx, %ecx
	andl	$1048575, %ecx
	xorl	%esi, %esi
	cmpl	$2, %ecx
	movl	$0, 56(%esp)
	jb	LBB37_466
	movl	%eax, %ecx
	shll	$12, %ecx
	addl	$11538432, %ecx
	movl	%ecx, 56(%esp)
	leal	(%eax,%edx), %ecx
	cmpl	%ecx, %eax
	jae	LBB37_466
	leal	7344128(,%eax,4), %esi
	.align	16, 0x90
LBB37_462:
	cmpl	$1048576, %eax
	jae	LBB37_463
	movl	56(%esp), %ecx
	movl	%ecx, (%esi)
LBB37_463:
	incl	%eax
	addl	$4, %esi
	decl	%edx
	jne	LBB37_462
	xorl	%esi, %esi
	.align	16, 0x90
LBB37_466:
	movl	%esi, 68(%esp)
	movl	%esi, %eax
	shll	$4, %eax
	movl	56(%esp), %ecx
	movl	$0, 4(%ecx,%eax)
	movl	$0, (%ecx,%eax)
	movl	$0, 12(%ecx,%eax)
	movl	$0, 8(%ecx,%eax)
	movl	$_str7023, %esi
	.align	16, 0x90
LBB37_467:
	leal	1(%esi), %ecx
	movzbl	(%esi), %eax
	testb	%al, %al
	js	LBB37_469
	movl	%ecx, %esi
	jmp	LBB37_482
	.align	16, 0x90
LBB37_469:
	movl	$_str7023+1, %edi
	cmpl	%edi, %ecx
	je	LBB37_470
	movzbl	1(%esi), %edx
	addl	$2, %esi
	andl	$63, %edx
	movl	%esi, %edi
	jmp	LBB37_472
LBB37_470:
	xorl	%edx, %edx
	movl	%ecx, %esi
LBB37_472:
	movl	%eax, %ebx
	andl	$31, %ebx
	cmpl	$224, %eax
	jb	LBB37_473
	xorl	%ecx, %ecx
	movl	$_str7023+1, %ebp
	cmpl	%ebp, %edi
	je	LBB37_476
	movzbl	(%edi), %ecx
	incl	%edi
	andl	$63, %ecx
	movl	%edi, %esi
	movl	%edi, %ebp
LBB37_476:
	shll	$6, %edx
	orl	%ecx, %edx
	cmpl	$240, %eax
	jb	LBB37_477
	xorl	%eax, %eax
	movl	$_str7023+1, %ecx
	cmpl	%ecx, %ebp
	je	LBB37_480
	movzbl	(%ebp), %eax
	incl	%ebp
	andl	$63, %eax
	movl	%ebp, %esi
LBB37_480:
	shll	$6, %edx
	orl	%eax, %edx
	jmp	LBB37_481
LBB37_473:
	shll	$6, %ebx
	orl	%ebx, %edx
	movl	%edx, %eax
	jmp	LBB37_482
LBB37_477:
	shll	$12, %ebx
	orl	%ebx, %edx
LBB37_481:
	movl	%edx, %eax
	movl	$_str6654+2, %ebp
	.align	16, 0x90
LBB37_482:
	movw	$1016, %dx
	#APP

	outb	%al, %dx


	#NO_APP
	movl	$_str7023+1, %eax
	cmpl	%eax, %esi
	jne	LBB37_467
	movl	68(%esp), %esi
	incl	%esi
	cmpl	$256, %esi
	jne	LBB37_466
	movb	$10, %al
	movw	$1016, %dx
	#APP

	outb	%al, %dx


	#NO_APP
	movl	64(%esp), %eax
	movl	56(%esp), %ecx
	movl	%ecx, 24(%eax)
	movl	$0, 28(%eax)
	movl	$_str7480, %ecx
	.align	16, 0x90
LBB37_484:
	leal	1(%ecx), %esi
	movzbl	(%ecx), %eax
	testb	%al, %al
	js	LBB37_486
	movl	%esi, %ecx
	jmp	LBB37_499
	.align	16, 0x90
LBB37_486:
	movl	$_str7480+33, %edi
	cmpl	%edi, %esi
	je	LBB37_487
	movzbl	1(%ecx), %edx
	addl	$2, %ecx
	andl	$63, %edx
	movl	%ecx, %edi
	jmp	LBB37_489
LBB37_487:
	xorl	%edx, %edx
	movl	%esi, %ecx
LBB37_489:
	movl	%eax, %esi
	andl	$31, %esi
	cmpl	$224, %eax
	jb	LBB37_490
	xorl	%ebp, %ebp
	movl	$_str7480+33, %ebx
	cmpl	%ebx, %edi
	je	LBB37_493
	movzbl	(%edi), %ebp
	incl	%edi
	andl	$63, %ebp
	movl	%edi, %ecx
	movl	%edi, %ebx
LBB37_493:
	shll	$6, %edx
	orl	%ebp, %edx
	cmpl	$240, %eax
	jb	LBB37_494
	xorl	%eax, %eax
	movl	$_str7480+33, %esi
	cmpl	%esi, %ebx
	je	LBB37_497
	movzbl	(%ebx), %eax
	incl	%ebx
	andl	$63, %eax
	movl	%ebx, %ecx
LBB37_497:
	shll	$6, %edx
	orl	%eax, %edx
	jmp	LBB37_498
LBB37_490:
	shll	$6, %esi
	orl	%esi, %edx
	movl	%edx, %eax
	jmp	LBB37_499
LBB37_494:
	shll	$12, %esi
	orl	%esi, %edx
LBB37_498:
	movl	%edx, %eax
	movl	$_str6654+2, %ebp
	.align	16, 0x90
LBB37_499:
	movw	$1016, %dx
	#APP

	outb	%al, %dx


	#NO_APP
	movl	$_str7480+33, %eax
	cmpl	%eax, %ecx
	jne	LBB37_484
	movl	64(%esp), %eax
	movl	24(%eax), %ecx
	calll	__ZN6common5debug2dh20h857ba5a54e7b7d79roaE
	movb	$10, %al
	movw	$1016, %dx
	#APP

	outb	%al, %dx


	#NO_APP
	movl	$-1, %esi
	movl	$7344128, %ecx
	.align	16, 0x90
LBB37_501:
	movl	%ecx, %eax
	incl	%esi
	xorl	%edx, %edx
	cmpl	$1048575, %esi
	ja	LBB37_502
	leal	4(%eax), %ecx
	cmpl	$0, (%eax)
	jne	LBB37_501
	shll	$12, %esi
	addl	$11538432, %esi
	movl	%esi, (%eax)
	jmp	LBB37_505
LBB37_502:
	xorl	%esi, %esi
LBB37_505:
	movl	%esi, 60(%esp)
	movl	$0, 12(%esi)
	movl	$256, 8(%esi)
	xorl	%esi, %esi
	xorl	%eax, %eax
LBB37_506:
	leal	7344128(,%edx,4), %edi
	.align	16, 0x90
LBB37_507:
	movl	%esi, %ecx
	movl	%edx, %ebx
	cmpl	$1048575, %ebx
	ja	LBB37_510
	leal	1(%ebx), %edx
	xorl	%esi, %esi
	cmpl	$0, (%edi)
	leal	4(%edi), %edi
	jne	LBB37_507
	testl	%ecx, %ecx
	cmovel	%ebx, %eax
	incl	%ecx
	movl	%ecx, %esi
	andl	$1048575, %esi
	cmpl	$2, %esi
	movl	%ecx, %esi
	jb	LBB37_506
LBB37_510:
	movl	%ecx, %esi
	andl	$1048575, %esi
	xorl	%edx, %edx
	cmpl	$2, %esi
	jb	LBB37_520
	movl	%eax, %edx
	shll	$12, %edx
	addl	$11538432, %edx
	leal	(%eax,%ecx), %esi
	cmpl	%esi, %eax
	jae	LBB37_520
	leal	7344128(,%eax,4), %esi
	.align	16, 0x90
LBB37_513:
	cmpl	$1048576, %eax
	jae	LBB37_514
	movl	%edx, (%esi)
LBB37_514:
	incl	%eax
	addl	$4, %esi
	decl	%ecx
	jne	LBB37_513
	movl	60(%esp), %esi
	movl	8(%esi), %eax
	movl	%eax, 44(%esp)
	movl	%edx, (%esi)
	movl	$0, 4(%esi)
	testl	%eax, %eax
	jg	LBB37_521
	jmp	LBB37_516
LBB37_520:
	movl	60(%esp), %esi
	movl	%edx, (%esi)
	movl	$0, 4(%esi)
	movl	$256, 44(%esp)
LBB37_521:
	movl	%esi, 60(%esp)
	xorl	%ecx, %ecx
	jmp	LBB37_524
	.align	16, 0x90
LBB37_523:
	movl	(%esi), %edx
LBB37_524:
	movl	%ecx, 68(%esp)
	movl	%ecx, %eax
	shll	$4, %eax
	movl	$0, 4(%edx,%eax)
	movl	$0, (%edx,%eax)
	movl	$0, 12(%edx,%eax)
	movl	$0, 8(%edx,%eax)
	calll	__ZN6common5debug2dd20h67ae0f1b7d732e10SoaE
	movl	$_str7060, %ecx
	.align	16, 0x90
LBB37_525:
	leal	1(%ecx), %esi
	movzbl	(%ecx), %eax
	testb	%al, %al
	js	LBB37_527
	movl	%esi, %ecx
	jmp	LBB37_540
	.align	16, 0x90
LBB37_527:
	movl	$_str7060+1, %edi
	cmpl	%edi, %esi
	je	LBB37_528
	movzbl	1(%ecx), %edx
	addl	$2, %ecx
	andl	$63, %edx
	movl	%ecx, %edi
	jmp	LBB37_530
LBB37_528:
	xorl	%edx, %edx
	movl	%esi, %ecx
LBB37_530:
	movl	%eax, %ebx
	andl	$31, %ebx
	cmpl	$224, %eax
	jb	LBB37_531
	xorl	%esi, %esi
	movl	$_str7060+1, %ebp
	cmpl	%ebp, %edi
	je	LBB37_534
	movzbl	(%edi), %esi
	incl	%edi
	andl	$63, %esi
	movl	%edi, %ecx
	movl	%edi, %ebp
LBB37_534:
	shll	$6, %edx
	orl	%esi, %edx
	cmpl	$240, %eax
	jb	LBB37_535
	xorl	%eax, %eax
	movl	$_str7060+1, %esi
	cmpl	%esi, %ebp
	je	LBB37_538
	movzbl	(%ebp), %eax
	incl	%ebp
	andl	$63, %eax
	movl	%ebp, %ecx
LBB37_538:
	shll	$6, %edx
	orl	%eax, %edx
	jmp	LBB37_539
LBB37_531:
	shll	$6, %ebx
	orl	%ebx, %edx
	movl	%edx, %eax
	jmp	LBB37_540
LBB37_535:
	shll	$12, %ebx
	orl	%ebx, %edx
LBB37_539:
	movl	%edx, %eax
	movl	$_str6654+2, %ebp
	.align	16, 0x90
LBB37_540:
	movw	$1016, %dx
	#APP

	outb	%al, %dx


	#NO_APP
	movl	$_str7060+1, %eax
	cmpl	%eax, %ecx
	jne	LBB37_525
	movl	68(%esp), %ecx
	incl	%ecx
	cmpl	44(%esp), %ecx
	movl	60(%esp), %esi
	jne	LBB37_523
LBB37_516:
	movb	$10, %al
	movw	$1016, %dx
	#APP

	outb	%al, %dx


	#NO_APP
	movl	(%esi), %eax
	movl	4(%esi), %ecx
	movl	28(%esp), %edx
	movl	$1, 40(%edx)
	movl	%ecx, 60(%edx)
	movl	%eax, 56(%edx)
	movl	%esi, 48(%edx)
	movl	$0, 52(%edx)
	movl	$_str7483, %ecx
	.align	16, 0x90
LBB37_517:
	leal	1(%ecx), %esi
	movzbl	(%ecx), %eax
	testb	%al, %al
	js	LBB37_541
	movl	%esi, %ecx
	jmp	LBB37_554
	.align	16, 0x90
LBB37_541:
	movl	$_str7483+29, %edi
	cmpl	%edi, %esi
	je	LBB37_542
	movzbl	1(%ecx), %edx
	addl	$2, %ecx
	andl	$63, %edx
	movl	%ecx, %edi
	jmp	LBB37_544
LBB37_542:
	xorl	%edx, %edx
	movl	%esi, %ecx
LBB37_544:
	movl	%eax, %esi
	andl	$31, %esi
	cmpl	$224, %eax
	jb	LBB37_545
	xorl	%ebp, %ebp
	movl	$_str7483+29, %ebx
	cmpl	%ebx, %edi
	je	LBB37_548
	movzbl	(%edi), %ebp
	incl	%edi
	andl	$63, %ebp
	movl	%edi, %ecx
	movl	%edi, %ebx
LBB37_548:
	shll	$6, %edx
	orl	%ebp, %edx
	cmpl	$240, %eax
	jb	LBB37_549
	xorl	%eax, %eax
	movl	$_str7483+29, %esi
	cmpl	%esi, %ebx
	je	LBB37_552
	movzbl	(%ebx), %eax
	incl	%ebx
	andl	$63, %eax
	movl	%ebx, %ecx
LBB37_552:
	shll	$6, %edx
	orl	%eax, %edx
	jmp	LBB37_553
LBB37_545:
	shll	$6, %esi
	orl	%esi, %edx
	movl	%edx, %eax
	jmp	LBB37_554
LBB37_549:
	shll	$12, %esi
	orl	%esi, %edx
LBB37_553:
	movl	%edx, %eax
	movl	$_str6654+2, %ebp
	.align	16, 0x90
LBB37_554:
	movw	$1016, %dx
	#APP

	outb	%al, %dx


	#NO_APP
	movl	$_str7483+29, %eax
	cmpl	%eax, %ecx
	jne	LBB37_517
	movl	28(%esp), %eax
	movl	48(%eax), %ecx
	calll	__ZN6common5debug2dh20h857ba5a54e7b7d79roaE
	movl	$_str7060, %ecx
	.align	16, 0x90
LBB37_556:
	leal	1(%ecx), %esi
	movzbl	(%ecx), %eax
	testb	%al, %al
	js	LBB37_558
	movl	%esi, %ecx
	jmp	LBB37_571
	.align	16, 0x90
LBB37_558:
	movl	$_str7060+1, %edi
	cmpl	%edi, %esi
	je	LBB37_559
	movzbl	1(%ecx), %edx
	addl	$2, %ecx
	andl	$63, %edx
	movl	%ecx, %edi
	jmp	LBB37_561
LBB37_559:
	xorl	%edx, %edx
	movl	%esi, %ecx
LBB37_561:
	movl	%eax, %esi
	andl	$31, %esi
	cmpl	$224, %eax
	jb	LBB37_562
	xorl	%ebp, %ebp
	movl	$_str7060+1, %ebx
	cmpl	%ebx, %edi
	je	LBB37_565
	movzbl	(%edi), %ebp
	incl	%edi
	andl	$63, %ebp
	movl	%edi, %ecx
	movl	%edi, %ebx
LBB37_565:
	shll	$6, %edx
	orl	%ebp, %edx
	cmpl	$240, %eax
	jb	LBB37_566
	xorl	%eax, %eax
	movl	$_str7060+1, %esi
	cmpl	%esi, %ebx
	je	LBB37_569
	movzbl	(%ebx), %eax
	incl	%ebx
	andl	$63, %eax
	movl	%ebx, %ecx
LBB37_569:
	shll	$6, %edx
	orl	%eax, %edx
	jmp	LBB37_570
LBB37_562:
	shll	$6, %esi
	orl	%esi, %edx
	movl	%edx, %eax
	jmp	LBB37_571
LBB37_566:
	shll	$12, %esi
	orl	%esi, %edx
LBB37_570:
	movl	%edx, %eax
	movl	$_str6654+2, %ebp
	.align	16, 0x90
LBB37_571:
	movw	$1016, %dx
	#APP

	outb	%al, %dx


	#NO_APP
	movl	$_str7060+1, %eax
	cmpl	%eax, %ecx
	jne	LBB37_556
	movl	28(%esp), %eax
	movl	40(%eax), %ecx
	calll	__ZN6common5debug2dd20h67ae0f1b7d732e10SoaE
	movl	$_str7060, %ecx
	.align	16, 0x90
LBB37_573:
	leal	1(%ecx), %esi
	movzbl	(%ecx), %eax
	testb	%al, %al
	js	LBB37_575
	movl	%esi, %ecx
	jmp	LBB37_588
	.align	16, 0x90
LBB37_575:
	movl	$_str7060+1, %edi
	cmpl	%edi, %esi
	je	LBB37_576
	movzbl	1(%ecx), %edx
	addl	$2, %ecx
	andl	$63, %edx
	movl	%ecx, %edi
	jmp	LBB37_578
LBB37_576:
	xorl	%edx, %edx
	movl	%esi, %ecx
LBB37_578:
	movl	%eax, %esi
	andl	$31, %esi
	cmpl	$224, %eax
	jb	LBB37_579
	xorl	%ebp, %ebp
	movl	$_str7060+1, %ebx
	cmpl	%ebx, %edi
	je	LBB37_582
	movzbl	(%edi), %ebp
	incl	%edi
	andl	$63, %ebp
	movl	%edi, %ecx
	movl	%edi, %ebx
LBB37_582:
	shll	$6, %edx
	orl	%ebp, %edx
	cmpl	$240, %eax
	jb	LBB37_583
	xorl	%eax, %eax
	movl	$_str7060+1, %esi
	cmpl	%esi, %ebx
	je	LBB37_586
	movzbl	(%ebx), %eax
	incl	%ebx
	andl	$63, %eax
	movl	%ebx, %ecx
LBB37_586:
	shll	$6, %edx
	orl	%eax, %edx
	jmp	LBB37_587
LBB37_579:
	shll	$6, %esi
	orl	%esi, %edx
	movl	%edx, %eax
	jmp	LBB37_588
LBB37_583:
	shll	$12, %esi
	orl	%esi, %edx
LBB37_587:
	movl	%edx, %eax
	movl	$_str6654+2, %ebp
	.align	16, 0x90
LBB37_588:
	movw	$1016, %dx
	#APP

	outb	%al, %dx


	#NO_APP
	movl	$_str7060+1, %eax
	cmpl	%eax, %ecx
	jne	LBB37_573
	movl	28(%esp), %eax
	movl	56(%eax), %ecx
	calll	__ZN6common5debug2dh20h857ba5a54e7b7d79roaE
	movb	$10, %al
	movw	$1016, %dx
	#APP

	outb	%al, %dx


	#NO_APP
	movl	64(%esp), %eax
	orb	$1, (%eax)
	movl	$_str7485, %esi
	movl	$_str7487, %ecx
	testb	$1, 4(%eax)
	je	LBB37_590
	.align	16, 0x90
LBB37_611:
	leal	1(%esi), %ebx
	movzbl	(%esi), %eax
	testb	%al, %al
	js	LBB37_613
	movl	%ebx, %esi
	jmp	LBB37_626
	.align	16, 0x90
LBB37_613:
	movl	$_str7485+12, %edi
	cmpl	%edi, %ebx
	je	LBB37_614
	movzbl	1(%esi), %edx
	addl	$2, %esi
	andl	$63, %edx
	movl	%esi, %edi
	jmp	LBB37_616
LBB37_614:
	xorl	%edx, %edx
	movl	%ebx, %esi
LBB37_616:
	movl	%eax, %ebx
	andl	$31, %ebx
	cmpl	$224, %eax
	jb	LBB37_617
	movl	$_str7485+12, %ebp
	cmpl	%ebp, %edi
	movl	$0, %ebp
	movl	$_str7485+12, 68(%esp)
	je	LBB37_620
	movzbl	(%edi), %ebp
	incl	%edi
	andl	$63, %ebp
	movl	%edi, %esi
	movl	%edi, 68(%esp)
LBB37_620:
	shll	$6, %edx
	orl	%ebp, %edx
	cmpl	$240, %eax
	jb	LBB37_621
	xorl	%eax, %eax
	movl	$_str7485+12, %edi
	movl	68(%esp), %ebx
	cmpl	%edi, %ebx
	movl	%ebx, %edi
	je	LBB37_624
	movzbl	(%edi), %eax
	incl	%edi
	andl	$63, %eax
	movl	%edi, %esi
LBB37_624:
	shll	$6, %edx
	orl	%eax, %edx
	jmp	LBB37_625
LBB37_617:
	shll	$6, %ebx
	orl	%ebx, %edx
	movl	%edx, %eax
	jmp	LBB37_626
LBB37_621:
	shll	$12, %ebx
	orl	%ebx, %edx
LBB37_625:
	movl	%edx, %eax
	movl	$_str6654+2, %ebp
	.align	16, 0x90
LBB37_626:
	movw	$1016, %dx
	#APP

	outb	%al, %dx


	#NO_APP
	movl	$_str7485+12, %eax
	cmpl	%eax, %esi
	jne	LBB37_611
	movl	64(%esp), %eax
	testb	$1, 4(%eax)
	movl	$_str7485, %esi
	jne	LBB37_611
	.align	16, 0x90
LBB37_590:
	leal	1(%ecx), %esi
	movzbl	(%ecx), %eax
	testb	%al, %al
	js	LBB37_592
	movl	%esi, %ecx
	jmp	LBB37_605
	.align	16, 0x90
LBB37_592:
	movl	$_str7487+8, %edi
	cmpl	%edi, %esi
	je	LBB37_593
	movzbl	1(%ecx), %edx
	addl	$2, %ecx
	andl	$63, %edx
	movl	%ecx, %edi
	jmp	LBB37_595
LBB37_593:
	xorl	%edx, %edx
	movl	%esi, %ecx
LBB37_595:
	movl	%eax, %esi
	andl	$31, %esi
	cmpl	$224, %eax
	jb	LBB37_596
	xorl	%ebp, %ebp
	movl	$_str7487+8, %ebx
	cmpl	%ebx, %edi
	je	LBB37_599
	movzbl	(%edi), %ebp
	incl	%edi
	andl	$63, %ebp
	movl	%edi, %ecx
	movl	%edi, %ebx
LBB37_599:
	shll	$6, %edx
	orl	%ebp, %edx
	cmpl	$240, %eax
	jb	LBB37_600
	xorl	%eax, %eax
	movl	$_str7487+8, %esi
	cmpl	%esi, %ebx
	je	LBB37_603
	movzbl	(%ebx), %eax
	incl	%ebx
	andl	$63, %eax
	movl	%ebx, %ecx
LBB37_603:
	shll	$6, %edx
	orl	%eax, %edx
	jmp	LBB37_604
LBB37_596:
	shll	$6, %esi
	orl	%esi, %edx
	movl	%edx, %eax
	jmp	LBB37_605
LBB37_600:
	shll	$12, %esi
	orl	%esi, %edx
LBB37_604:
	movl	%edx, %eax
	movl	$_str6654+2, %ebp
	.align	16, 0x90
LBB37_605:
	movw	$1016, %dx
	#APP

	outb	%al, %dx


	#NO_APP
	movl	$_str7487+8, %eax
	cmpl	%eax, %ecx
	jne	LBB37_590
	movl	64(%esp), %eax
	movl	(%eax), %ecx
	calll	__ZN6common5debug2dh20h857ba5a54e7b7d79roaE
	movb	$10, %al
	movw	$1016, %dx
	#APP

	outb	%al, %dx


	#NO_APP
	movl	$0, 44(%esp)
	xorl	%eax, %eax
	jmp	LBB37_607
LBB37_729:
	movl	44(%esp), %ecx
	incl	%ecx
	cmpl	$255, %ecx
	movl	$0, %eax
	cmoval	%eax, %ecx
	movl	%ecx, 44(%esp)
	movl	8(%esp), %eax
	movl	$0, (%eax)
	movl	60(%esp), %eax
	.align	16, 0x90
LBB37_607:
	movl	%eax, 68(%esp)
	movl	$_str7489, %ecx
	cmpl	52(%esp), %eax
	jae	LBB37_730
	.align	16, 0x90
LBB37_608:
	leal	1(%ecx), %esi
	movzbl	(%ecx), %eax
	testb	%al, %al
	js	LBB37_627
	movl	%esi, %ecx
	jmp	LBB37_640
	.align	16, 0x90
LBB37_627:
	movl	$_str7489+5, %edi
	cmpl	%edi, %esi
	je	LBB37_628
	movzbl	1(%ecx), %edx
	addl	$2, %ecx
	andl	$63, %edx
	movl	%ecx, %edi
	jmp	LBB37_630
LBB37_628:
	xorl	%edx, %edx
	movl	%esi, %ecx
LBB37_630:
	movl	%eax, %ebx
	andl	$31, %ebx
	cmpl	$224, %eax
	jb	LBB37_631
	xorl	%esi, %esi
	movl	$_str7489+5, %ebp
	cmpl	%ebp, %edi
	je	LBB37_634
	movzbl	(%edi), %esi
	incl	%edi
	andl	$63, %esi
	movl	%edi, %ecx
	movl	%edi, %ebp
LBB37_634:
	shll	$6, %edx
	orl	%esi, %edx
	cmpl	$240, %eax
	jb	LBB37_635
	xorl	%eax, %eax
	movl	$_str7489+5, %esi
	cmpl	%esi, %ebp
	je	LBB37_638
	movzbl	(%ebp), %eax
	incl	%ebp
	andl	$63, %eax
	movl	%ebp, %ecx
LBB37_638:
	shll	$6, %edx
	orl	%eax, %edx
	jmp	LBB37_639
LBB37_631:
	shll	$6, %ebx
	orl	%ebx, %edx
	movl	%edx, %eax
	jmp	LBB37_640
LBB37_635:
	shll	$12, %ebx
	orl	%ebx, %edx
LBB37_639:
	movl	%edx, %eax
	movl	$_str6654+2, %ebp
	.align	16, 0x90
LBB37_640:
	movw	$1016, %dx
	#APP

	outb	%al, %dx


	#NO_APP
	movl	$_str7489+5, %eax
	cmpl	%eax, %ecx
	jne	LBB37_608
	movl	68(%esp), %eax
	leal	1(%eax), %ecx
	movl	%ecx, 60(%esp)
	calll	__ZN6common5debug2dd20h67ae0f1b7d732e10SoaE
	movl	$_str7491, %ecx
	.align	16, 0x90
LBB37_642:
	leal	1(%ecx), %esi
	movzbl	(%ecx), %eax
	testb	%al, %al
	js	LBB37_644
	movl	%esi, %ecx
	jmp	LBB37_657
	.align	16, 0x90
LBB37_644:
	movl	$_str7491+4, %edi
	cmpl	%edi, %esi
	je	LBB37_645
	movzbl	1(%ecx), %edx
	addl	$2, %ecx
	andl	$63, %edx
	movl	%ecx, %edi
	jmp	LBB37_647
LBB37_645:
	xorl	%edx, %edx
	movl	%esi, %ecx
LBB37_647:
	movl	%eax, %ebx
	andl	$31, %ebx
	cmpl	$224, %eax
	jb	LBB37_648
	xorl	%esi, %esi
	movl	$_str7491+4, %ebp
	cmpl	%ebp, %edi
	je	LBB37_651
	movzbl	(%edi), %esi
	incl	%edi
	andl	$63, %esi
	movl	%edi, %ecx
	movl	%edi, %ebp
LBB37_651:
	shll	$6, %edx
	orl	%esi, %edx
	cmpl	$240, %eax
	jb	LBB37_652
	xorl	%eax, %eax
	movl	$_str7491+4, %esi
	cmpl	%esi, %ebp
	je	LBB37_655
	movzbl	(%ebp), %eax
	incl	%ebp
	andl	$63, %eax
	movl	%ebp, %ecx
LBB37_655:
	shll	$6, %edx
	orl	%eax, %edx
	jmp	LBB37_656
LBB37_648:
	shll	$6, %ebx
	orl	%ebx, %edx
	movl	%edx, %eax
	jmp	LBB37_657
LBB37_652:
	shll	$12, %ebx
	orl	%ebx, %edx
LBB37_656:
	movl	%edx, %eax
	movl	$_str6654+2, %ebp
	.align	16, 0x90
LBB37_657:
	movw	$1016, %dx
	#APP

	outb	%al, %dx


	#NO_APP
	movl	$_str7491+4, %eax
	cmpl	%eax, %ecx
	jne	LBB37_642
	movl	68(%esp), %edi
	shll	$4, %edi
	movl	%edi, 68(%esp)
	movl	64(%esp), %esi
	movl	1024(%edi,%esi), %ecx
	calll	__ZN6common5debug2dh20h857ba5a54e7b7d79roaE
	movb	$10, %al
	movw	$1016, %dx
	#APP

	outb	%al, %dx


	#NO_APP
	movl	1024(%edi,%esi), %eax
	movl	$_str7493, %ecx
	testb	$1, %al
	je	LBB37_676
	.align	16, 0x90
LBB37_659:
	leal	1(%ecx), %esi
	movzbl	(%ecx), %eax
	testb	%al, %al
	js	LBB37_661
	movl	%esi, %ecx
	jmp	LBB37_674
	.align	16, 0x90
LBB37_661:
	movl	$_str7493+10, %edi
	cmpl	%edi, %esi
	je	LBB37_662
	movzbl	1(%ecx), %edx
	addl	$2, %ecx
	andl	$63, %edx
	movl	%ecx, %edi
	jmp	LBB37_664
LBB37_662:
	xorl	%edx, %edx
	movl	%esi, %ecx
LBB37_664:
	movl	%eax, %ebx
	andl	$31, %ebx
	cmpl	$224, %eax
	jb	LBB37_665
	xorl	%esi, %esi
	movl	$_str7493+10, %ebp
	cmpl	%ebp, %edi
	je	LBB37_668
	movzbl	(%edi), %esi
	incl	%edi
	andl	$63, %esi
	movl	%edi, %ecx
	movl	%edi, %ebp
LBB37_668:
	shll	$6, %edx
	orl	%esi, %edx
	cmpl	$240, %eax
	jb	LBB37_669
	xorl	%eax, %eax
	movl	$_str7493+10, %esi
	cmpl	%esi, %ebp
	je	LBB37_672
	movzbl	(%ebp), %eax
	incl	%ebp
	andl	$63, %eax
	movl	%ebp, %ecx
LBB37_672:
	shll	$6, %edx
	orl	%eax, %edx
	jmp	LBB37_673
LBB37_665:
	shll	$6, %ebx
	orl	%ebx, %edx
	movl	%edx, %eax
	jmp	LBB37_674
LBB37_669:
	shll	$12, %ebx
	orl	%ebx, %edx
LBB37_673:
	movl	%edx, %eax
	movl	$_str6654+2, %ebp
	.align	16, 0x90
LBB37_674:
	movw	$1016, %dx
	#APP

	outb	%al, %dx


	#NO_APP
	movl	$_str7493+10, %eax
	cmpl	%eax, %ecx
	jne	LBB37_659
	movl	64(%esp), %eax
	movl	68(%esp), %ecx
	movl	1024(%ecx,%eax), %eax
LBB37_676:
	movl	$_str7495, %ecx
	testb	$2, %al
	je	LBB37_694
	.align	16, 0x90
LBB37_677:
	leal	1(%ecx), %esi
	movzbl	(%ecx), %eax
	testb	%al, %al
	js	LBB37_679
	movl	%esi, %ecx
	jmp	LBB37_692
	.align	16, 0x90
LBB37_679:
	movl	$_str7495+8, %edi
	cmpl	%edi, %esi
	je	LBB37_680
	movzbl	1(%ecx), %edx
	addl	$2, %ecx
	andl	$63, %edx
	movl	%ecx, %edi
	jmp	LBB37_682
LBB37_680:
	xorl	%edx, %edx
	movl	%esi, %ecx
LBB37_682:
	movl	%eax, %ebx
	andl	$31, %ebx
	cmpl	$224, %eax
	jb	LBB37_683
	xorl	%esi, %esi
	movl	$_str7495+8, %ebp
	cmpl	%ebp, %edi
	je	LBB37_686
	movzbl	(%edi), %esi
	incl	%edi
	andl	$63, %esi
	movl	%edi, %ecx
	movl	%edi, %ebp
LBB37_686:
	shll	$6, %edx
	orl	%esi, %edx
	cmpl	$240, %eax
	jb	LBB37_687
	xorl	%eax, %eax
	movl	$_str7495+8, %esi
	cmpl	%esi, %ebp
	je	LBB37_690
	movzbl	(%ebp), %eax
	incl	%ebp
	andl	$63, %eax
	movl	%ebp, %ecx
LBB37_690:
	shll	$6, %edx
	orl	%eax, %edx
	jmp	LBB37_691
LBB37_683:
	shll	$6, %ebx
	orl	%ebx, %edx
	movl	%edx, %eax
	jmp	LBB37_692
LBB37_687:
	shll	$12, %ebx
	orl	%ebx, %edx
LBB37_691:
	movl	%edx, %eax
	movl	$_str6654+2, %ebp
	.align	16, 0x90
LBB37_692:
	movw	$1016, %dx
	#APP

	outb	%al, %dx


	#NO_APP
	movl	$_str7495+8, %eax
	cmpl	%eax, %ecx
	jne	LBB37_677
	movl	64(%esp), %eax
	movl	68(%esp), %ecx
	movl	1024(%ecx,%eax), %eax
LBB37_694:
	andl	$3, %eax
	cmpl	$3, %eax
	movl	60(%esp), %eax
	jne	LBB37_607
	movl	$_str7497, %ecx
	.align	16, 0x90
LBB37_696:
	leal	1(%ecx), %esi
	movzbl	(%ecx), %eax
	testb	%al, %al
	js	LBB37_698
	movl	%esi, %ecx
	jmp	LBB37_711
	.align	16, 0x90
LBB37_698:
	movl	$_str7497+14, %edi
	cmpl	%edi, %esi
	je	LBB37_699
	movzbl	1(%ecx), %edx
	addl	$2, %ecx
	andl	$63, %edx
	movl	%ecx, %edi
	jmp	LBB37_701
LBB37_699:
	xorl	%edx, %edx
	movl	%esi, %ecx
LBB37_701:
	movl	%eax, %esi
	andl	$31, %esi
	cmpl	$224, %eax
	jb	LBB37_702
	xorl	%ebp, %ebp
	movl	$_str7497+14, %ebx
	cmpl	%ebx, %edi
	je	LBB37_705
	movzbl	(%edi), %ebp
	incl	%edi
	andl	$63, %ebp
	movl	%edi, %ecx
	movl	%edi, %ebx
LBB37_705:
	shll	$6, %edx
	orl	%ebp, %edx
	cmpl	$240, %eax
	jb	LBB37_706
	xorl	%eax, %eax
	movl	$_str7497+14, %esi
	cmpl	%esi, %ebx
	je	LBB37_709
	movzbl	(%ebx), %eax
	incl	%ebx
	andl	$63, %eax
	movl	%ebx, %ecx
LBB37_709:
	shll	$6, %edx
	orl	%eax, %edx
	jmp	LBB37_710
LBB37_702:
	shll	$6, %esi
	orl	%esi, %edx
	movl	%edx, %eax
	jmp	LBB37_711
LBB37_706:
	shll	$12, %esi
	orl	%esi, %edx
LBB37_710:
	movl	%edx, %eax
	movl	$_str6654+2, %ebp
	.align	16, 0x90
LBB37_711:
	movw	$1016, %dx
	#APP

	outb	%al, %dx


	#NO_APP
	movl	$_str7497+14, %eax
	cmpl	%eax, %ecx
	jne	LBB37_696
	movl	44(%esp), %eax
	shll	$4, %eax
	movl	56(%esp), %ecx
	movl	$0, 4(%ecx,%eax)
	movl	$0, (%ecx,%eax)
	movl	$0, 8(%ecx,%eax)
	movl	$23552, 12(%ecx,%eax)
	movl	$_str7500, %ecx
	.align	16, 0x90
LBB37_713:
	leal	1(%ecx), %esi
	movzbl	(%ecx), %eax
	testb	%al, %al
	js	LBB37_715
	movl	%esi, %ecx
	jmp	LBB37_728
	.align	16, 0x90
LBB37_715:
	movl	$_str7500+15, %edi
	cmpl	%edi, %esi
	je	LBB37_716
	movzbl	1(%ecx), %edx
	addl	$2, %ecx
	andl	$63, %edx
	movl	%ecx, %edi
	jmp	LBB37_718
LBB37_716:
	xorl	%edx, %edx
	movl	%esi, %ecx
LBB37_718:
	movl	%eax, %esi
	andl	$31, %esi
	cmpl	$224, %eax
	jb	LBB37_719
	xorl	%ebp, %ebp
	movl	$_str7500+15, %ebx
	cmpl	%ebx, %edi
	je	LBB37_722
	movzbl	(%edi), %ebp
	incl	%edi
	andl	$63, %ebp
	movl	%edi, %ecx
	movl	%edi, %ebx
LBB37_722:
	shll	$6, %edx
	orl	%ebp, %edx
	cmpl	$240, %eax
	jb	LBB37_723
	xorl	%eax, %eax
	movl	$_str7500+15, %esi
	cmpl	%esi, %ebx
	je	LBB37_726
	movzbl	(%ebx), %eax
	incl	%ebx
	andl	$63, %eax
	movl	%ebx, %ecx
LBB37_726:
	shll	$6, %edx
	orl	%eax, %edx
	jmp	LBB37_727
LBB37_719:
	shll	$6, %esi
	orl	%esi, %edx
	movl	%edx, %eax
	jmp	LBB37_728
LBB37_723:
	shll	$12, %esi
	orl	%esi, %edx
LBB37_727:
	movl	%edx, %eax
	movl	$_str6654+2, %ebp
	.align	16, 0x90
LBB37_728:
	movw	$1016, %dx
	#APP

	outb	%al, %dx


	#NO_APP
	movl	$_str7500+15, %eax
	cmpl	%eax, %ecx
	jne	LBB37_713
	jmp	LBB37_729
LBB37_730:
	movl	20(%esp), %edi
	movl	72(%edi), %esi
	leal	1(%esi), %eax
	movl	%eax, 72(%edi)
	movl	68(%edi), %ecx
	leal	8(,%esi,8), %edx
	calll	__ZN6common6memory7realloc20hc094b26789a71b31vXaE
	movl	%eax, 68(%edi)
	movl	12(%esp), %ecx
	movl	%ecx, (%eax,%esi,8)
	movl	$_vtable6879, 4(%eax,%esi,8)
	jmp	LBB37_996
LBB37_874:
	orb	$48, %al
LBB37_876:
	movw	$1016, %dx
	#APP

	outb	%al, %dx


	#NO_APP
	andb	$15, %cl
	movzbl	%cl, %eax
	cmpl	$10, %eax
	jb	LBB37_877
	addb	$55, %cl
	jmp	LBB37_879
LBB37_877:
	orb	$48, %cl
LBB37_879:
	movw	$1016, %dx
	movb	%cl, %al
	#APP

	outb	%al, %dx


	#NO_APP
	movb	$10, %al
	movw	$1016, %dx
	#APP

	outb	%al, %dx


	#NO_APP
	movl	(%esi), %eax
	movl	4(%esi), %ecx
	movl	8(%esi), %edx
	shll	$16, %eax
	shll	$11, %ecx
	shll	$8, %edx
	orl	%eax, %ecx
	orl	%edx, %ecx
	orl	$-2147483644, %ecx
	movw	$3320, %dx
	movl	%ecx, %eax
	#APP

	outl	%eax, %dx


	#NO_APP
	movw	$3324, %dx
	#APP

	inl	%dx, %eax


	#NO_APP
	movl	%eax, %esi
	orl	$4, %esi
	movw	$3320, %dx
	movl	%ecx, %eax
	#APP

	outl	%eax, %dx


	#NO_APP
	movw	$3324, %dx
	movl	%esi, %eax
	#APP

	outl	%eax, %dx


	#NO_APP
	movl	64(%esp), %ecx
	leal	82(%ecx), %edx
	xorl	%eax, %eax
	#APP

	outb	%al, %dx


	#NO_APP
	addl	$55, %ecx
	movb	$16, %al
	movw	%cx, %dx
	#APP

	outb	%al, %dx


	#NO_APP
	.align	16, 0x90
LBB37_880:
	movw	%cx, %dx
	#APP

	inb	%dx, %al


	#NO_APP
	testb	$16, %al
	jne	LBB37_880
	movw	$0, __ZN7network7rtl813910RTL8139_TX20h7dc94791dfe8bd0eyHeE
	xorl	%eax, %eax
	xorl	%edi, %edi
	xorl	%edx, %edx
LBB37_882:
	leal	7344128(,%eax,4), %ebx
	.align	16, 0x90
LBB37_883:
	movl	%edi, %esi
	movl	%eax, %ebp
	cmpl	$1048575, %ebp
	ja	LBB37_886
	leal	1(%ebp), %eax
	xorl	%edi, %edi
	cmpl	$0, (%ebx)
	leal	4(%ebx), %ebx
	jne	LBB37_883
	testl	%esi, %esi
	cmovel	%ebp, %edx
	incl	%esi
	movl	%esi, %edi
	shll	$12, %edi
	cmpl	$10241, %edi
	movl	%esi, %edi
	jb	LBB37_882
LBB37_886:
	movl	%esi, %edi
	shll	$12, %edi
	xorl	%eax, %eax
	cmpl	$10241, %edi
	movl	$_str6654+2, %ebp
	jb	LBB37_891
	movl	%edx, %eax
	shll	$12, %eax
	addl	$11538432, %eax
	leal	(%edx,%esi), %edi
	cmpl	%edi, %edx
	jae	LBB37_891
	leal	7344128(,%edx,4), %edi
	.align	16, 0x90
LBB37_889:
	cmpl	$1048576, %edx
	jae	LBB37_890
	movl	%eax, (%edi)
LBB37_890:
	incl	%edx
	addl	$4, %edi
	decl	%esi
	jne	LBB37_889
LBB37_891:
	movl	64(%esp), %esi
	leal	48(%esi), %edx
	#APP

	outl	%eax, %dx


	#NO_APP
	leal	56(%esi), %edx
	xorl	%eax, %eax
	#APP

	outw	%ax, %dx


	#NO_APP
	leal	58(%esi), %edx
	xorl	%eax, %eax
	#APP

	outw	%ax, %dx


	#NO_APP
	leal	60(%esi), %edx
	movw	$1, %ax
	#APP

	outw	%ax, %dx


	#NO_APP
	leal	68(%esi), %edx
	movl	$143, %eax
	#APP

	outl	%eax, %dx


	#NO_APP
	movb	$12, %al
	movw	%cx, %dx
	#APP

	outb	%al, %dx


	#NO_APP
	movl	20(%esp), %edi
	movl	72(%edi), %esi
	leal	1(%esi), %eax
	movl	%eax, 72(%edi)
	movl	68(%edi), %ecx
	leal	8(,%esi,8), %edx
	calll	__ZN6common6memory7realloc20hc094b26789a71b31vXaE
	movl	%eax, 68(%edi)
	movl	68(%esp), %ecx
	movl	%ecx, (%eax,%esi,8)
	movl	$_vtable6891, 4(%eax,%esi,8)
	jmp	LBB37_996
	.align	16, 0x90
LBB37_5:
	leal	1(%eax), %esi
	movl	%eax, %ebx
	shll	$8, %ebx
	orl	%ecx, %ebx
	movl	%eax, %edi
	movl	%ebx, %eax
	orl	$-2147483648, %eax
	movw	$3320, %dx
	#APP

	outl	%eax, %dx


	#NO_APP
	movw	$3324, %dx
	#APP

	inl	%dx, %eax


	#NO_APP
	movzwl	%ax, %edx
	cmpl	$65535, %edx
	je	LBB37_6
	movl	%edx, 44(%esp)
	movl	%eax, 56(%esp)
	movl	%edi, 52(%esp)
	movl	%esi, 48(%esp)
	movl	%ebx, %eax
	movl	%ebx, 64(%esp)
	orl	$-2147483640, %eax
	movw	$3320, %dx
	#APP

	outl	%eax, %dx


	#NO_APP
	movw	$3324, %dx
	#APP

	inl	%dx, %eax


	#NO_APP
	movl	%eax, 60(%esp)
	movl	$_str6900, %ecx
	.align	16, 0x90
LBB37_8:
	leal	1(%ecx), %esi
	movzbl	(%ecx), %eax
	testb	%al, %al
	js	LBB37_10
	movl	%esi, %ecx
	jmp	LBB37_23
	.align	16, 0x90
LBB37_10:
	movl	$_str6900+4, %ebx
	cmpl	%ebx, %esi
	je	LBB37_11
	movzbl	1(%ecx), %edx
	addl	$2, %ecx
	andl	$63, %edx
	movl	%ecx, %ebx
	jmp	LBB37_13
LBB37_11:
	xorl	%edx, %edx
	movl	%esi, %ecx
LBB37_13:
	movl	%eax, %esi
	andl	$31, %esi
	cmpl	$224, %eax
	jb	LBB37_14
	xorl	%ebp, %ebp
	movl	$_str6900+4, %edi
	cmpl	%edi, %ebx
	je	LBB37_17
	movzbl	(%ebx), %ebp
	incl	%ebx
	andl	$63, %ebp
	movl	%ebx, %ecx
	movl	%ebx, %edi
LBB37_17:
	shll	$6, %edx
	orl	%ebp, %edx
	cmpl	$240, %eax
	jb	LBB37_18
	xorl	%eax, %eax
	movl	$_str6900+4, %esi
	cmpl	%esi, %edi
	je	LBB37_21
	movzbl	(%edi), %eax
	incl	%edi
	andl	$63, %eax
	movl	%edi, %ecx
LBB37_21:
	shll	$6, %edx
	orl	%eax, %edx
	jmp	LBB37_22
LBB37_14:
	shll	$6, %esi
	orl	%esi, %edx
	movl	%edx, %eax
	jmp	LBB37_23
LBB37_18:
	shll	$12, %esi
	orl	%esi, %edx
LBB37_22:
	movl	%edx, %eax
	movl	$_str6654+2, %ebp
	.align	16, 0x90
LBB37_23:
	movw	$1016, %dx
	#APP

	outb	%al, %dx


	#NO_APP
	movl	$_str6900+4, %eax
	cmpl	%eax, %ecx
	jne	LBB37_8
	movl	36(%esp), %ecx
	calll	__ZN6common5debug2dd20h67ae0f1b7d732e10SoaE
	movl	$_str6902, %ecx
	.align	16, 0x90
LBB37_25:
	leal	1(%ecx), %esi
	movzbl	(%ecx), %eax
	testb	%al, %al
	js	LBB37_27
	movl	%esi, %ecx
	jmp	LBB37_40
	.align	16, 0x90
LBB37_27:
	movl	$_str6902+6, %ebx
	cmpl	%ebx, %esi
	je	LBB37_28
	movzbl	1(%ecx), %edx
	addl	$2, %ecx
	andl	$63, %edx
	movl	%ecx, %ebx
	jmp	LBB37_30
LBB37_28:
	xorl	%edx, %edx
	movl	%esi, %ecx
LBB37_30:
	movl	%eax, %esi
	andl	$31, %esi
	cmpl	$224, %eax
	jb	LBB37_31
	xorl	%ebp, %ebp
	movl	$_str6902+6, %edi
	cmpl	%edi, %ebx
	je	LBB37_34
	movzbl	(%ebx), %ebp
	incl	%ebx
	andl	$63, %ebp
	movl	%ebx, %ecx
	movl	%ebx, %edi
LBB37_34:
	shll	$6, %edx
	orl	%ebp, %edx
	cmpl	$240, %eax
	jb	LBB37_35
	xorl	%eax, %eax
	movl	$_str6902+6, %esi
	cmpl	%esi, %edi
	je	LBB37_38
	movzbl	(%edi), %eax
	incl	%edi
	andl	$63, %eax
	movl	%edi, %ecx
LBB37_38:
	shll	$6, %edx
	orl	%eax, %edx
	jmp	LBB37_39
LBB37_31:
	shll	$6, %esi
	orl	%esi, %edx
	movl	%edx, %eax
	jmp	LBB37_40
LBB37_35:
	shll	$12, %esi
	orl	%esi, %edx
LBB37_39:
	movl	%edx, %eax
	movl	$_str6654+2, %ebp
	.align	16, 0x90
LBB37_40:
	movw	$1016, %dx
	#APP

	outb	%al, %dx


	#NO_APP
	movl	$_str6902+6, %eax
	cmpl	%eax, %ecx
	jne	LBB37_25
	movl	40(%esp), %ecx
	calll	__ZN6common5debug2dd20h67ae0f1b7d732e10SoaE
	movl	$_str6904, %ecx
	.align	16, 0x90
LBB37_42:
	leal	1(%ecx), %esi
	movzbl	(%ecx), %eax
	testb	%al, %al
	js	LBB37_44
	movl	%esi, %ecx
	jmp	LBB37_57
	.align	16, 0x90
LBB37_44:
	movl	$_str6904+10, %ebx
	cmpl	%ebx, %esi
	je	LBB37_45
	movzbl	1(%ecx), %edx
	addl	$2, %ecx
	andl	$63, %edx
	movl	%ecx, %ebx
	jmp	LBB37_47
LBB37_45:
	xorl	%edx, %edx
	movl	%esi, %ecx
LBB37_47:
	movl	%eax, %esi
	andl	$31, %esi
	cmpl	$224, %eax
	jb	LBB37_48
	xorl	%ebp, %ebp
	movl	$_str6904+10, %edi
	cmpl	%edi, %ebx
	je	LBB37_51
	movzbl	(%ebx), %ebp
	incl	%ebx
	andl	$63, %ebp
	movl	%ebx, %ecx
	movl	%ebx, %edi
LBB37_51:
	shll	$6, %edx
	orl	%ebp, %edx
	cmpl	$240, %eax
	jb	LBB37_52
	xorl	%eax, %eax
	movl	$_str6904+10, %esi
	cmpl	%esi, %edi
	je	LBB37_55
	movzbl	(%edi), %eax
	incl	%edi
	andl	$63, %eax
	movl	%edi, %ecx
LBB37_55:
	shll	$6, %edx
	orl	%eax, %edx
	jmp	LBB37_56
LBB37_48:
	shll	$6, %esi
	orl	%esi, %edx
	movl	%edx, %eax
	jmp	LBB37_57
LBB37_52:
	shll	$12, %esi
	orl	%esi, %edx
LBB37_56:
	movl	%edx, %eax
	movl	$_str6654+2, %ebp
	.align	16, 0x90
LBB37_57:
	movw	$1016, %dx
	#APP

	outb	%al, %dx


	#NO_APP
	movl	$_str6904+10, %eax
	cmpl	%eax, %ecx
	jne	LBB37_42
	movl	52(%esp), %ecx
	calll	__ZN6common5debug2dd20h67ae0f1b7d732e10SoaE
	movl	$_str6654, %ecx
	.align	16, 0x90
LBB37_59:
	leal	1(%ecx), %esi
	movzbl	(%ecx), %eax
	testb	%al, %al
	js	LBB37_61
	movl	%esi, %ecx
	jmp	LBB37_74
	.align	16, 0x90
LBB37_61:
	movl	$_str6654+2, %ebx
	cmpl	%ebx, %esi
	je	LBB37_62
	movzbl	1(%ecx), %edx
	addl	$2, %ecx
	andl	$63, %edx
	movl	%ecx, %ebx
	jmp	LBB37_64
LBB37_62:
	xorl	%edx, %edx
	movl	%esi, %ecx
LBB37_64:
	movl	%eax, %esi
	andl	$31, %esi
	cmpl	$224, %eax
	jb	LBB37_65
	xorl	%ebp, %ebp
	movl	$_str6654+2, %edi
	cmpl	%edi, %ebx
	je	LBB37_68
	movzbl	(%ebx), %ebp
	incl	%ebx
	andl	$63, %ebp
	movl	%ebx, %ecx
	movl	%ebx, %edi
LBB37_68:
	shll	$6, %edx
	orl	%ebp, %edx
	cmpl	$240, %eax
	jb	LBB37_69
	xorl	%eax, %eax
	movl	$_str6654+2, %ebp
	cmpl	%ebp, %edi
	je	LBB37_72
	movzbl	(%edi), %eax
	incl	%edi
	andl	$63, %eax
	movl	%edi, %ecx
LBB37_72:
	shll	$6, %edx
	orl	%eax, %edx
	jmp	LBB37_73
LBB37_65:
	shll	$6, %esi
	orl	%esi, %edx
LBB37_73:
	movl	%edx, %eax
	jmp	LBB37_74
LBB37_69:
	shll	$12, %esi
	orl	%esi, %edx
	movl	%edx, %eax
	movl	$_str6654+2, %ebp
	.align	16, 0x90
LBB37_74:
	movw	$1016, %dx
	#APP

	outb	%al, %dx


	#NO_APP
	cmpl	%ebp, %ecx
	jne	LBB37_59
	movl	56(%esp), %ecx
	calll	__ZN6common5debug2dh20h857ba5a54e7b7d79roaE
	movl	$_str6906, %ecx
	.align	16, 0x90
LBB37_76:
	leal	1(%ecx), %esi
	movzbl	(%ecx), %eax
	testb	%al, %al
	js	LBB37_78
	movl	%esi, %ecx
	jmp	LBB37_91
	.align	16, 0x90
LBB37_78:
	movl	$_str6906+2, %ebx
	cmpl	%ebx, %esi
	je	LBB37_79
	movzbl	1(%ecx), %edx
	addl	$2, %ecx
	andl	$63, %edx
	movl	%ecx, %ebx
	jmp	LBB37_81
LBB37_79:
	xorl	%edx, %edx
	movl	%esi, %ecx
LBB37_81:
	movl	%eax, %esi
	andl	$31, %esi
	cmpl	$224, %eax
	jb	LBB37_82
	xorl	%ebp, %ebp
	movl	$_str6906+2, %edi
	cmpl	%edi, %ebx
	je	LBB37_85
	movzbl	(%ebx), %ebp
	incl	%ebx
	andl	$63, %ebp
	movl	%ebx, %ecx
	movl	%ebx, %edi
LBB37_85:
	shll	$6, %edx
	orl	%ebp, %edx
	cmpl	$240, %eax
	jb	LBB37_86
	xorl	%eax, %eax
	movl	$_str6906+2, %esi
	cmpl	%esi, %edi
	je	LBB37_89
	movzbl	(%edi), %eax
	incl	%edi
	andl	$63, %eax
	movl	%edi, %ecx
LBB37_89:
	shll	$6, %edx
	orl	%eax, %edx
	jmp	LBB37_90
LBB37_82:
	shll	$6, %esi
	orl	%esi, %edx
	movl	%edx, %eax
	jmp	LBB37_91
LBB37_86:
	shll	$12, %esi
	orl	%esi, %edx
LBB37_90:
	movl	%edx, %eax
	movl	$_str6654+2, %ebp
	.align	16, 0x90
LBB37_91:
	movw	$1016, %dx
	#APP

	outb	%al, %dx


	#NO_APP
	movl	$_str6906+2, %eax
	cmpl	%eax, %ecx
	jne	LBB37_76
	movl	60(%esp), %ecx
	calll	__ZN6common5debug2dh20h857ba5a54e7b7d79roaE
	movb	$10, %al
	movw	$1016, %dx
	#APP

	outb	%al, %dx


	#NO_APP
	movl	$0, 68(%esp)
	.align	16, 0x90
LBB37_93:
	movl	$_str6908, %ecx
	.align	16, 0x90
LBB37_94:
	leal	1(%ecx), %esi
	movzbl	(%ecx), %eax
	testb	%al, %al
	js	LBB37_96
	movl	%esi, %ecx
	jmp	LBB37_109
	.align	16, 0x90
LBB37_96:
	movl	$_str6908+4, %edi
	cmpl	%edi, %esi
	je	LBB37_97
	movzbl	1(%ecx), %edx
	addl	$2, %ecx
	andl	$63, %edx
	movl	%ecx, %edi
	jmp	LBB37_99
LBB37_97:
	xorl	%edx, %edx
	movl	%esi, %ecx
LBB37_99:
	movl	%eax, %ebx
	andl	$31, %ebx
	cmpl	$224, %eax
	jb	LBB37_100
	xorl	%esi, %esi
	movl	$_str6908+4, %ebp
	cmpl	%ebp, %edi
	je	LBB37_103
	movzbl	(%edi), %esi
	incl	%edi
	andl	$63, %esi
	movl	%edi, %ecx
	movl	%edi, %ebp
LBB37_103:
	shll	$6, %edx
	orl	%esi, %edx
	cmpl	$240, %eax
	jb	LBB37_104
	xorl	%eax, %eax
	movl	$_str6908+4, %esi
	cmpl	%esi, %ebp
	je	LBB37_107
	movzbl	(%ebp), %eax
	incl	%ebp
	andl	$63, %eax
	movl	%ebp, %ecx
LBB37_107:
	shll	$6, %edx
	orl	%eax, %edx
	jmp	LBB37_108
LBB37_100:
	shll	$6, %ebx
	orl	%ebx, %edx
	movl	%edx, %eax
	jmp	LBB37_109
LBB37_104:
	shll	$12, %ebx
	orl	%ebx, %edx
LBB37_108:
	movl	%edx, %eax
	movl	$_str6654+2, %ebp
	.align	16, 0x90
LBB37_109:
	movw	$1016, %dx
	#APP

	outb	%al, %dx


	#NO_APP
	movl	$_str6908+4, %eax
	cmpl	%eax, %ecx
	jne	LBB37_94
	movl	68(%esp), %ecx
	calll	__ZN6common5debug2dd20h67ae0f1b7d732e10SoaE
	movl	$_str6654, %ecx
	.align	16, 0x90
LBB37_111:
	leal	1(%ecx), %esi
	movzbl	(%ecx), %eax
	testb	%al, %al
	js	LBB37_113
	movl	%esi, %ecx
	jmp	LBB37_126
	.align	16, 0x90
LBB37_113:
	movl	$_str6654+2, %edi
	cmpl	%edi, %esi
	je	LBB37_114
	movzbl	1(%ecx), %edx
	addl	$2, %ecx
	andl	$63, %edx
	movl	%ecx, %edi
	jmp	LBB37_116
LBB37_114:
	xorl	%edx, %edx
	movl	%esi, %ecx
LBB37_116:
	movl	%eax, %ebx
	andl	$31, %ebx
	cmpl	$224, %eax
	jb	LBB37_117
	xorl	%esi, %esi
	movl	$_str6654+2, %ebp
	cmpl	%ebp, %edi
	je	LBB37_120
	movzbl	(%edi), %esi
	incl	%edi
	andl	$63, %esi
	movl	%edi, %ecx
	movl	%edi, %ebp
LBB37_120:
	shll	$6, %edx
	orl	%esi, %edx
	cmpl	$240, %eax
	jb	LBB37_121
	xorl	%eax, %eax
	movl	$_str6654+2, %esi
	cmpl	%esi, %ebp
	je	LBB37_124
	movzbl	(%ebp), %eax
	incl	%ebp
	andl	$63, %eax
	movl	%ebp, %ecx
LBB37_124:
	shll	$6, %edx
	orl	%eax, %edx
	jmp	LBB37_125
LBB37_117:
	shll	$6, %ebx
	orl	%ebx, %edx
	movl	%edx, %eax
	jmp	LBB37_126
LBB37_121:
	shll	$12, %ebx
	orl	%ebx, %edx
LBB37_125:
	movl	%edx, %eax
	movl	$_str6654+2, %ebp
	.align	16, 0x90
LBB37_126:
	movw	$1016, %dx
	#APP

	outb	%al, %dx


	#NO_APP
	cmpl	%ebp, %ecx
	jne	LBB37_111
	movl	68(%esp), %edi
	leal	16(,%edi,4), %eax
	incl	%edi
	movl	%edi, 68(%esp)
	movl	64(%esp), %esi
	orl	%esi, %eax
	orl	$-2147483648, %eax
	movw	$3320, %dx
	#APP

	outl	%eax, %dx


	#NO_APP
	movw	$3324, %dx
	#APP

	inl	%dx, %eax


	#NO_APP
	movl	%eax, %ecx
	calll	__ZN6common5debug2dh20h857ba5a54e7b7d79roaE
	movb	$10, %al
	movw	$1016, %dx
	#APP

	outb	%al, %dx


	#NO_APP
	cmpl	$6, %edi
	jne	LBB37_93
	movl	60(%esp), %edx
	movl	%edx, %eax
	shrl	$24, %eax
	movl	%edx, %ecx
	shrl	$16, %ecx
	movzbl	%cl, %ecx
	cmpl	$1, %eax
	jne	LBB37_148
	cmpl	$1, %ecx
	jne	LBB37_148
	orl	$-2147483616, %esi
	movw	$3320, %dx
	movl	%esi, %eax
	#APP

	outl	%eax, %dx


	#NO_APP
	movw	$3324, %dx
	#APP

	inl	%dx, %eax


	#NO_APP
	movl	%eax, 68(%esp)
	movl	$_str6866, %esi
	.align	16, 0x90
LBB37_131:
	leal	1(%esi), %ecx
	movzbl	(%esi), %eax
	testb	%al, %al
	js	LBB37_133
	movl	%ecx, %esi
	jmp	LBB37_146
	.align	16, 0x90
LBB37_133:
	movl	$_str6866+18, %edi
	cmpl	%edi, %ecx
	je	LBB37_134
	movzbl	1(%esi), %edx
	addl	$2, %esi
	andl	$63, %edx
	movl	%esi, %edi
	jmp	LBB37_136
LBB37_134:
	xorl	%edx, %edx
	movl	%ecx, %esi
LBB37_136:
	movl	%eax, %ebx
	andl	$31, %ebx
	cmpl	$224, %eax
	jb	LBB37_137
	xorl	%ecx, %ecx
	movl	$_str6866+18, %ebp
	cmpl	%ebp, %edi
	je	LBB37_140
	movzbl	(%edi), %ecx
	incl	%edi
	andl	$63, %ecx
	movl	%edi, %esi
	movl	%edi, %ebp
LBB37_140:
	shll	$6, %edx
	orl	%ecx, %edx
	cmpl	$240, %eax
	jb	LBB37_141
	xorl	%eax, %eax
	movl	$_str6866+18, %ecx
	cmpl	%ecx, %ebp
	je	LBB37_144
	movzbl	(%ebp), %eax
	incl	%ebp
	andl	$63, %eax
	movl	%ebp, %esi
LBB37_144:
	shll	$6, %edx
	orl	%eax, %edx
	jmp	LBB37_145
LBB37_137:
	shll	$6, %ebx
	orl	%ebx, %edx
	movl	%edx, %eax
	jmp	LBB37_146
LBB37_141:
	shll	$12, %ebx
	orl	%ebx, %edx
LBB37_145:
	movl	%edx, %eax
	movl	$_str6654+2, %ebp
	.align	16, 0x90
LBB37_146:
	movw	$1016, %dx
	#APP

	outb	%al, %dx


	#NO_APP
	movl	$_str6866+18, %eax
	cmpl	%eax, %esi
	jne	LBB37_131
	movl	68(%esp), %ecx
	andl	$-16, %ecx
	calll	__ZN6common5debug2dh20h857ba5a54e7b7d79roaE
	movb	$10, %al
	movw	$1016, %dx
	#APP

	outb	%al, %dx


	#NO_APP
LBB37_996:
	movb	$10, %al
	movw	$1016, %dx
	#APP

	outb	%al, %dx


	#NO_APP
	movl	32(%esp), %ecx
	movl	48(%esp), %esi
LBB37_6:
	cmpl	$8, %esi
	movl	%esi, %eax
	jne	LBB37_5
	movl	40(%esp), %eax
	incl	%eax
	cmpl	$32, %eax
	jne	LBB37_4
	movl	36(%esp), %eax
	incl	%eax
	cmpl	$256, %eax
	jne	LBB37_2
	addl	$72, %esp
	popl	%esi
	popl	%edi
	popl	%ebx
	popl	%ebp
	retl
	.cfi_endproc

	.def	 __ZN11filesystems4unfs26Block...core..clone..Clone5clone20h46979d684cce3702MycE;
	.scl	2;
	.type	32;
	.endef
	.globl	__ZN11filesystems4unfs26Block...core..clone..Clone5clone20h46979d684cce3702MycE
	.align	16, 0x90
__ZN11filesystems4unfs26Block...core..clone..Clone5clone20h46979d684cce3702MycE:
	.cfi_startproc
	movl	4(%esp), %ecx
	movl	(%ecx), %eax
	movl	4(%ecx), %edx
	retl
	.cfi_endproc

	.def	 __ZN11filesystems4unfs27Extent...core..clone..Clone5clone20hb637169e089ee179jzcE;
	.scl	2;
	.type	32;
	.endef
	.globl	__ZN11filesystems4unfs27Extent...core..clone..Clone5clone20hb637169e089ee179jzcE
	.align	16, 0x90
__ZN11filesystems4unfs27Extent...core..clone..Clone5clone20hb637169e089ee179jzcE:
	.cfi_startproc
	movl	4(%esp), %eax
	movl	8(%esp), %ecx
	movsd	(%ecx), %xmm0
	movsd	%xmm0, (%eax)
	movsd	8(%ecx), %xmm0
	movsd	%xmm0, 8(%eax)
	retl
	.cfi_endproc

	.def	 __ZN11filesystems4unfs4UnFS4node20h0937ceca1fb86f18rBcE;
	.scl	3;
	.type	32;
	.endef
	.align	16, 0x90
__ZN11filesystems4unfs4UnFS4node20h0937ceca1fb86f18rBcE:
	.cfi_startproc
	pushl	%ebp
Ltmp209:
	.cfi_def_cfa_offset 8
	pushl	%ebx
Ltmp210:
	.cfi_def_cfa_offset 12
	pushl	%edi
Ltmp211:
	.cfi_def_cfa_offset 16
	pushl	%esi
Ltmp212:
	.cfi_def_cfa_offset 20
	subl	$52, %esp
Ltmp213:
	.cfi_def_cfa_offset 72
Ltmp214:
	.cfi_offset %esi, -20
Ltmp215:
	.cfi_offset %edi, -16
Ltmp216:
	.cfi_offset %ebx, -12
Ltmp217:
	.cfi_offset %ebp, -8
	movl	%edx, %esi
	movl	%esi, 40(%esp)
	movl	%ecx, 28(%esp)
	movl	$-1, %edx
	movl	$7344128, %ecx
	.align	16, 0x90
LBB40_1:
	movl	%ecx, %eax
	incl	%edx
	xorl	%ebx, %ebx
	cmpl	$1048575, %edx
	ja	LBB40_18
	leal	4(%eax), %ecx
	cmpl	$0, (%eax)
	jne	LBB40_1
	shll	$12, %edx
	addl	$11538432, %edx
	movl	%edx, (%eax)
	movl	%edx, %edi
	je	LBB40_18
	movl	28(%esp), %eax
	movl	4(%eax), %eax
	movl	8(%eax), %edx
	movl	12(%eax), %eax
	xorl	%ebx, %ebx
	movl	%edx, %ecx
	orl	%eax, %ecx
	je	LBB40_15
	movl	%edi, 12(%esp)
	leal	32(%edi), %ecx
	movl	%ecx, 16(%esp)
	xorl	%ebp, %ebp
	xorl	%ebx, %ebx
	.align	16, 0x90
LBB40_6:
	movl	%edi, 8(%esp)
	movl	%eax, (%esp)
	movl	$1, 4(%esp)
	movl	28(%esp), %ecx
	calll	__ZN7drivers4disk4Disk4read20hbdd84e1c2e3e7f04j2bE
	xorl	%eax, %eax
	movl	%ebx, %edx
	movl	%esi, %ecx
	.align	16, 0x90
LBB40_7:
	cmpl	$29, %eax
	ja	LBB40_8
	movl	%edx, 20(%esp)
	movl	%eax, 24(%esp)
	shll	$4, %eax
	movl	16(%esp), %edx
	movl	(%edx,%eax), %edi
	movl	4(%edx,%eax), %esi
	movl	%edi, %ecx
	orl	%esi, %ecx
	je	LBB40_10
	movl	8(%edx,%eax), %ecx
	addl	%edi, %ecx
	movl	%ecx, 36(%esp)
	movl	12(%edx,%eax), %edx
	adcl	%esi, %edx
	movl	%edx, 32(%esp)
	cmpl	%ecx, %edi
	setae	%al
	cmpl	%edx, %esi
	setae	%cl
	je	LBB40_27
	movb	%cl, %al
LBB40_27:
	testb	%al, %al
	jne	LBB40_10
	jmp	LBB40_28
LBB40_43:
	xorl	%ebp, %ebp
	jmp	LBB40_48
	.align	16, 0x90
LBB40_28:
	movl	%esi, %eax
	movl	%edi, %edx
	addl	$1, %edi
	adcl	$0, %esi
	movl	%esi, 48(%esp)
	movl	$-1, %ecx
	movl	$7344128, %ebx
	.align	16, 0x90
LBB40_29:
	movl	%ecx, %ebp
	leal	1(%ebp), %ecx
	xorl	%esi, %esi
	cmpl	$1048575, %ecx
	ja	LBB40_30
	cmpl	$0, (%ebx)
	leal	4(%ebx), %ebx
	jne	LBB40_29
	movl	%ecx, %ebx
	shll	$12, %ebx
	addl	$11538432, %ebx
	cmpl	$-1, %ecx
	je	LBB40_35
	cmpl	$1048575, %ecx
	ja	LBB40_35
	movl	%ebx, 7344132(,%ebp,4)
	jmp	LBB40_35
	.align	16, 0x90
LBB40_30:
	xorl	%ebx, %ebx
LBB40_35:
	movl	%ebx, 8(%esp)
	movl	%eax, (%esp)
	movl	$1, 4(%esp)
	movl	28(%esp), %ecx
	calll	__ZN7drivers4disk4Disk4read20hbdd84e1c2e3e7f04j2bE
	movl	40(%esp), %ecx
	movl	4(%ecx), %eax
	testl	%eax, %eax
	je	LBB40_44
	movl	%edi, 44(%esp)
	movl	%ecx, %edi
	movl	(%edi), %ecx
	xorl	%esi, %esi
	.align	16, 0x90
LBB40_37:
	cmpl	$255, %esi
	ja	LBB40_38
	movzbl	72(%ebx,%esi), %edx
	movzbl	(%ecx), %ebp
	cmpl	%ebp, %edx
	jne	LBB40_40
	incl	%esi
	addl	$4, %ecx
	cmpl	%eax, %esi
	jb	LBB40_37
	cmpl	$255, %esi
	movl	%edi, %ecx
	movl	44(%esp), %edi
	ja	LBB40_43
LBB40_44:
	movb	72(%ebx,%esi), %dl
	movb	$1, %al
	jmp	LBB40_45
	.align	16, 0x90
LBB40_38:
	xorl	%ebp, %ebp
	movl	44(%esp), %edi
	jmp	LBB40_48
	.align	16, 0x90
LBB40_40:
	xorl	%eax, %eax
	movl	%edi, %ecx
	movl	44(%esp), %edi
LBB40_45:
	testb	%dl, %dl
	je	LBB40_47
	xorl	%eax, %eax
LBB40_47:
	testb	%al, %al
	movl	%eax, %ebp
	jne	LBB40_11
LBB40_48:
	movl	$7344128, %eax
	testl	%ebx, %ebx
	je	LBB40_49
	.align	16, 0x90
LBB40_52:
	cmpl	%ebx, (%eax)
	jne	LBB40_53
	movl	$0, (%eax)
LBB40_53:
	addl	$4, %eax
	cmpl	$11538432, %eax
	jne	LBB40_52
LBB40_49:
	cmpl	36(%esp), %edi
	setb	%al
	movl	48(%esp), %esi
	cmpl	32(%esp), %esi
	setb	%cl
	je	LBB40_51
	movb	%cl, %al
LBB40_51:
	testb	%al, %al
	jne	LBB40_28
LBB40_10:
	movl	20(%esp), %ebx
	movl	40(%esp), %ecx
LBB40_11:
	movl	24(%esp), %eax
	incl	%eax
	movl	%ebp, %edx
	testb	$1, %dl
	movl	%ebx, %edx
	je	LBB40_7
	jmp	LBB40_12
	.align	16, 0x90
LBB40_8:
	movl	%edx, %ebx
LBB40_12:
	movl	%ecx, %esi
	movl	%ebp, %eax
	testb	$1, %al
	movl	12(%esp), %edi
	jne	LBB40_14
	movl	24(%edi), %edx
	movl	28(%edi), %eax
	movl	%edx, %ecx
	orl	%eax, %ecx
	jne	LBB40_6
LBB40_14:
	testl	%edi, %edi
	je	LBB40_18
LBB40_15:
	movl	$7344128, %eax
	.align	16, 0x90
LBB40_16:
	cmpl	%edi, (%eax)
	jne	LBB40_17
	movl	$0, (%eax)
LBB40_17:
	addl	$4, %eax
	cmpl	$11538432, %eax
	jne	LBB40_16
LBB40_18:
	movzbl	8(%esi), %eax
	cmpl	$212, %eax
	jne	LBB40_24
	movl	(%esi), %eax
	movl	%esi, %edx
	testl	%eax, %eax
	je	LBB40_23
	movl	$7344128, %ecx
	.align	16, 0x90
LBB40_21:
	cmpl	%eax, (%ecx)
	jne	LBB40_22
	movl	$0, (%ecx)
LBB40_22:
	addl	$4, %ecx
	cmpl	$11538432, %ecx
	jne	LBB40_21
LBB40_23:
	movl	$0, (%edx)
	movl	$0, 4(%edx)
LBB40_24:
	movl	%ebx, %eax
	addl	$52, %esp
	popl	%esi
	popl	%edi
	popl	%ebx
	popl	%ebp
	retl
	.cfi_endproc

	.def	 __ZN11filesystems4unfs4UnFS4list20h1c22bcfef8aa6e1aTFcE;
	.scl	3;
	.type	32;
	.endef
	.align	16, 0x90
__ZN11filesystems4unfs4UnFS4list20h1c22bcfef8aa6e1aTFcE:
	.cfi_startproc
	pushl	%ebp
Ltmp218:
	.cfi_def_cfa_offset 8
	pushl	%ebx
Ltmp219:
	.cfi_def_cfa_offset 12
	pushl	%edi
Ltmp220:
	.cfi_def_cfa_offset 16
	pushl	%esi
Ltmp221:
	.cfi_def_cfa_offset 20
	subl	$108, %esp
Ltmp222:
	.cfi_def_cfa_offset 128
Ltmp223:
	.cfi_offset %esi, -20
Ltmp224:
	.cfi_offset %edi, -16
Ltmp225:
	.cfi_offset %ebx, -12
Ltmp226:
	.cfi_offset %ebp, -8
	movl	%edx, 44(%esp)
	movl	128(%esp), %edi
	movl	$-1, %ebx
	movl	$7344128, %edx
	xorl	%ebp, %ebp
	.align	16, 0x90
LBB41_1:
	movl	%edx, %eax
	incl	%ebx
	cmpl	$1048575, %ebx
	ja	LBB41_2
	leal	4(%eax), %edx
	cmpl	$0, (%eax)
	jne	LBB41_1
	shll	$12, %ebx
	addl	$11538432, %ebx
	movl	%ebx, 32(%esp)
	movl	%ebx, (%eax)
	movl	$0, %esi
	je	LBB41_3
	movl	44(%esp), %eax
	movl	4(%eax), %eax
	movl	8(%eax), %edx
	movl	12(%eax), %eax
	xorl	%ebp, %ebp
	movl	%edx, %esi
	orl	%eax, %esi
	movl	$0, %esi
	je	LBB41_22
	movl	%ecx, 28(%esp)
	leal	40(%ebx), %ecx
	movl	%ecx, 36(%esp)
	movl	$0, 40(%esp)
	movb	$61, 51(%esp)
	xorl	%esi, %esi
	.align	16, 0x90
LBB41_14:
	movl	%ebx, 8(%esp)
	movl	%eax, (%esp)
	movl	$1, 4(%esp)
	movl	44(%esp), %ecx
	calll	__ZN7drivers4disk4Disk4read20hbdd84e1c2e3e7f04j2bE
	xorl	%ebx, %ebx
LBB41_16:
	movl	%esi, 72(%esp)
	movl	%ebx, %eax
	shll	$4, %eax
	movl	36(%esp), %ecx
	leal	(%eax,%ecx), %eax
	.align	16, 0x90
LBB41_17:
	incl	%ebx
	movl	-8(%eax), %edx
	movl	-4(%eax), %ebp
	movl	%edx, %ecx
	orl	%ebp, %ecx
	je	LBB41_18
	movl	(%eax), %ecx
	addl	%edx, %ecx
	movl	%ecx, 64(%esp)
	movl	4(%eax), %esi
	adcl	%ebp, %esi
	movl	%esi, 60(%esp)
	cmpl	%ecx, %edx
	movl	%edx, %edi
	setae	%cl
	cmpl	%esi, %ebp
	setae	%dl
	je	LBB41_27
	movb	%dl, %cl
LBB41_27:
	testb	%cl, %cl
	je	LBB41_28
LBB41_18:
	addl	$16, %eax
	cmpl	$30, %ebx
	jb	LBB41_17
	jmp	LBB41_19
	.align	16, 0x90
LBB41_28:
	movl	%edi, %edx
	movl	72(%esp), %esi
	.align	16, 0x90
LBB41_29:
	movl	%ebx, 68(%esp)
	movl	%esi, 72(%esp)
	movl	%ebp, %edi
	movl	%edx, 56(%esp)
	addl	$1, %edx
	movl	%edx, 52(%esp)
	adcl	$0, %ebp
	movl	$-1, %ecx
	movl	$7344128, %eax
	.align	16, 0x90
LBB41_30:
	movl	%ecx, %esi
	leal	1(%esi), %ecx
	xorl	%ebx, %ebx
	cmpl	$1048575, %ecx
	ja	LBB41_35
	cmpl	$0, (%eax)
	leal	4(%eax), %eax
	jne	LBB41_30
	movl	%ecx, %ebx
	shll	$12, %ebx
	addl	$11538432, %ebx
	cmpl	$-1, %ecx
	je	LBB41_35
	cmpl	$1048575, %ecx
	ja	LBB41_35
	movl	%ebx, 7344132(,%esi,4)
	.align	16, 0x90
LBB41_35:
	movl	%ebx, 8(%esp)
	movl	%edi, (%esp)
	movl	$1, 4(%esp)
	movl	44(%esp), %ecx
	movl	56(%esp), %edx
	calll	__ZN7drivers4disk4Disk4read20hbdd84e1c2e3e7f04j2bE
	leal	72(%ebx), %edx
	movl	$256, (%esp)
	leal	88(%esp), %esi
	movl	%esi, %ecx
	calll	__ZN6common6string6String12from_c_slice20hd04f40d68728d9432dbE
	movl	128(%esp), %edx
	movl	4(%edx), %eax
	movl	%eax, 4(%esp)
	movl	$0, (%esp)
	leal	76(%esp), %edi
	movl	%edi, %ecx
	calll	__ZN6common6string6String6substr20h781d66f970ad1759blbE
	movl	%esi, %ecx
	movl	%edi, %edx
	calll	__ZN6common6string6String11starts_with20h744081d49c163c7adnbE
	testb	%al, %al
	je	LBB41_36
	movl	88(%esp), %edi
	movl	92(%esp), %eax
	movl	%eax, 56(%esp)
	movb	96(%esp), %al
	movb	%al, 51(%esp)
	movl	72(%esp), %esi
	leal	4(,%esi,4), %eax
	leal	(%eax,%eax,2), %edx
	movl	40(%esp), %ecx
	calll	__ZN6common6memory7realloc20hc094b26789a71b31vXaE
	movl	%eax, 40(%esp)
	leal	97(%esp), %ecx
	movl	%ecx, %edx
	movb	2(%edx), %cl
	movb	%cl, 106(%esp)
	movw	(%edx), %cx
	movw	%cx, 104(%esp)
	leal	(%esi,%esi,2), %edx
	movl	%edi, (%eax,%edx,4)
	movl	56(%esp), %ecx
	movl	%ecx, 4(%eax,%edx,4)
	movb	51(%esp), %cl
	movb	%cl, 8(%eax,%edx,4)
	movb	106(%esp), %cl
	movb	%cl, 11(%eax,%edx,4)
	movw	104(%esp), %cx
	movw	%cx, 9(%eax,%edx,4)
	leal	1(%esi), %esi
	movb	$45, 51(%esp)
	jmp	LBB41_38
	.align	16, 0x90
LBB41_36:
	movl	72(%esp), %esi
LBB41_38:
	movl	52(%esp), %edx
	movl	$7344128, %eax
	testl	%ebx, %ebx
	je	LBB41_41
	.align	16, 0x90
LBB41_39:
	cmpl	%ebx, (%eax)
	jne	LBB41_40
	movl	$0, (%eax)
LBB41_40:
	addl	$4, %eax
	cmpl	$11538432, %eax
	jne	LBB41_39
LBB41_41:
	movzbl	51(%esp), %eax
	cmpl	$45, %eax
	movl	68(%esp), %ebx
	je	LBB41_43
	movzbl	96(%esp), %eax
	cmpl	$212, %eax
	jne	LBB41_43
	movl	88(%esp), %eax
	movl	$7344128, %ecx
	testl	%eax, %eax
	je	LBB41_49
	.align	16, 0x90
LBB41_47:
	cmpl	%eax, (%ecx)
	jne	LBB41_48
	movl	$0, (%ecx)
LBB41_48:
	addl	$4, %ecx
	cmpl	$11538432, %ecx
	jne	LBB41_47
LBB41_49:
	movl	$0, 88(%esp)
	movl	$0, 92(%esp)
LBB41_43:
	cmpl	64(%esp), %edx
	setb	%al
	cmpl	60(%esp), %ebp
	setb	%cl
	je	LBB41_45
	movb	%cl, %al
LBB41_45:
	testb	%al, %al
	jne	LBB41_29
	cmpl	$29, %ebx
	jbe	LBB41_16
	jmp	LBB41_20
	.align	16, 0x90
LBB41_19:
	movl	72(%esp), %esi
LBB41_20:
	movl	32(%esp), %ebx
	movl	24(%ebx), %edx
	movl	28(%ebx), %eax
	movl	%edx, %ecx
	orl	%eax, %ecx
	jne	LBB41_14
	testl	%ebx, %ebx
	movl	28(%esp), %ecx
	movl	128(%esp), %edi
	movl	40(%esp), %ebp
	je	LBB41_3
LBB41_22:
	movl	$7344128, %eax
	.align	16, 0x90
LBB41_23:
	cmpl	%ebx, (%eax)
	jne	LBB41_24
	movl	$0, (%eax)
LBB41_24:
	addl	$4, %eax
	cmpl	$11538432, %eax
	jne	LBB41_23
	jmp	LBB41_3
LBB41_2:
	xorl	%esi, %esi
LBB41_3:
	movl	%ebp, (%ecx)
	movl	%esi, 4(%ecx)
	movb	$-44, 8(%ecx)
	movb	103(%esp), %al
	movb	%al, 11(%ecx)
	movw	101(%esp), %ax
	movw	%ax, 9(%ecx)
	movzbl	8(%edi), %eax
	cmpl	$212, %eax
	jne	LBB41_9
	movl	(%edi), %eax
	testl	%eax, %eax
	je	LBB41_8
	movl	$7344128, %edx
	.align	16, 0x90
LBB41_6:
	cmpl	%eax, (%edx)
	jne	LBB41_7
	movl	$0, (%edx)
LBB41_7:
	addl	$4, %edx
	cmpl	$11538432, %edx
	jne	LBB41_6
LBB41_8:
	movl	$0, (%edi)
	movl	$0, 4(%edi)
LBB41_9:
	movl	%ecx, %eax
	addl	$108, %esp
	popl	%esi
	popl	%edi
	popl	%ebx
	popl	%ebp
	retl
	.cfi_endproc

	.def	 __ZN11filesystems4unfs4UnFS4load20hef623211a008f10aTIcE;
	.scl	3;
	.type	32;
	.endef
	.align	16, 0x90
__ZN11filesystems4unfs4UnFS4load20hef623211a008f10aTIcE:
	.cfi_startproc
	pushl	%ebp
Ltmp227:
	.cfi_def_cfa_offset 8
	pushl	%ebx
Ltmp228:
	.cfi_def_cfa_offset 12
	pushl	%edi
Ltmp229:
	.cfi_def_cfa_offset 16
	pushl	%esi
Ltmp230:
	.cfi_def_cfa_offset 20
	subl	$40, %esp
Ltmp231:
	.cfi_def_cfa_offset 60
Ltmp232:
	.cfi_offset %esi, -20
Ltmp233:
	.cfi_offset %edi, -16
Ltmp234:
	.cfi_offset %ebx, -12
Ltmp235:
	.cfi_offset %ebp, -8
	movl	%edx, %esi
	movl	%ecx, %ebp
	movl	8(%esi), %eax
	movl	%eax, 36(%esp)
	movsd	(%esi), %xmm0
	movsd	%xmm0, 28(%esp)
	movl	$488447261, 8(%esi)
	movl	$488447261, 4(%esi)
	movl	$488447261, (%esi)
	leal	28(%esp), %edx
	calll	__ZN11filesystems4unfs4UnFS4node20h0937ceca1fb86f18rBcE
	movl	%eax, %edi
	xorl	%ebx, %ebx
	testl	%edi, %edi
	je	LBB42_33
	movl	8(%edi), %eax
	xorl	%ebx, %ebx
	orl	12(%edi), %eax
	je	LBB42_30
	movl	%ebp, 24(%esp)
	movl	$-1, %ebp
	movl	$7344128, %ecx
	.align	16, 0x90
LBB42_3:
	movl	%ecx, %eax
	incl	%ebp
	cmpl	$1048575, %ebp
	ja	LBB42_30
	leal	4(%eax), %ecx
	cmpl	$0, (%eax)
	jne	LBB42_3
	shll	$12, %ebp
	addl	$11538432, %ebp
	movl	%ebp, (%eax)
	je	LBB42_30
	movl	8(%edi), %edx
	movl	12(%edi), %eax
	movl	%ebp, 8(%esp)
	movl	%eax, (%esp)
	movl	$1, 4(%esp)
	movl	24(%esp), %ecx
	calll	__ZN7drivers4disk4Disk4read20hbdd84e1c2e3e7f04j2bE
	movl	32(%ebp), %eax
	xorl	%ebx, %ebx
	orl	36(%ebp), %eax
	je	LBB42_27
	movl	40(%ebp), %ecx
	movl	44(%ebp), %eax
	orl	%ecx, %eax
	je	LBB42_27
	xorl	%ebx, %ebx
	shll	$9, %ecx
	movl	%ecx, 20(%esp)
	je	LBB42_27
	movl	%esi, 12(%esp)
	xorl	%ecx, %ecx
	movl	$0, 16(%esp)
LBB42_10:
	leal	7344128(,%ebx,4), %edx
	movl	%ebx, %esi
	.align	16, 0x90
LBB42_11:
	movl	%ecx, %eax
	movl	%esi, %ebx
	cmpl	$1048575, %ebx
	ja	LBB42_12
	leal	1(%ebx), %esi
	xorl	%ecx, %ecx
	cmpl	$0, (%edx)
	leal	4(%edx), %edx
	jne	LBB42_11
	testl	%eax, %eax
	movl	16(%esp), %ecx
	cmovel	%ebx, %ecx
	movl	%ecx, 16(%esp)
	incl	%eax
	movl	%eax, %ecx
	shll	$12, %ecx
	movl	20(%esp), %edx
	cmpl	%edx, %ecx
	movl	%eax, %ecx
	movl	%esi, %ebx
	jbe	LBB42_10
	jmp	LBB42_15
LBB42_12:
	movl	20(%esp), %edx
LBB42_15:
	movl	%eax, %ecx
	shll	$12, %ecx
	xorl	%ebx, %ebx
	cmpl	%edx, %ecx
	jbe	LBB42_26
	movl	16(%esp), %ebx
	movl	%ebx, %esi
	shll	$12, %esi
	addl	$11538432, %esi
	leal	(%ebx,%eax), %ecx
	cmpl	%ecx, %ebx
	jae	LBB42_20
	leal	7344128(,%ebx,4), %edx
	.align	16, 0x90
LBB42_18:
	cmpl	$1048576, %ebx
	jae	LBB42_19
	movl	%esi, (%edx)
LBB42_19:
	incl	%ebx
	addl	$4, %edx
	decl	%eax
	jne	LBB42_18
LBB42_20:
	testl	%esi, %esi
	movl	$0, %ebx
	je	LBB42_26
	movl	32(%ebp), %edx
	movl	36(%ebp), %eax
	movl	%edx, %ecx
	orl	%eax, %ecx
	je	LBB42_22
	movl	40(%ebp), %ecx
	movl	44(%ebp), %ebx
	orl	%ecx, %ebx
	je	LBB42_24
	movl	%esi, %ebx
	movl	%ebx, 8(%esp)
	movl	%ecx, 4(%esp)
	movl	%eax, (%esp)
	movl	24(%esp), %ecx
	calll	__ZN7drivers4disk4Disk4read20hbdd84e1c2e3e7f04j2bE
	jmp	LBB42_26
LBB42_22:
	movl	%esi, %ebx
	jmp	LBB42_26
LBB42_24:
	movl	%esi, %ebx
LBB42_26:
	testl	%ebp, %ebp
	movl	12(%esp), %esi
	je	LBB42_30
LBB42_27:
	movl	$7344128, %eax
	.align	16, 0x90
LBB42_28:
	cmpl	%ebp, (%eax)
	jne	LBB42_29
	movl	$0, (%eax)
LBB42_29:
	addl	$4, %eax
	cmpl	$11538432, %eax
	jne	LBB42_28
LBB42_30:
	movl	$7344128, %eax
	.align	16, 0x90
LBB42_31:
	cmpl	%edi, (%eax)
	jne	LBB42_32
	movl	$0, (%eax)
LBB42_32:
	addl	$4, %eax
	cmpl	$11538432, %eax
	jne	LBB42_31
LBB42_33:
	movzbl	8(%esi), %eax
	cmpl	$212, %eax
	jne	LBB42_39
	movl	(%esi), %eax
	testl	%eax, %eax
	je	LBB42_38
	movl	$7344128, %ecx
	.align	16, 0x90
LBB42_36:
	cmpl	%eax, (%ecx)
	jne	LBB42_37
	movl	$0, (%ecx)
LBB42_37:
	addl	$4, %ecx
	cmpl	$11538432, %ecx
	jne	LBB42_36
LBB42_38:
	movl	$0, (%esi)
	movl	$0, 4(%esi)
LBB42_39:
	movl	%ebx, %eax
	addl	$40, %esp
	popl	%esi
	popl	%edi
	popl	%ebx
	popl	%ebp
	retl
	.cfi_endproc

	.def	 __ZN8graphics3bmp3BMP9from_data20h93636cf6b589bed9UOcE;
	.scl	3;
	.type	32;
	.endef
	.align	16, 0x90
__ZN8graphics3bmp3BMP9from_data20h93636cf6b589bed9UOcE:
	.cfi_startproc
	pushl	%ebp
Ltmp236:
	.cfi_def_cfa_offset 8
	pushl	%ebx
Ltmp237:
	.cfi_def_cfa_offset 12
	pushl	%edi
Ltmp238:
	.cfi_def_cfa_offset 16
	pushl	%esi
Ltmp239:
	.cfi_def_cfa_offset 20
	subl	$48, %esp
Ltmp240:
	.cfi_def_cfa_offset 68
Ltmp241:
	.cfi_offset %esi, -20
Ltmp242:
	.cfi_offset %edi, -16
Ltmp243:
	.cfi_offset %ebx, -12
Ltmp244:
	.cfi_offset %ebp, -8
	movl	%edx, 40(%esp)
	movl	$0, 20(%esp)
	testl	%edx, %edx
	je	LBB43_1
	movzbl	(%edx), %eax
	cmpl	$66, %eax
	jne	LBB43_1
	movzbl	1(%edx), %eax
	cmpl	$77, %eax
	movl	$0, %ebx
	movl	$0, %eax
	jne	LBB43_2
	movl	%ecx, (%esp)
	movl	2(%edx), %eax
	movl	%eax, 36(%esp)
	movl	10(%edx), %eax
	movl	%eax, 32(%esp)
	movl	18(%edx), %eax
	movl	%eax, 20(%esp)
	movl	22(%edx), %edi
	movl	%edi, 16(%esp)
	movzwl	28(%edx), %ecx
	movl	%ecx, 12(%esp)
	imull	%edi, %eax
	shll	$2, %eax
	movl	%eax, 44(%esp)
	xorl	%ebx, %ebx
	testl	%eax, %eax
	movl	$0, %esi
	je	LBB43_16
	movl	%edi, 16(%esp)
	xorl	%edi, %edi
	xorl	%esi, %esi
	xorl	%ebp, %ebp
LBB43_7:
	leal	7344128(,%edi,4), %ebx
	.align	16, 0x90
LBB43_8:
	movl	%esi, %ecx
	movl	%edi, %eax
	cmpl	$1048575, %eax
	ja	LBB43_11
	leal	1(%eax), %edi
	xorl	%esi, %esi
	cmpl	$0, (%ebx)
	leal	4(%ebx), %ebx
	jne	LBB43_8
	testl	%ecx, %ecx
	cmovel	%eax, %ebp
	incl	%ecx
	movl	%ecx, %eax
	shll	$12, %eax
	cmpl	44(%esp), %eax
	movl	%ecx, %esi
	jbe	LBB43_7
LBB43_11:
	movl	%ecx, %eax
	shll	$12, %eax
	cmpl	44(%esp), %eax
	movl	$0, %esi
	movl	16(%esp), %edi
	movl	$0, %ebx
	jbe	LBB43_16
	movl	%ebp, %esi
	shll	$12, %esi
	addl	$11538432, %esi
	leal	(%ebp,%ecx), %eax
	cmpl	%eax, %ebp
	jae	LBB43_16
	leal	7344128(,%ebp,4), %eax
	.align	16, 0x90
LBB43_14:
	cmpl	$1048576, %ebp
	jae	LBB43_15
	movl	%esi, (%eax)
LBB43_15:
	incl	%ebp
	addl	$4, %eax
	decl	%ecx
	jne	LBB43_14
LBB43_16:
	movl	%esi, 4(%esp)
	testl	%edi, %edi
	je	LBB43_17
	movl	12(%esp), %ebx
	leal	7(%ebx), %esi
	shrl	$3, %esi
	leal	-1(%edi), %eax
	movl	20(%esp), %ecx
	imull	%ecx, %ebx
	addl	$31, %ebx
	shrl	$5, %ebx
	imull	%ebx, %eax
	movl	32(%esp), %edi
	leal	(%edi,%eax,4), %edi
	shll	$2, %ebx
	movl	%ebx, 12(%esp)
	leal	(,%ecx,4), %eax
	movl	%eax, 8(%esp)
	xorl	%ecx, %ecx
	movl	4(%esp), %ebx
	movl	36(%esp), %ebp
	.align	16, 0x90
LBB43_21:
	movl	%ebx, 24(%esp)
	movl	%edi, 32(%esp)
	incl	%ecx
	movl	%ecx, 28(%esp)
	movl	20(%esp), %eax
	testl	%eax, %eax
	movl	%ebx, %ecx
	movl	%eax, %ebx
	je	LBB43_18
	.align	16, 0x90
LBB43_22:
	xorl	%eax, %eax
	cmpl	%ebp, %edi
	jae	LBB43_24
	movl	(%edx,%edi), %eax
LBB43_24:
	cmpl	$3, %esi
	jne	LBB43_25
	orl	$-16777216, %eax
	movl	%eax, (%ecx)
	jmp	LBB43_26
	.align	16, 0x90
LBB43_25:
	cmpl	$4, %esi
	jne	LBB43_26
	movl	%eax, %ebp
	shrl	$8, %ebp
	movl	%ebp, %edx
	movzbl	%dl, %edx
	movl	%edx, 44(%esp)
	andl	$65280, %ebp
	roll	$24, %eax
	andl	$-65536, %eax
	orl	%ebp, %eax
	movl	36(%esp), %ebp
	addl	44(%esp), %eax
	movl	40(%esp), %edx
	movl	%eax, (%ecx)
LBB43_26:
	addl	%esi, %edi
	addl	$4, %ecx
	decl	%ebx
	jne	LBB43_22
LBB43_18:
	movl	32(%esp), %edi
	subl	12(%esp), %edi
	movl	24(%esp), %ebx
	addl	8(%esp), %ebx
	movl	16(%esp), %eax
	movl	28(%esp), %ecx
	cmpl	%eax, %ecx
	jne	LBB43_21
	movl	%eax, %ebx
LBB43_17:
	movl	(%esp), %ecx
	movl	4(%esp), %eax
	jmp	LBB43_2
LBB43_1:
	xorl	%ebx, %ebx
	xorl	%eax, %eax
LBB43_2:
	movl	%eax, (%ecx)
	movl	20(%esp), %eax
	movl	%eax, 4(%ecx)
	movl	%ebx, 8(%ecx)
	movb	$-44, 12(%ecx)
	movl	%ecx, %eax
	addl	$48, %esp
	popl	%esi
	popl	%edi
	popl	%ebx
	popl	%ebp
	retl
	.cfi_endproc

	.def	 __ZN8graphics3bmp8BMP.Drop4drop20ha7b2767d6d388b28GUcE;
	.scl	2;
	.type	32;
	.endef
	.globl	__ZN8graphics3bmp8BMP.Drop4drop20ha7b2767d6d388b28GUcE
	.align	16, 0x90
__ZN8graphics3bmp8BMP.Drop4drop20ha7b2767d6d388b28GUcE:
	.cfi_startproc
	movl	4(%esp), %eax
	movl	(%eax), %ecx
	testl	%ecx, %ecx
	je	LBB44_5
	movl	$7344128, %edx
	.align	16, 0x90
LBB44_2:
	cmpl	%ecx, (%edx)
	jne	LBB44_3
	movl	$0, (%edx)
LBB44_3:
	addl	$4, %edx
	cmpl	$11538432, %edx
	jne	LBB44_2
	movl	$0, (%eax)
	movl	$0, 8(%eax)
	movl	$0, 4(%eax)
LBB44_5:
	retl
	.cfi_endproc

	.def	 __ZN8graphics5color26Color...core..clone..Clone5clone20h228f180097347b93kVcE;
	.scl	2;
	.type	32;
	.endef
	.globl	__ZN8graphics5color26Color...core..clone..Clone5clone20h228f180097347b93kVcE
	.align	16, 0x90
__ZN8graphics5color26Color...core..clone..Clone5clone20h228f180097347b93kVcE:
	.cfi_startproc
	movl	4(%esp), %eax
	movl	(%eax), %eax
	retl
	.cfi_endproc

	.def	 __ZN8graphics7display32VBEModeInfo...core..clone..Clone5clone20h4075b45e48bb3633qYcE;
	.scl	2;
	.type	32;
	.endef
	.globl	__ZN8graphics7display32VBEModeInfo...core..clone..Clone5clone20h4075b45e48bb3633qYcE
	.align	16, 0x90
__ZN8graphics7display32VBEModeInfo...core..clone..Clone5clone20h4075b45e48bb3633qYcE:
	.cfi_startproc
	movl	4(%esp), %eax
	movl	8(%esp), %ecx
	movw	(%ecx), %dx
	movw	%dx, (%eax)
	movb	2(%ecx), %dl
	movb	%dl, 2(%eax)
	movb	3(%ecx), %dl
	movb	%dl, 3(%eax)
	movw	4(%ecx), %dx
	movw	%dx, 4(%eax)
	movw	6(%ecx), %dx
	movw	%dx, 6(%eax)
	movw	8(%ecx), %dx
	movw	%dx, 8(%eax)
	movw	10(%ecx), %dx
	movw	%dx, 10(%eax)
	movl	12(%ecx), %edx
	movl	%edx, 12(%eax)
	movw	16(%ecx), %dx
	movw	%dx, 16(%eax)
	movw	18(%ecx), %dx
	movw	%dx, 18(%eax)
	movw	20(%ecx), %dx
	movw	%dx, 20(%eax)
	movb	22(%ecx), %dl
	movb	%dl, 22(%eax)
	movb	23(%ecx), %dl
	movb	%dl, 23(%eax)
	movb	24(%ecx), %dl
	movb	%dl, 24(%eax)
	movb	25(%ecx), %dl
	movb	%dl, 25(%eax)
	movb	26(%ecx), %dl
	movb	%dl, 26(%eax)
	movb	27(%ecx), %dl
	movb	%dl, 27(%eax)
	movb	28(%ecx), %dl
	movb	%dl, 28(%eax)
	movb	29(%ecx), %dl
	movb	%dl, 29(%eax)
	movb	30(%ecx), %dl
	movb	%dl, 30(%eax)
	movb	31(%ecx), %dl
	movb	%dl, 31(%eax)
	movb	32(%ecx), %dl
	movb	%dl, 32(%eax)
	movb	33(%ecx), %dl
	movb	%dl, 33(%eax)
	movb	34(%ecx), %dl
	movb	%dl, 34(%eax)
	movb	35(%ecx), %dl
	movb	%dl, 35(%eax)
	movb	36(%ecx), %dl
	movb	%dl, 36(%eax)
	movb	37(%ecx), %dl
	movb	%dl, 37(%eax)
	movb	38(%ecx), %dl
	movb	%dl, 38(%eax)
	movb	39(%ecx), %dl
	movb	%dl, 39(%eax)
	movl	40(%ecx), %edx
	movl	%edx, 40(%eax)
	movl	44(%ecx), %edx
	movl	%edx, 44(%eax)
	movw	48(%ecx), %cx
	movw	%cx, 48(%eax)
	retl
	.cfi_endproc

	.def	 __ZN8graphics7display7Display4rect20he6f45a4fc974ca5dq9cE;
	.scl	3;
	.type	32;
	.endef
	.align	16, 0x90
__ZN8graphics7display7Display4rect20he6f45a4fc974ca5dq9cE:
	.cfi_startproc
	pushl	%ebp
Ltmp245:
	.cfi_def_cfa_offset 8
	pushl	%ebx
Ltmp246:
	.cfi_def_cfa_offset 12
	pushl	%edi
Ltmp247:
	.cfi_def_cfa_offset 16
	pushl	%esi
Ltmp248:
	.cfi_def_cfa_offset 20
	subl	$36, %esp
Ltmp249:
	.cfi_def_cfa_offset 56
Ltmp250:
	.cfi_offset %esi, -20
Ltmp251:
	.cfi_offset %edi, -16
Ltmp252:
	.cfi_offset %ebx, -12
Ltmp253:
	.cfi_offset %ebp, -8
	movl	%edx, %eax
	movl	60(%esp), %ebx
	movl	%ebx, %edx
	shrl	$24, %edx
	je	LBB47_24
	movl	%ecx, 20(%esp)
	movl	%edx, 24(%esp)
	movl	52(%ecx), %ebp
	movl	%ebp, 12(%esp)
	movl	56(%ecx), %edi
	decl	%edi
	movl	(%eax), %edx
	movl	%edx, 8(%esp)
	movl	4(%eax), %eax
	cmpl	%eax, %edi
	movl	%eax, %esi
	cmovlel	%edi, %esi
	xorl	%ecx, %ecx
	testl	%esi, %esi
	cmovsl	%ecx, %esi
	movl	56(%esp), %ecx
	addl	4(%ecx), %eax
	cmpl	%eax, %edi
	cmovlel	%edi, %eax
	movl	%eax, %edi
	testl	%edi, %edi
	movl	$0, %eax
	cmovsl	%eax, %edi
	leal	-1(%ebp), %ecx
	cmpl	%edx, %ecx
	movl	%edx, %ebp
	cmovlel	%ecx, %ebp
	testl	%ebp, %ebp
	cmovsl	%eax, %ebp
	shll	$2, %ebp
	movl	%ebp, 16(%esp)
	movl	56(%esp), %eax
	movl	(%eax), %eax
	addl	%edx, %eax
	cmpl	%eax, %ecx
	cmovgl	%eax, %ecx
	testl	%ecx, %ecx
	movl	$0, %edx
	cmovsl	%edx, %ecx
	shll	$2, %ecx
	subl	%ebp, %ecx
	movl	24(%esp), %ebp
	movl	%ecx, 32(%esp)
	cmpl	$255, %ebp
	jne	LBB47_20
	cmpl	%edi, %esi
	movl	%edi, 28(%esp)
	jae	LBB47_24
	movl	12(%esp), %edi
	negl	%edi
	movl	8(%esp), %ebp
	notl	%ebp
	cmpl	%ebp, %edi
	cmovgel	%edi, %ebp
	movl	%ebp, %ecx
	xorl	%edx, %edx
	xorl	$-1, %ebp
	movd	%ebx, %xmm0
	pshufd	$0, %xmm0, %xmm0
	notl	%ecx
	cmovsl	%edx, %ecx
	shll	$2, %ecx
	movl	%ecx, 12(%esp)
	notl	%eax
	cmpl	%eax, %edi
	cmovgel	%edi, %eax
	movl	%eax, %edi
	xorl	$-1, %eax
	movl	32(%esp), %eax
	leal	-16(%eax), %eax
	movl	%eax, 4(%esp)
	notl	%edi
	cmovsl	%edx, %edi
	leal	-4(,%edi,4), %eax
	shll	$2, %edi
	subl	%ecx, %eax
	movl	%eax, (%esp)
	subl	%ecx, %edi
	movl	%edi, 8(%esp)
	.align	16, 0x90
LBB47_4:
	movl	20(%esp), %eax
	movl	(%eax), %edi
	movl	48(%eax), %ebp
	imull	%esi, %ebp
	movl	16(%esp), %eax
	leal	(%ebp,%eax), %eax
	addl	%edi, %eax
	andl	$15, %eax
	movl	32(%esp), %edx
	movl	%edx, %ecx
	subl	%eax, %ecx
	cmpl	$16, %ecx
	movl	$0, %ecx
	jb	LBB47_12
	xorl	%ecx, %ecx
	cmpl	$4, %edx
	jb	LBB47_6
	movl	%edi, 24(%esp)
	testl	%eax, %eax
	je	LBB47_7
	movl	12(%esp), %eax
	movl	24(%esp), %ecx
	leal	(%eax,%ecx), %edi
	addl	%ebp, %edi
	xorl	%eax, %eax
	movl	(%esp), %edx
	.align	16, 0x90
LBB47_18:
	movl	%ebx, (%edi,%eax)
	leal	4(%eax), %ecx
	cmpl	$4, %edx
	jb	LBB47_7
	leal	4(%edi,%eax), %eax
	andl	$15, %eax
	addl	$-4, %edx
	testl	%eax, %eax
	movl	%ecx, %eax
	jne	LBB47_18
	jmp	LBB47_7
LBB47_6:
	movl	%edi, 24(%esp)
LBB47_7:
	movl	32(%esp), %edx
	movl	%edx, %eax
	subl	%ecx, %eax
	cmpl	$16, %eax
	jb	LBB47_11
	movl	4(%esp), %edi
	subl	%ecx, %edi
	movl	12(%esp), %eax
	leal	(%eax,%ecx), %edx
	addl	24(%esp), %edx
	addl	%ebp, %edx
	movl	8(%esp), %eax
	subl	%ecx, %eax
	.align	16, 0x90
LBB47_9:
	movdqa	%xmm0, (%edx)
	addl	$16, %edx
	addl	$-16, %eax
	cmpl	$15, %eax
	ja	LBB47_9
	andl	$-16, %edi
	leal	16(%ecx,%edi), %ecx
	movl	32(%esp), %edx
LBB47_11:
	movl	24(%esp), %edi
LBB47_12:
	incl	%esi
	movl	%edx, %eax
	subl	%ecx, %eax
	cmpl	$4, %eax
	jb	LBB47_15
	movl	12(%esp), %eax
	leal	(%eax,%ecx), %edx
	addl	%edi, %edx
	addl	%ebp, %edx
	movl	8(%esp), %eax
	subl	%ecx, %eax
	.align	16, 0x90
LBB47_14:
	movl	%ebx, (%edx)
	addl	$4, %edx
	addl	$-4, %eax
	cmpl	$3, %eax
	ja	LBB47_14
LBB47_15:
	cmpl	28(%esp), %esi
	jb	LBB47_4
	jmp	LBB47_24
LBB47_20:
	cmpl	%edi, %esi
	movl	%edi, 28(%esp)
	jae	LBB47_24
	movl	%ebx, %edx
	shrl	$16, %edx
	movzbl	%dl, %edx
	imull	%ebp, %edx
	movzbl	%bh, %ecx
	imull	%ebp, %ecx
	movzbl	%bl, %edi
	imull	%ebp, %edi
	movl	%ebp, %ebx
	xorl	$255, %ebx
	shll	$8, %edx
	andl	$16711680, %edx
	andl	$65280, %ecx
	shrl	$8, %edi
	orl	%ecx, %edi
	orl	%edx, %edi
	movl	12(%esp), %edx
	negl	%edx
	movl	8(%esp), %ebp
	notl	%ebp
	cmpl	%ebp, %edx
	cmovgel	%edx, %ebp
	movl	%ebp, %ecx
	xorl	$-1, %ebp
	notl	%ecx
	movl	$0, %ebp
	cmovsl	%ebp, %ecx
	shll	$2, %ecx
	movl	%ecx, 16(%esp)
	notl	%eax
	cmpl	%eax, %edx
	cmovgel	%edx, %eax
	movl	%eax, %edx
	xorl	$-1, %eax
	notl	%edx
	cmovsl	%ebp, %edx
	shll	$2, %edx
	subl	%ecx, %edx
	movl	%edx, 12(%esp)
	.align	16, 0x90
LBB47_22:
	leal	1(%esi), %eax
	movl	%eax, 24(%esp)
	cmpl	$3, 32(%esp)
	jbe	LBB47_23
	movl	20(%esp), %eax
	imull	48(%eax), %esi
	movl	(%eax), %ebp
	addl	16(%esp), %ebp
	addl	%esi, %ebp
	movl	12(%esp), %esi
	.align	16, 0x90
LBB47_26:
	movl	(%ebp), %edx
	movzbl	%dh, %ecx
	movzbl	%dl, %eax
	shrl	$16, %edx
	movzbl	%dl, %edx
	imull	%ebx, %edx
	shll	$8, %edx
	andl	$16711680, %edx
	imull	%ebx, %ecx
	andl	$65280, %ecx
	imull	%ebx, %eax
	shrl	$8, %eax
	orl	%ecx, %eax
	orl	%edx, %eax
	addl	%edi, %eax
	movl	%eax, (%ebp)
	addl	$4, %ebp
	addl	$-4, %esi
	cmpl	$3, %esi
	ja	LBB47_26
LBB47_23:
	movl	24(%esp), %eax
	cmpl	28(%esp), %eax
	movl	%eax, %esi
	jb	LBB47_22
LBB47_24:
	addl	$36, %esp
	popl	%esi
	popl	%edi
	popl	%ebx
	popl	%ebp
	retl
	.cfi_endproc

	.def	 __ZN8graphics7display7Display5image20h541d895935ec5b12TddE;
	.scl	3;
	.type	32;
	.endef
	.align	16, 0x90
__ZN8graphics7display7Display5image20h541d895935ec5b12TddE:
	.cfi_startproc
	pushl	%ebp
Ltmp254:
	.cfi_def_cfa_offset 8
	pushl	%ebx
Ltmp255:
	.cfi_def_cfa_offset 12
	pushl	%edi
Ltmp256:
	.cfi_def_cfa_offset 16
	pushl	%esi
Ltmp257:
	.cfi_def_cfa_offset 20
	subl	$48, %esp
Ltmp258:
	.cfi_def_cfa_offset 68
Ltmp259:
	.cfi_offset %esi, -20
Ltmp260:
	.cfi_offset %edi, -16
Ltmp261:
	.cfi_offset %ebx, -12
Ltmp262:
	.cfi_offset %ebp, -8
	movl	%ecx, 32(%esp)
	movl	72(%esp), %eax
	movl	(%edx), %ebp
	movl	4(%edx), %esi
	xorl	%ebx, %ebx
	testl	%esi, %esi
	movl	%esi, %edi
	cmovsl	%ebx, %edi
	movl	56(%ecx), %edx
	addl	4(%eax), %esi
	cmpl	%esi, %edx
	cmovlel	%edx, %esi
	movl	%esi, 8(%esp)
	testl	%ebp, %ebp
	movl	%ebp, %edx
	cmovsl	%ebx, %edx
	movl	%edx, 44(%esp)
	movl	(%eax), %ebx
	movl	52(%ecx), %ecx
	movl	%ecx, 24(%esp)
	leal	(%ebx,%ebp), %eax
	cmpl	%eax, %ecx
	movl	%eax, %edx
	cmovlel	%ecx, %edx
	cmpl	%esi, %edi
	movl	%esi, %ecx
	jae	LBB48_14
	movl	%edx, %esi
	shll	$2, %esi
	movl	%ebx, 36(%esp)
	movl	44(%esp), %edx
	leal	(,%edx,4), %edx
	subl	%edx, %esi
	movl	%esi, 40(%esp)
	shll	$2, 36(%esp)
	movl	36(%esp), %edx
	imull	%edi, %edx
	movl	68(%esp), %esi
	movl	%esi, %ebx
	subl	%edx, %ebx
	movl	%ebp, %edx
	subl	44(%esp), %edx
	shll	$2, %edx
	subl	%edx, %ebx
	movl	%ebx, 28(%esp)
	movl	36(%esp), %edx
	testl	%ebp, %ebp
	movl	$0, %ebx
	cmovnsl	%ebp, %ebx
	movl	%ebx, 16(%esp)
	leal	(%esi,%ebx,4), %esi
	shll	$2, %ebp
	subl	%ebp, %esi
	movl	24(%esp), %ebx
	notl	%ebx
	notl	%eax
	cmpl	%eax, %ebx
	cmovgel	%ebx, %eax
	shll	$2, %eax
	movl	$-8, %ebx
	subl	%eax, %ebx
	movl	%ebx, 4(%esp)
	movl	$-4, %ebp
	subl	%eax, %ebp
	movl	32(%esp), %eax
	movl	(%eax), %eax
	movl	%eax, 20(%esp)
	movl	44(%esp), %eax
	movl	20(%esp), %ebx
	leal	(%ebx,%eax,4), %eax
	movl	%eax, 24(%esp)
	movl	16(%esp), %eax
	movl	20(%esp), %ebx
	leal	(%ebx,%eax,4), %eax
	movl	%eax, 20(%esp)
	movl	16(%esp), %eax
	leal	(,%eax,4), %eax
	subl	%eax, 4(%esp)
	subl	%eax, %ebp
	movl	%ebp, 12(%esp)
	movl	40(%esp), %eax
	leal	-16(%eax), %eax
	movl	%eax, (%esp)
	.align	16, 0x90
LBB48_2:
	movl	%edi, %eax
	imull	%edx, %eax
	movl	28(%esp), %edx
	leal	(%eax,%edx), %edx
	movl	32(%esp), %eax
	movl	48(%eax), %ebx
	imull	%edi, %ebx
	movl	%ebx, 44(%esp)
	movl	24(%esp), %eax
	leal	(%eax,%ebx), %eax
	xorl	%eax, %edx
	xorl	%ebx, %ebx
	testb	$15, %dl
	movl	%edi, %ebp
	jne	LBB48_10
	xorl	%ebx, %ebx
	cmpl	$4, 40(%esp)
	jb	LBB48_4
	movl	%ebp, 16(%esp)
	andl	$15, %eax
	je	LBB48_5
	movl	20(%esp), %eax
	movl	44(%esp), %ecx
	leal	(%eax,%ecx), %eax
	xorl	%edx, %edx
	movl	4(%esp), %edi
	movl	%esi, %ebp
	.align	16, 0x90
LBB48_17:
	movl	(%ebp), %ebx
	movl	%ebx, (%eax,%edx)
	leal	4(%edx), %ebx
	cmpl	$4, %edi
	jb	LBB48_5
	leal	4(%eax,%edx), %edx
	andl	$15, %edx
	addl	$4, %ebp
	addl	$-4, %edi
	testl	%edx, %edx
	movl	%ebx, %edx
	jne	LBB48_17
	jmp	LBB48_5
LBB48_4:
	movl	%ebp, 16(%esp)
LBB48_5:
	movl	40(%esp), %eax
	subl	%ebx, %eax
	cmpl	$16, %eax
	jb	LBB48_9
	movl	(%esp), %eax
	subl	%ebx, %eax
	movl	20(%esp), %ecx
	movl	44(%esp), %edx
	leal	(%ecx,%edx), %edi
	movl	12(%esp), %ebp
	subl	%ebx, %ebp
	movl	%ebx, %edx
	.align	16, 0x90
LBB48_7:
	movaps	(%esi,%edx), %xmm0
	movaps	%xmm0, (%edi,%edx)
	addl	$16, %edx
	addl	$-16, %ebp
	cmpl	$15, %ebp
	ja	LBB48_7
	andl	$-16, %eax
	leal	16(%ebx,%eax), %ebx
LBB48_9:
	movl	8(%esp), %ecx
	movl	16(%esp), %ebp
LBB48_10:
	incl	%ebp
	movl	40(%esp), %eax
	subl	%ebx, %eax
	cmpl	$4, %eax
	jb	LBB48_13
	movl	20(%esp), %eax
	movl	44(%esp), %edx
	leal	(%edx,%eax), %eax
	movl	12(%esp), %edi
	subl	%ebx, %edi
	.align	16, 0x90
LBB48_12:
	movl	(%esi,%ebx), %edx
	movl	%edx, (%eax,%ebx)
	addl	$4, %ebx
	addl	$-4, %edi
	cmpl	$3, %edi
	ja	LBB48_12
LBB48_13:
	movl	36(%esp), %edx
	addl	%edx, %esi
	movl	%ebp, %edi
	cmpl	%ecx, %edi
	jb	LBB48_2
LBB48_14:
	addl	$48, %esp
	popl	%esi
	popl	%edi
	popl	%ebx
	popl	%ebp
	retl
	.cfi_endproc

	.def	 __ZN8graphics5point26Point...core..clone..Clone5clone20hfc228391354a4f965zdE;
	.scl	2;
	.type	32;
	.endef
	.globl	__ZN8graphics5point26Point...core..clone..Clone5clone20hfc228391354a4f965zdE
	.align	16, 0x90
__ZN8graphics5point26Point...core..clone..Clone5clone20hfc228391354a4f965zdE:
	.cfi_startproc
	movl	4(%esp), %eax
	movl	8(%esp), %ecx
	movl	(%ecx), %edx
	movl	%edx, (%eax)
	movl	4(%ecx), %ecx
	movl	%ecx, 4(%eax)
	retl
	.cfi_endproc

	.def	 __ZN8graphics5point9Point.Add3add20hd8df931e1e3494faVAdE;
	.scl	2;
	.type	32;
	.endef
	.globl	__ZN8graphics5point9Point.Add3add20hd8df931e1e3494faVAdE
	.align	16, 0x90
__ZN8graphics5point9Point.Add3add20hd8df931e1e3494faVAdE:
	.cfi_startproc
	pushl	%esi
Ltmp263:
	.cfi_def_cfa_offset 8
Ltmp264:
	.cfi_offset %esi, -8
	movl	8(%esp), %eax
	movl	12(%esp), %ecx
	movl	16(%esp), %edx
	movl	(%edx), %esi
	addl	(%ecx), %esi
	movl	%esi, (%eax)
	movl	4(%edx), %edx
	addl	4(%ecx), %edx
	movl	%edx, 4(%eax)
	popl	%esi
	retl
	.cfi_endproc

	.def	 __ZN8graphics5point9Point.Sub3sub20hec786768712d14f6mBdE;
	.scl	2;
	.type	32;
	.endef
	.globl	__ZN8graphics5point9Point.Sub3sub20hec786768712d14f6mBdE
	.align	16, 0x90
__ZN8graphics5point9Point.Sub3sub20hec786768712d14f6mBdE:
	.cfi_startproc
	pushl	%esi
Ltmp265:
	.cfi_def_cfa_offset 8
Ltmp266:
	.cfi_offset %esi, -8
	movl	8(%esp), %eax
	movl	16(%esp), %ecx
	movl	12(%esp), %edx
	movl	(%edx), %esi
	subl	(%ecx), %esi
	movl	%esi, (%eax)
	movl	4(%edx), %edx
	subl	4(%ecx), %edx
	movl	%edx, 4(%eax)
	popl	%esi
	retl
	.cfi_endproc

	.def	 __ZN8graphics4size25Size...core..clone..Clone5clone20h35354a55259e0bbaVBdE;
	.scl	2;
	.type	32;
	.endef
	.globl	__ZN8graphics4size25Size...core..clone..Clone5clone20h35354a55259e0bbaVBdE
	.align	16, 0x90
__ZN8graphics4size25Size...core..clone..Clone5clone20h35354a55259e0bbaVBdE:
	.cfi_startproc
	movl	4(%esp), %eax
	movl	8(%esp), %ecx
	movl	(%ecx), %edx
	movl	%edx, (%eax)
	movl	4(%ecx), %ecx
	movl	%ecx, 4(%eax)
	retl
	.cfi_endproc

	.def	 __ZN8graphics4size8Size.Add3add20h4eff4d3af24f0ae6LCdE;
	.scl	2;
	.type	32;
	.endef
	.globl	__ZN8graphics4size8Size.Add3add20h4eff4d3af24f0ae6LCdE
	.align	16, 0x90
__ZN8graphics4size8Size.Add3add20h4eff4d3af24f0ae6LCdE:
	.cfi_startproc
	pushl	%esi
Ltmp267:
	.cfi_def_cfa_offset 8
Ltmp268:
	.cfi_offset %esi, -8
	movl	8(%esp), %eax
	movl	12(%esp), %ecx
	movl	16(%esp), %edx
	movl	(%edx), %esi
	addl	(%ecx), %esi
	movl	%esi, (%eax)
	movl	4(%edx), %edx
	addl	4(%ecx), %edx
	movl	%edx, 4(%eax)
	popl	%esi
	retl
	.cfi_endproc

	.def	 __ZN8graphics4size8Size.Sub3sub20h43905ec8ed6469dfcDdE;
	.scl	2;
	.type	32;
	.endef
	.globl	__ZN8graphics4size8Size.Sub3sub20h43905ec8ed6469dfcDdE
	.align	16, 0x90
__ZN8graphics4size8Size.Sub3sub20h43905ec8ed6469dfcDdE:
	.cfi_startproc
	pushl	%edi
Ltmp269:
	.cfi_def_cfa_offset 8
	pushl	%esi
Ltmp270:
	.cfi_def_cfa_offset 12
Ltmp271:
	.cfi_offset %esi, -12
Ltmp272:
	.cfi_offset %edi, -8
	movl	12(%esp), %eax
	movl	20(%esp), %ecx
	movl	16(%esp), %edx
	movl	(%edx), %esi
	movl	(%ecx), %edi
	cmpl	%edi, %esi
	cmovbel	%esi, %edi
	subl	%edi, %esi
	movl	%esi, (%eax)
	movl	4(%edx), %edx
	movl	4(%ecx), %ecx
	cmpl	%ecx, %edx
	cmovbel	%edx, %ecx
	subl	%ecx, %edx
	movl	%edx, 4(%eax)
	popl	%esi
	popl	%edi
	retl
	.cfi_endproc

	.def	 __ZN8graphics6window6Window4draw20hcd6a4a0ebffd10dfeEdE;
	.scl	3;
	.type	32;
	.endef
	.align	16, 0x90
__ZN8graphics6window6Window4draw20hcd6a4a0ebffd10dfeEdE:
	.cfi_startproc
	pushl	%ebp
Ltmp273:
	.cfi_def_cfa_offset 8
	pushl	%ebx
Ltmp274:
	.cfi_def_cfa_offset 12
	pushl	%edi
Ltmp275:
	.cfi_def_cfa_offset 16
	pushl	%esi
Ltmp276:
	.cfi_def_cfa_offset 20
	subl	$100, %esp
Ltmp277:
	.cfi_def_cfa_offset 120
Ltmp278:
	.cfi_offset %esi, -20
Ltmp279:
	.cfi_offset %edi, -16
Ltmp280:
	.cfi_offset %ebx, -12
Ltmp281:
	.cfi_offset %ebp, -8
	movl	%edx, %ebx
	movl	%ebx, 12(%esp)
	cmpb	$0, 41(%ecx)
	je	LBB55_3
	xorl	%ebx, %ebx
	jmp	LBB55_2
LBB55_3:
	movl	(%ecx), %esi
	movl	4(%ecx), %edx
	movl	%edx, 64(%esp)
	leal	-2(%esi), %eax
	leal	-18(%edx), %edx
	movl	%eax, 92(%esp)
	movl	%edx, 96(%esp)
	movl	8(%ecx), %edi
	leal	4(%edi), %eax
	movl	%eax, 84(%esp)
	movl	$18, 88(%esp)
	movl	32(%ecx), %eax
	movl	%eax, 4(%esp)
	leal	84(%esp), %eax
	movl	%eax, (%esp)
	movl	%ecx, %ebp
	movl	%ebp, 8(%esp)
	leal	92(%esp), %edx
	movl	%ebx, %ecx
	movl	%ebx, 12(%esp)
	calll	__ZN8graphics7display7Display4rect20he6f45a4fc974ca5dq9cE
	movl	%ebp, %edx
	movl	20(%edx), %eax
	testl	%eax, %eax
	je	LBB55_52
	addl	$-17, 64(%esp)
	leal	28(,%esi,4), %ecx
	movl	%ecx, 16(%esp)
	xorl	%ecx, %ecx
	movl	%esi, %ebx
	jmp	LBB55_5
	.align	16, 0x90
LBB55_8:
	movl	(%edx), %esi
	movl	8(%edx), %edi
	addl	$32, 16(%esp)
	movl	20(%esp), %ebx
LBB55_5:
	leal	1(%ecx), %ebp
	movl	%ebp, 24(%esp)
	leal	8(%ebx), %ebp
	movl	%ebp, 20(%esp)
	addl	%edi, %esi
	cmpl	%esi, %ebp
	jg	LBB55_7
	movl	12(%esp), %esi
	movl	12(%esi), %esi
	testl	%esi, %esi
	je	LBB55_7
	movl	16(%edx), %eax
	movl	(%eax,%ecx,4), %eax
	movl	%eax, 60(%esp)
	movl	28(%edx), %ecx
	movl	%ecx, 72(%esp)
	movl	12(%esp), %eax
	movl	48(%eax), %ecx
	movl	%ecx, 56(%esp)
	movl	52(%eax), %edx
	movl	%edx, 76(%esp)
	movl	56(%eax), %edx
	movl	%edx, 80(%esp)
	movl	%ebx, %ebp
	leal	7(%ebp), %edi
	movl	%edi, 52(%esp)
	movl	64(%esp), %edx
	imull	%ecx, %edx
	movl	%edx, 68(%esp)
	movl	60(%esp), %ecx
	shll	$4, %ecx
	addl	%ecx, %esi
	movl	%esi, 60(%esp)
	movl	(%eax), %ebx
	addl	16(%esp), %ebx
	leal	6(%ebp), %eax
	movl	%eax, 48(%esp)
	leal	5(%ebp), %eax
	movl	%eax, 44(%esp)
	leal	4(%ebp), %eax
	movl	%eax, 40(%esp)
	leal	3(%ebp), %eax
	movl	%eax, 36(%esp)
	leal	2(%ebp), %eax
	movl	%eax, 32(%esp)
	leal	1(%ebp), %eax
	movl	%eax, 28(%esp)
	xorl	%edi, %edi
	.align	16, 0x90
LBB55_10:
	movb	(%esi,%edi), %al
	movl	64(%esp), %esi
	leal	(%esi,%edi), %esi
	testb	%al, %al
	jns	LBB55_15
	cmpl	80(%esp), %esi
	jge	LBB55_15
	cmpl	76(%esp), %ebp
	jge	LBB55_15
	movl	%ebp, %ecx
	orl	%esi, %ebp
	movl	%ecx, %ebp
	js	LBB55_15
	movl	72(%esp), %ecx
	movl	68(%esp), %edx
	movl	%ecx, -28(%edx,%ebx)
	.align	16, 0x90
LBB55_15:
	testb	$64, %al
	je	LBB55_20
	cmpl	80(%esp), %esi
	jge	LBB55_20
	movl	28(%esp), %ecx
	cmpl	76(%esp), %ecx
	jge	LBB55_20
	movl	%ebp, %ecx
	movl	28(%esp), %ebp
	orl	%esi, %ebp
	movl	%ecx, %ebp
	js	LBB55_20
	movl	72(%esp), %ecx
	movl	68(%esp), %edx
	movl	%ecx, -24(%edx,%ebx)
LBB55_20:
	testb	$32, %al
	je	LBB55_25
	cmpl	80(%esp), %esi
	jge	LBB55_25
	movl	32(%esp), %ecx
	cmpl	76(%esp), %ecx
	jge	LBB55_25
	movl	%ebp, %ecx
	movl	32(%esp), %ebp
	orl	%esi, %ebp
	movl	%ecx, %ebp
	js	LBB55_25
	movl	72(%esp), %ecx
	movl	68(%esp), %edx
	movl	%ecx, -20(%edx,%ebx)
LBB55_25:
	testb	$16, %al
	je	LBB55_30
	cmpl	80(%esp), %esi
	jge	LBB55_30
	movl	36(%esp), %ecx
	cmpl	76(%esp), %ecx
	jge	LBB55_30
	movl	%ebp, %ecx
	movl	36(%esp), %ebp
	orl	%esi, %ebp
	movl	%ecx, %ebp
	js	LBB55_30
	movl	72(%esp), %ecx
	movl	68(%esp), %edx
	movl	%ecx, -16(%edx,%ebx)
LBB55_30:
	testb	$8, %al
	je	LBB55_35
	cmpl	80(%esp), %esi
	jge	LBB55_35
	movl	40(%esp), %ecx
	cmpl	76(%esp), %ecx
	jge	LBB55_35
	movl	%ebp, %ecx
	movl	40(%esp), %ebp
	orl	%esi, %ebp
	movl	%ecx, %ebp
	js	LBB55_35
	movl	72(%esp), %ecx
	movl	68(%esp), %edx
	movl	%ecx, -12(%edx,%ebx)
LBB55_35:
	testb	$4, %al
	je	LBB55_40
	cmpl	80(%esp), %esi
	jge	LBB55_40
	movl	44(%esp), %ecx
	cmpl	76(%esp), %ecx
	jge	LBB55_40
	movl	%ebp, %ecx
	movl	44(%esp), %ebp
	orl	%esi, %ebp
	movl	%ecx, %ebp
	js	LBB55_40
	movl	72(%esp), %ecx
	movl	68(%esp), %edx
	movl	%ecx, -8(%edx,%ebx)
LBB55_40:
	testb	$2, %al
	je	LBB55_45
	cmpl	80(%esp), %esi
	jge	LBB55_45
	movl	48(%esp), %ecx
	cmpl	76(%esp), %ecx
	jge	LBB55_45
	movl	%ebp, %ecx
	movl	48(%esp), %ebp
	orl	%esi, %ebp
	movl	%ecx, %ebp
	js	LBB55_45
	movl	72(%esp), %ecx
	movl	68(%esp), %edx
	movl	%ecx, -4(%edx,%ebx)
LBB55_45:
	testb	$1, %al
	je	LBB55_50
	cmpl	80(%esp), %esi
	jge	LBB55_50
	movl	52(%esp), %eax
	cmpl	76(%esp), %eax
	jge	LBB55_50
	orl	52(%esp), %esi
	js	LBB55_50
	movl	72(%esp), %eax
	movl	68(%esp), %ecx
	movl	%eax, (%ecx,%ebx)
LBB55_50:
	incl	%edi
	addl	56(%esp), %ebx
	cmpl	$16, %edi
	movl	60(%esp), %esi
	jne	LBB55_10
	movl	8(%esp), %edx
	movl	20(%edx), %eax
LBB55_7:
	movl	24(%esp), %ecx
	cmpl	%eax, %ecx
	jb	LBB55_8
LBB55_52:
	movl	12(%esp), %eax
	movb	$1, %bl
	cmpb	$0, 40(%edx)
	jne	LBB55_2
	movl	(%edx), %ecx
	movl	%ecx, 80(%esp)
	movl	4(%edx), %edi
	movl	%edi, 76(%esp)
	leal	-2(%ecx), %ecx
	movl	%ecx, 68(%esp)
	movl	%ecx, 92(%esp)
	movl	%edi, 96(%esp)
	movl	12(%edx), %esi
	movl	$2, 84(%esp)
	movl	%esi, 88(%esp)
	movl	32(%edx), %ecx
	movl	%ecx, 72(%esp)
	movl	%ecx, 4(%esp)
	leal	84(%esp), %ebp
	movl	%ebp, (%esp)
	movl	%edx, %ebp
	movl	%ebp, 8(%esp)
	leal	92(%esp), %edx
	movl	%eax, %ecx
	calll	__ZN8graphics7display7Display4rect20he6f45a4fc974ca5dq9cE
	leal	(%edi,%esi), %eax
	movl	68(%esp), %ecx
	movl	%ecx, 92(%esp)
	movl	%eax, 96(%esp)
	movl	8(%ebp), %edi
	leal	4(%edi), %eax
	movl	%eax, 84(%esp)
	movl	$2, 88(%esp)
	movl	72(%esp), %eax
	movl	%eax, 4(%esp)
	leal	84(%esp), %ebp
	movl	%ebp, (%esp)
	leal	92(%esp), %edx
	movl	12(%esp), %ecx
	calll	__ZN8graphics7display7Display4rect20he6f45a4fc974ca5dq9cE
	movl	80(%esp), %eax
	leal	(%eax,%edi), %eax
	movl	%eax, 92(%esp)
	movl	76(%esp), %eax
	movl	%eax, 96(%esp)
	movl	$2, 84(%esp)
	movl	%esi, 88(%esp)
	movl	72(%esp), %eax
	movl	%eax, 4(%esp)
	movl	%ebp, (%esp)
	leal	92(%esp), %edx
	movl	12(%esp), %ebp
	movl	%ebp, %ecx
	calll	__ZN8graphics7display7Display4rect20he6f45a4fc974ca5dq9cE
	movl	80(%esp), %eax
	movl	%eax, 92(%esp)
	movl	76(%esp), %eax
	movl	%eax, 96(%esp)
	movl	%edi, 84(%esp)
	movl	%esi, 88(%esp)
	movl	8(%esp), %eax
	movl	36(%eax), %eax
	movl	%eax, 4(%esp)
	leal	84(%esp), %eax
	movl	%eax, (%esp)
	leal	92(%esp), %edx
	movl	%ebp, %ecx
	calll	__ZN8graphics7display7Display4rect20he6f45a4fc974ca5dq9cE
LBB55_2:
	movzbl	%bl, %eax
	addl	$100, %esp
	popl	%esi
	popl	%edi
	popl	%ebx
	popl	%ebp
	retl
	.cfi_endproc

	.def	 __ZN8graphics6window6Window8on_mouse20hcf7e2d672777fc6eKHdE;
	.scl	3;
	.type	32;
	.endef
	.align	16, 0x90
__ZN8graphics6window6Window8on_mouse20hcf7e2d672777fc6eKHdE:
	.cfi_startproc
	pushl	%ebp
Ltmp282:
	.cfi_def_cfa_offset 8
	pushl	%ebx
Ltmp283:
	.cfi_def_cfa_offset 12
	pushl	%edi
Ltmp284:
	.cfi_def_cfa_offset 16
	pushl	%esi
Ltmp285:
	.cfi_def_cfa_offset 20
	pushl	%eax
Ltmp286:
	.cfi_def_cfa_offset 24
Ltmp287:
	.cfi_offset %esi, -20
Ltmp288:
	.cfi_offset %edi, -16
Ltmp289:
	.cfi_offset %ebx, -12
Ltmp290:
	.cfi_offset %ebp, -8
	movl	24(%esp), %eax
	movb	28(%esp), %bl
	testb	%bl, %bl
	je	LBB56_31
	cmpb	$0, 8(%eax)
	je	LBB56_13
	cmpb	$0, 40(%ecx)
	jne	LBB56_6
	movl	(%ecx), %esi
	leal	-2(%esi), %ebx
	movl	(%edx), %edi
	cmpl	%ebx, %edi
	jl	LBB56_6
	movl	8(%ecx), %ebx
	leal	4(%ebx,%esi), %esi
	cmpl	%esi, %edi
	jge	LBB56_6
	movl	4(%ecx), %esi
	leal	-18(%esi), %ebx
	movl	4(%edx), %edi
	cmpl	%ebx, %edi
	jge	LBB56_33
LBB56_6:
	xorl	%ebx, %ebx
LBB56_7:
	cmpb	$0, 60(%ecx)
	jne	LBB56_14
	movl	(%ecx), %esi
	leal	-2(%esi), %ebp
	movl	(%edx), %edi
	cmpl	%ebp, %edi
	jl	LBB56_14
	movl	8(%ecx), %ebp
	leal	4(%ebp,%esi), %esi
	cmpl	%esi, %edi
	jge	LBB56_14
	movl	4(%ecx), %esi
	leal	-18(%esi), %ebp
	movl	4(%edx), %edi
	cmpl	%ebp, %edi
	jl	LBB56_14
	cmpl	%esi, %edi
	jge	LBB56_14
	movb	$1, 42(%ecx)
	movb	$1, %bl
	jmp	LBB56_14
LBB56_31:
	movb	$0, 42(%ecx)
	xorl	%ebx, %ebx
	jmp	LBB56_32
LBB56_13:
	movb	$0, 42(%ecx)
	xorl	%ebx, %ebx
LBB56_14:
	cmpb	$0, 9(%eax)
	je	LBB56_26
	movl	%eax, %ebp
	movb	40(%ecx), %al
	movb	%al, 3(%esp)
	testb	%al, %al
	je	LBB56_17
	movl	%ebp, %eax
	jmp	LBB56_20
LBB56_17:
	movl	(%ecx), %esi
	leal	-2(%esi), %eax
	movl	(%edx), %edi
	cmpl	%eax, %edi
	movl	%ebp, %eax
	jl	LBB56_20
	movl	8(%ecx), %ebp
	leal	4(%ebp,%esi), %esi
	cmpl	%esi, %edi
	jge	LBB56_20
	movl	4(%ecx), %esi
	leal	-18(%esi), %ebp
	movl	4(%edx), %edi
	cmpl	%ebp, %edi
	jl	LBB56_20
	movl	12(%ecx), %ebp
	leal	2(%ebp,%esi), %esi
	cmpl	%esi, %edi
	movb	$1, 2(%esp)
	jl	LBB56_30
	movb	%bl, 2(%esp)
LBB56_30:
	movb	2(%esp), %bl
LBB56_20:
	cmpb	$0, 61(%ecx)
	jne	LBB56_26
	movl	(%ecx), %esi
	leal	-2(%esi), %ebp
	movl	(%edx), %edi
	cmpl	%ebp, %edi
	jl	LBB56_26
	movl	8(%ecx), %ebp
	leal	4(%ebp,%esi), %esi
	cmpl	%esi, %edi
	jge	LBB56_26
	movl	4(%ecx), %esi
	leal	-18(%esi), %ebp
	movl	4(%edx), %edi
	cmpl	%ebp, %edi
	jl	LBB56_26
	cmpl	%esi, %edi
	jge	LBB56_26
	movl	%eax, %esi
	movb	3(%esp), %al
	xorb	$1, %al
	movb	%al, 40(%ecx)
	movl	%esi, %eax
	movb	$1, %bl
LBB56_26:
	cmpb	$0, 42(%ecx)
	je	LBB56_32
	movl	(%edx), %esi
	addl	(%ecx), %esi
	subl	44(%ecx), %esi
	movl	%esi, (%ecx)
	movl	4(%edx), %esi
	addl	4(%ecx), %esi
	subl	48(%ecx), %esi
	movl	%esi, 4(%ecx)
	movb	$1, %bl
LBB56_32:
	movsd	(%edx), %xmm0
	movsd	%xmm0, 44(%ecx)
	movl	8(%eax), %edx
	movl	%edx, 60(%ecx)
	movsd	(%eax), %xmm0
	movsd	%xmm0, 52(%ecx)
	andb	$1, %bl
	movzbl	%bl, %eax
	addl	$4, %esp
	popl	%esi
	popl	%edi
	popl	%ebx
	popl	%ebp
	retl
LBB56_33:
	movl	12(%ecx), %ebx
	leal	2(%ebx,%esi), %esi
	cmpl	%esi, %edi
	setl	%bl
	jmp	LBB56_7
	.cfi_endproc

	.def	 __ZN7network3arp30ARPHeader...core..clone..Clone5clone20h45c9af36bc1dfabepNdE;
	.scl	2;
	.type	32;
	.endef
	.globl	__ZN7network3arp30ARPHeader...core..clone..Clone5clone20h45c9af36bc1dfabepNdE
	.align	16, 0x90
__ZN7network3arp30ARPHeader...core..clone..Clone5clone20h45c9af36bc1dfabepNdE:
	.cfi_startproc
	movl	4(%esp), %eax
	movl	8(%esp), %ecx
	movw	(%ecx), %dx
	movw	%dx, (%eax)
	movw	2(%ecx), %dx
	movw	%dx, 2(%eax)
	movb	4(%ecx), %dl
	movb	%dl, 4(%eax)
	movb	5(%ecx), %dl
	movb	%dl, 5(%eax)
	movw	6(%ecx), %dx
	movw	%dx, 6(%eax)
	movw	12(%ecx), %dx
	movw	%dx, 12(%eax)
	movl	8(%ecx), %edx
	movl	%edx, 8(%eax)
	movl	14(%ecx), %edx
	movl	%edx, 14(%eax)
	movw	22(%ecx), %dx
	movw	%dx, 22(%eax)
	movl	18(%ecx), %edx
	movl	%edx, 18(%eax)
	movl	24(%ecx), %ecx
	movl	%ecx, 24(%eax)
	retl
	.cfi_endproc

	.def	 __ZN7network6common24n16...core..clone..Clone5clone20h0f01780e0de31369BUdE;
	.scl	2;
	.type	32;
	.endef
	.globl	__ZN7network6common24n16...core..clone..Clone5clone20h0f01780e0de31369BUdE
	.align	16, 0x90
__ZN7network6common24n16...core..clone..Clone5clone20h0f01780e0de31369BUdE:
	.cfi_startproc
	movl	4(%esp), %eax
	movzwl	(%eax), %eax
	retl
	.cfi_endproc

	.def	 __ZN7network6common28MACAddr...core..clone..Clone5clone20hc1aca79bf17275807YdE;
	.scl	2;
	.type	32;
	.endef
	.globl	__ZN7network6common28MACAddr...core..clone..Clone5clone20hc1aca79bf17275807YdE
	.align	16, 0x90
__ZN7network6common28MACAddr...core..clone..Clone5clone20hc1aca79bf17275807YdE:
	.cfi_startproc
	movl	4(%esp), %eax
	movl	8(%esp), %ecx
	movw	4(%ecx), %dx
	movw	%dx, 4(%eax)
	movl	(%ecx), %ecx
	movl	%ecx, (%eax)
	retl
	.cfi_endproc

	.def	 __ZN7network6common29IPv4Addr...core..clone..Clone5clone20h2f4216aa57c65610G1dE;
	.scl	2;
	.type	32;
	.endef
	.globl	__ZN7network6common29IPv4Addr...core..clone..Clone5clone20h2f4216aa57c65610G1dE
	.align	16, 0x90
__ZN7network6common29IPv4Addr...core..clone..Clone5clone20h2f4216aa57c65610G1dE:
	.cfi_startproc
	movl	4(%esp), %eax
	movl	(%eax), %eax
	retl
	.cfi_endproc

	.def	 __ZN7network3arp13ARP.FromBytes10from_bytes20h62bf7f9c1c42974bROdE;
	.scl	2;
	.type	32;
	.endef
	.globl	__ZN7network3arp13ARP.FromBytes10from_bytes20h62bf7f9c1c42974bROdE
	.align	16, 0x90
__ZN7network3arp13ARP.FromBytes10from_bytes20h62bf7f9c1c42974bROdE:
	.cfi_startproc
	pushl	%edi
Ltmp291:
	.cfi_def_cfa_offset 8
	pushl	%esi
Ltmp292:
	.cfi_def_cfa_offset 12
	subl	$8, %esp
Ltmp293:
	.cfi_def_cfa_offset 20
Ltmp294:
	.cfi_offset %esi, -12
Ltmp295:
	.cfi_offset %edi, -8
	movl	20(%esp), %esi
	movl	24(%esp), %edi
	movl	4(%edi), %eax
	cmpl	$28, %eax
	jb	LBB61_9
	movl	(%edi), %ecx
	movl	24(%ecx), %edx
	movl	%edx, 28(%esi)
	movsd	16(%ecx), %xmm0
	movsd	%xmm0, 20(%esi)
	movsd	(%ecx), %xmm0
	movsd	8(%ecx), %xmm1
	movsd	%xmm1, 12(%esi)
	movsd	%xmm0, 4(%esi)
	leal	32(%esi), %ecx
	addl	$-28, %eax
	movl	%eax, 4(%esp)
	movl	$28, (%esp)
	movl	%edi, %edx
	calll	__ZN6common6vector15Vector$LT$T$GT$3sub19h993462767208734639E
	movl	$1, (%esi)
	jmp	LBB61_2
LBB61_9:
	movl	_const6974+40, %eax
	movl	%eax, 40(%esi)
	movsd	_const6974+32, %xmm0
	movsd	%xmm0, 32(%esi)
	movsd	_const6974+24, %xmm0
	movsd	%xmm0, 24(%esi)
	movsd	_const6974+16, %xmm0
	movsd	%xmm0, 16(%esi)
	movsd	_const6974+8, %xmm0
	movsd	%xmm0, 8(%esi)
	movsd	_const6974, %xmm0
	movsd	%xmm0, (%esi)
LBB61_2:
	movzbl	8(%edi), %eax
	cmpl	$212, %eax
	jne	LBB61_8
	movl	(%edi), %eax
	testl	%eax, %eax
	je	LBB61_7
	movl	$7344128, %ecx
	.align	16, 0x90
LBB61_5:
	cmpl	%eax, (%ecx)
	jne	LBB61_6
	movl	$0, (%ecx)
LBB61_6:
	addl	$4, %ecx
	cmpl	$11538432, %ecx
	jne	LBB61_5
LBB61_7:
	movl	$0, (%edi)
	movl	$0, 4(%edi)
LBB61_8:
	movl	%esi, %eax
	addl	$8, %esp
	popl	%esi
	popl	%edi
	retl
	.cfi_endproc

	.def	 __ZN6common6vector15Vector$LT$T$GT$3sub19h993462767208734639E;
	.scl	3;
	.type	32;
	.endef
	.align	16, 0x90
__ZN6common6vector15Vector$LT$T$GT$3sub19h993462767208734639E:
	.cfi_startproc
	pushl	%ebp
Ltmp296:
	.cfi_def_cfa_offset 8
	pushl	%ebx
Ltmp297:
	.cfi_def_cfa_offset 12
	pushl	%edi
Ltmp298:
	.cfi_def_cfa_offset 16
	pushl	%esi
Ltmp299:
	.cfi_def_cfa_offset 20
	subl	$16, %esp
Ltmp300:
	.cfi_def_cfa_offset 36
Ltmp301:
	.cfi_offset %esi, -20
Ltmp302:
	.cfi_offset %edi, -16
Ltmp303:
	.cfi_offset %ebx, -12
Ltmp304:
	.cfi_offset %ebp, -8
	movl	36(%esp), %eax
	movl	4(%edx), %esi
	cmpl	%eax, %esi
	cmovbl	%esi, %eax
	movl	40(%esp), %edi
	addl	%eax, %edi
	cmpl	%esi, %edi
	cmoval	%esi, %edi
	movl	%edi, %esi
	subl	%eax, %esi
	jne	LBB62_1
	movl	$0, (%ecx)
	movl	$0, 4(%ecx)
	jmp	LBB62_17
LBB62_1:
	movl	%esi, 12(%esp)
	movl	%edi, (%esp)
	movl	%edx, 4(%esp)
	movl	%ecx, 8(%esp)
	xorl	%edx, %edx
	xorl	%ebp, %ebp
	xorl	%ebx, %ebx
LBB62_2:
	leal	7344128(,%edx,4), %esi
	.align	16, 0x90
LBB62_3:
	movl	%ebp, %ecx
	movl	%edx, %edi
	cmpl	$1048575, %edi
	ja	LBB62_6
	leal	1(%edi), %edx
	xorl	%ebp, %ebp
	cmpl	$0, (%esi)
	leal	4(%esi), %esi
	jne	LBB62_3
	testl	%ecx, %ecx
	cmovel	%edi, %ebx
	incl	%ecx
	movl	%ecx, %esi
	shll	$12, %esi
	cmpl	12(%esp), %esi
	movl	%ecx, %ebp
	jbe	LBB62_2
LBB62_6:
	movl	%ecx, %edx
	shll	$12, %edx
	xorl	%edi, %edi
	movl	12(%esp), %ebp
	cmpl	%ebp, %edx
	jbe	LBB62_12
	movl	%ebx, %edi
	shll	$12, %edi
	addl	$11538432, %edi
	leal	(%ebx,%ecx), %edx
	cmpl	%edx, %ebx
	jae	LBB62_12
	movl	%ebp, %edx
	leal	7344128(,%ebx,4), %ebp
	.align	16, 0x90
LBB62_9:
	cmpl	$1048576, %ebx
	jae	LBB62_10
	movl	%edi, (%ebp)
LBB62_10:
	incl	%ebx
	addl	$4, %ebp
	decl	%ecx
	jne	LBB62_9
	movl	%edx, %ebp
LBB62_12:
	movl	(%esp), %ebx
	cmpl	%eax, %ebx
	movl	4(%esp), %esi
	jbe	LBB62_15
	movl	%edi, %ecx
	.align	16, 0x90
LBB62_14:
	movl	(%esi), %edx
	movb	(%edx,%eax), %dl
	incl	%eax
	movb	%dl, (%ecx)
	incl	%ecx
	cmpl	%ebx, %eax
	jb	LBB62_14
LBB62_15:
	movl	8(%esp), %ecx
	movl	%edi, (%ecx)
	movl	%ebp, 4(%ecx)
LBB62_17:
	movb	$-44, 8(%ecx)
	movl	%ecx, %eax
	addl	$16, %esp
	popl	%esi
	popl	%edi
	popl	%ebx
	popl	%ebp
	retl
	.cfi_endproc

	.def	 __ZN7network3arp11ARP.ToBytes8to_bytes20hd843cc29e96f457bFPdE;
	.scl	2;
	.type	32;
	.endef
	.globl	__ZN7network3arp11ARP.ToBytes8to_bytes20hd843cc29e96f457bFPdE
	.align	16, 0x90
__ZN7network3arp11ARP.ToBytes8to_bytes20hd843cc29e96f457bFPdE:
	.cfi_startproc
	pushl	%ebx
Ltmp305:
	.cfi_def_cfa_offset 8
	pushl	%edi
Ltmp306:
	.cfi_def_cfa_offset 12
	pushl	%esi
Ltmp307:
	.cfi_def_cfa_offset 16
	subl	$32, %esp
Ltmp308:
	.cfi_def_cfa_offset 48
Ltmp309:
	.cfi_offset %esi, -16
Ltmp310:
	.cfi_offset %edi, -12
Ltmp311:
	.cfi_offset %ebx, -8
	movl	48(%esp), %esi
	movl	52(%esp), %edx
	movl	$-1, %edi
	movl	$7344128, %ebx
	.align	16, 0x90
LBB63_1:
	movl	%edi, %ecx
	leal	1(%ecx), %edi
	xorl	%eax, %eax
	cmpl	$1048575, %edi
	ja	LBB63_6
	cmpl	$0, (%ebx)
	leal	4(%ebx), %ebx
	jne	LBB63_1
	movl	%edi, %eax
	shll	$12, %eax
	addl	$11538432, %eax
	cmpl	$-1, %edi
	je	LBB63_6
	cmpl	$1048575, %edi
	ja	LBB63_6
	movl	%eax, 7344132(,%ecx,4)
LBB63_6:
	movsd	(%edx), %xmm0
	movsd	8(%edx), %xmm1
	movsd	16(%edx), %xmm2
	movl	24(%edx), %ecx
	movl	%ecx, 24(%eax)
	movsd	%xmm2, 16(%eax)
	movsd	%xmm1, 8(%eax)
	movsd	%xmm0, (%eax)
	movl	%eax, 20(%esp)
	movl	$28, 24(%esp)
	movb	$-44, 28(%esp)
	movl	32(%edx), %eax
	addl	$28, %edx
	movl	%eax, 4(%esp)
	movl	$0, (%esp)
	leal	8(%esp), %edi
	movl	%edi, %ecx
	calll	__ZN6common6vector15Vector$LT$T$GT$3sub19h993462767208734639E
	movl	%edi, (%esp)
	leal	20(%esp), %edx
	movl	%esi, %ecx
	calll	__ZN6common6vector19Vector$LT$T$GT$.Add3add21h12644329236589256770E
	movl	%esi, %eax
	addl	$32, %esp
	popl	%esi
	popl	%edi
	popl	%ebx
	retl
	.cfi_endproc

	.def	 __ZN6common6vector19Vector$LT$T$GT$.Add3add21h12644329236589256770E;
	.scl	3;
	.type	32;
	.endef
	.align	16, 0x90
__ZN6common6vector19Vector$LT$T$GT$.Add3add21h12644329236589256770E:
	.cfi_startproc
	pushl	%ebp
Ltmp312:
	.cfi_def_cfa_offset 8
	pushl	%ebx
Ltmp313:
	.cfi_def_cfa_offset 12
	pushl	%edi
Ltmp314:
	.cfi_def_cfa_offset 16
	pushl	%esi
Ltmp315:
	.cfi_def_cfa_offset 20
	subl	$12, %esp
Ltmp316:
	.cfi_def_cfa_offset 32
Ltmp317:
	.cfi_offset %esi, -20
Ltmp318:
	.cfi_offset %edi, -16
Ltmp319:
	.cfi_offset %ebx, -12
Ltmp320:
	.cfi_offset %ebp, -8
	movl	32(%esp), %edi
	movl	4(%edx), %esi
	movl	4(%edi), %eax
	addl	%esi, %eax
	movl	%eax, 8(%esp)
	je	LBB64_8
	movl	%esi, (%esp)
	movl	%ecx, 4(%esp)
	xorl	%edi, %edi
	xorl	%esi, %esi
	xorl	%ebp, %ebp
LBB64_2:
	leal	7344128(,%edi,4), %eax
	.align	16, 0x90
LBB64_3:
	movl	%esi, %ecx
	movl	%edi, %ebx
	cmpl	$1048575, %ebx
	ja	LBB64_6
	leal	1(%ebx), %edi
	xorl	%esi, %esi
	cmpl	$0, (%eax)
	leal	4(%eax), %eax
	jne	LBB64_3
	testl	%ecx, %ecx
	cmovel	%ebx, %ebp
	incl	%ecx
	movl	%ecx, %eax
	shll	$12, %eax
	cmpl	8(%esp), %eax
	movl	%ecx, %esi
	jbe	LBB64_2
LBB64_6:
	movl	%ecx, %eax
	shll	$12, %eax
	cmpl	8(%esp), %eax
	jbe	LBB64_7
	movl	%ebp, %eax
	shll	$12, %eax
	addl	$11538432, %eax
	movl	%eax, %ebx
	leal	(%ebp,%ecx), %eax
	cmpl	%eax, %ebp
	jae	LBB64_23
	leal	7344128(,%ebp,4), %edi
	.align	16, 0x90
LBB64_25:
	cmpl	$1048576, %ebp
	jae	LBB64_26
	movl	%ebx, (%edi)
LBB64_26:
	incl	%ebp
	addl	$4, %edi
	decl	%ecx
	jne	LBB64_25
	movl	4(%edx), %esi
	jmp	LBB64_28
LBB64_8:
	movl	$0, (%ecx)
	movl	$0, 4(%ecx)
	jmp	LBB64_9
LBB64_7:
	xorl	%ebx, %ebx
	movl	(%esp), %esi
	jmp	LBB64_28
LBB64_23:
	movl	(%esp), %esi
LBB64_28:
	testl	%esi, %esi
	movl	32(%esp), %edi
	movl	%ebx, %ebp
	je	LBB64_31
	xorl	%eax, %eax
	.align	16, 0x90
LBB64_30:
	movl	(%edx), %ecx
	movb	(%ecx,%eax), %cl
	movb	%cl, (%ebp,%eax)
	leal	1(%eax), %eax
	cmpl	%eax, %esi
	jne	LBB64_30
LBB64_31:
	movl	4(%edi), %ecx
	testl	%ecx, %ecx
	je	LBB64_34
	xorl	%eax, %eax
	.align	16, 0x90
LBB64_33:
	movl	(%edi), %esi
	movb	(%esi,%eax), %bl
	movl	4(%edx), %esi
	addl	%ebp, %esi
	movb	%bl, (%eax,%esi)
	leal	1(%eax), %eax
	cmpl	%eax, %ecx
	jne	LBB64_33
LBB64_34:
	movl	4(%esp), %ecx
	movl	%ebp, (%ecx)
	movl	8(%esp), %eax
	movl	%eax, 4(%ecx)
LBB64_9:
	movb	$-44, 8(%ecx)
	movzbl	8(%edi), %eax
	cmpl	$212, %eax
	jne	LBB64_15
	movl	(%edi), %esi
	testl	%esi, %esi
	je	LBB64_14
	movl	$7344128, %eax
	.align	16, 0x90
LBB64_12:
	cmpl	%esi, (%eax)
	jne	LBB64_13
	movl	$0, (%eax)
LBB64_13:
	addl	$4, %eax
	cmpl	$11538432, %eax
	jne	LBB64_12
LBB64_14:
	movl	$0, (%edi)
	movl	$0, 4(%edi)
LBB64_15:
	movzbl	8(%edx), %eax
	cmpl	$212, %eax
	jne	LBB64_21
	movl	(%edx), %eax
	testl	%eax, %eax
	je	LBB64_20
	movl	$7344128, %esi
	.align	16, 0x90
LBB64_18:
	cmpl	%eax, (%esi)
	jne	LBB64_19
	movl	$0, (%esi)
LBB64_19:
	addl	$4, %esi
	cmpl	$11538432, %esi
	jne	LBB64_18
LBB64_20:
	movl	$0, (%edx)
	movl	$0, 4(%edx)
LBB64_21:
	movl	%ecx, %eax
	addl	$12, %esp
	popl	%esi
	popl	%edi
	popl	%ebx
	popl	%ebp
	retl
	.cfi_endproc

	.def	 __ZN7network3arp12ARP.Response7respond20h05e644b5e209672cfQdE;
	.scl	2;
	.type	32;
	.endef
	.globl	__ZN7network3arp12ARP.Response7respond20h05e644b5e209672cfQdE
	.align	16, 0x90
__ZN7network3arp12ARP.Response7respond20h05e644b5e209672cfQdE:
	.cfi_startproc
	pushl	%ebp
Ltmp321:
	.cfi_def_cfa_offset 8
	pushl	%ebx
Ltmp322:
	.cfi_def_cfa_offset 12
	pushl	%edi
Ltmp323:
	.cfi_def_cfa_offset 16
	pushl	%esi
Ltmp324:
	.cfi_def_cfa_offset 20
	subl	$96, %esp
Ltmp325:
	.cfi_def_cfa_offset 116
Ltmp326:
	.cfi_offset %esi, -20
Ltmp327:
	.cfi_offset %edi, -16
Ltmp328:
	.cfi_offset %ebx, -12
Ltmp329:
	.cfi_offset %ebp, -8
	movl	116(%esp), %ebx
	movl	120(%esp), %edi
	movl	$39146762, 20(%esp)
	xorl	%eax, %eax
	.align	16, 0x90
LBB65_1:
	cmpl	$3, %eax
	ja	LBB65_4
	movzbl	24(%edi,%eax), %ecx
	movzbl	20(%esp,%eax), %edx
	leal	1(%eax), %eax
	cmpl	%edx, %ecx
	je	LBB65_1
	jmp	LBB65_3
LBB65_4:
	movzbl	6(%edi), %eax
	shll	$8, %eax
	movzbl	7(%edi), %ecx
	orl	%eax, %ecx
	movzwl	%cx, %eax
	cmpl	$1, %eax
	jne	LBB65_3
	movl	24(%edi), %eax
	movl	%eax, 44(%esp)
	movsd	16(%edi), %xmm0
	movsd	%xmm0, 36(%esp)
	movsd	(%edi), %xmm0
	movsd	8(%edi), %xmm1
	movsd	%xmm1, 28(%esp)
	movsd	%xmm0, 20(%esp)
	leal	48(%esp), %ecx
	leal	28(%edi), %edx
	movl	32(%edi), %eax
	movl	%eax, 4(%esp)
	movl	$0, (%esp)
	calll	__ZN6common6vector15Vector$LT$T$GT$3sub19h993462767208734639E
	movw	$512, 26(%esp)
	movw	12(%edi), %ax
	movw	%ax, 42(%esp)
	movl	8(%edi), %eax
	movl	%eax, 38(%esp)
	movl	14(%edi), %eax
	movl	%eax, 44(%esp)
	movw	__ZN7network6common8MAC_ADDR20he66c83ec820712abp1dE+4, %ax
	movw	%ax, 32(%esp)
	movl	__ZN7network6common8MAC_ADDR20he66c83ec820712abp1dE, %eax
	movl	%eax, 28(%esp)
	movl	$39146762, 34(%esp)
	movl	$-1, %eax
	movl	$7344128, %esi
	.align	16, 0x90
LBB65_6:
	movl	%esi, %edx
	incl	%eax
	xorl	%ecx, %ecx
	cmpl	$1048575, %eax
	ja	LBB65_7
	leal	4(%edx), %esi
	cmpl	$0, (%edx)
	jne	LBB65_6
	shll	$12, %eax
	addl	$11538432, %eax
	movl	%eax, (%edx)
	jmp	LBB65_10
LBB65_3:
	movl	$0, (%ebx)
	movl	$0, 4(%ebx)
	movb	$-44, 8(%ebx)
LBB65_46:
	movl	%ebx, %eax
	addl	$96, %esp
	popl	%esi
	popl	%edi
	popl	%ebx
	popl	%ebp
	retl
LBB65_7:
	xorl	%eax, %eax
LBB65_10:
	movsd	20(%esp), %xmm0
	movsd	28(%esp), %xmm1
	movsd	36(%esp), %xmm2
	movl	44(%esp), %edx
	movl	%edx, 24(%eax)
	movsd	%xmm2, 16(%eax)
	movsd	%xmm1, 8(%eax)
	movsd	%xmm0, (%eax)
	movl	%eax, 84(%esp)
	movl	$28, 88(%esp)
	movb	$-44, 92(%esp)
	movl	52(%esp), %ebp
	testl	%ebp, %ebp
	je	LBB65_47
	xorl	%edi, %edi
	xorl	%edx, %edx
LBB65_12:
	movl	%ebp, %esi
	leal	7344128(,%ecx,4), %eax
	.align	16, 0x90
LBB65_13:
	movl	%edi, %ebx
	movl	%ecx, %ebp
	cmpl	$1048575, %ebp
	ja	LBB65_14
	leal	1(%ebp), %ecx
	xorl	%edi, %edi
	cmpl	$0, (%eax)
	leal	4(%eax), %eax
	jne	LBB65_13
	testl	%ebx, %ebx
	cmovel	%ebp, %edx
	incl	%ebx
	movl	%ebx, %eax
	shll	$12, %eax
	movl	%esi, %ebp
	cmpl	%ebp, %eax
	movl	%ebx, %edi
	jbe	LBB65_12
	jmp	LBB65_17
LBB65_14:
	movl	%esi, %ebp
LBB65_17:
	movl	%ebx, %eax
	shll	$12, %eax
	xorl	%edi, %edi
	cmpl	%ebp, %eax
	movl	$0, %esi
	jbe	LBB65_23
	movl	%edx, %esi
	shll	$12, %esi
	addl	$11538432, %esi
	leal	(%edx,%ebx), %eax
	cmpl	%eax, %edx
	jae	LBB65_23
	movl	%ebp, %eax
	leal	7344128(,%edx,4), %ebp
	.align	16, 0x90
LBB65_20:
	cmpl	$1048576, %edx
	jae	LBB65_21
	movl	%esi, (%ebp)
LBB65_21:
	incl	%edx
	addl	$4, %ebp
	decl	%ebx
	jne	LBB65_20
	movl	%eax, %ebp
LBB65_23:
	movl	48(%esp), %edx
	testl	%ebp, %ebp
	je	LBB65_31
	xorl	%edi, %edi
	movl	%ebp, %ebx
	andl	$-32, %ebx
	je	LBB65_30
	leal	-1(%edx,%ebp), %eax
	cmpl	%eax, %esi
	ja	LBB65_27
	leal	-1(%esi,%ebp), %eax
	cmpl	%eax, %edx
	jbe	LBB65_30
LBB65_27:
	leal	16(%esi), %edi
	movl	%ebp, %ecx
	leal	16(%edx), %ebp
	movl	%ecx, %eax
	andl	$-32, %eax
	.align	16, 0x90
LBB65_28:
	movupd	-16(%ebp), %xmm0
	movupd	(%ebp), %xmm1
	movupd	%xmm0, -16(%edi)
	movupd	%xmm1, (%edi)
	addl	$32, %edi
	addl	$32, %ebp
	addl	$-32, %eax
	jne	LBB65_28
	movl	%ebx, %edi
	movl	%ecx, %ebp
LBB65_30:
	cmpl	%edi, %ebp
	je	LBB65_33
LBB65_31:
	addl	%edi, %edx
	leal	(%esi,%edi), %eax
	movl	%ebp, %ebx
	subl	%edi, %ebx
	.align	16, 0x90
LBB65_32:
	movb	(%edx), %cl
	movb	%cl, (%eax)
	incl	%edx
	incl	%eax
	decl	%ebx
	jne	LBB65_32
LBB65_33:
	movl	%esi, 72(%esp)
	movl	%ebp, 76(%esp)
	movb	$-44, 80(%esp)
	movl	116(%esp), %ebx
	jmp	LBB65_34
LBB65_47:
	movl	$0, 72(%esp)
	movl	$0, 76(%esp)
	movb	$-44, 80(%esp)
LBB65_34:
	leal	72(%esp), %eax
	movl	%eax, (%esp)
	leal	8(%esp), %ecx
	leal	84(%esp), %edx
	calll	__ZN6common6vector19Vector$LT$T$GT$.Add3add21h12644329236589256770E
	movl	$-1, %edx
	movl	$7344128, %esi
	.align	16, 0x90
LBB65_35:
	movl	%edx, %ecx
	leal	1(%ecx), %edx
	xorl	%eax, %eax
	cmpl	$1048575, %edx
	ja	LBB65_40
	cmpl	$0, (%esi)
	leal	4(%esi), %esi
	jne	LBB65_35
	movl	%edx, %eax
	shll	$12, %eax
	addl	$11538432, %eax
	cmpl	$-1, %edx
	je	LBB65_40
	cmpl	$1048575, %edx
	ja	LBB65_40
	movl	%eax, 7344132(,%ecx,4)
LBB65_40:
	movl	16(%esp), %ecx
	movl	%ecx, 68(%esp)
	movsd	8(%esp), %xmm0
	movsd	%xmm0, 60(%esp)
	movl	68(%esp), %ecx
	movl	%ecx, 8(%eax)
	movsd	60(%esp), %xmm0
	movsd	%xmm0, (%eax)
	movl	%eax, (%ebx)
	movl	$1, 4(%ebx)
	movb	$-44, 8(%ebx)
	movzbl	56(%esp), %eax
	cmpl	$212, %eax
	jne	LBB65_46
	movl	48(%esp), %eax
	testl	%eax, %eax
	je	LBB65_45
	movl	$7344128, %ecx
	.align	16, 0x90
LBB65_43:
	cmpl	%eax, (%ecx)
	jne	LBB65_44
	movl	$0, (%ecx)
LBB65_44:
	addl	$4, %ecx
	cmpl	$11538432, %ecx
	jne	LBB65_43
LBB65_45:
	movl	$0, 48(%esp)
	movl	$0, 52(%esp)
	jmp	LBB65_46
	.cfi_endproc

	.def	 __ZN7network6common24n32...core..clone..Clone5clone20he902671517eb6eedoWdE;
	.scl	2;
	.type	32;
	.endef
	.globl	__ZN7network6common24n32...core..clone..Clone5clone20he902671517eb6eedoWdE
	.align	16, 0x90
__ZN7network6common24n32...core..clone..Clone5clone20he902671517eb6eedoWdE:
	.cfi_startproc
	movl	4(%esp), %eax
	movl	(%eax), %eax
	retl
	.cfi_endproc

	.def	 __ZN7network6common29IPv6Addr...core..clone..Clone5clone20hb080696633f7aed9d4dE;
	.scl	2;
	.type	32;
	.endef
	.globl	__ZN7network6common29IPv6Addr...core..clone..Clone5clone20hb080696633f7aed9d4dE
	.align	16, 0x90
__ZN7network6common29IPv6Addr...core..clone..Clone5clone20hb080696633f7aed9d4dE:
	.cfi_startproc
	movl	4(%esp), %eax
	movl	8(%esp), %ecx
	movsd	(%ecx), %xmm0
	movsd	8(%ecx), %xmm1
	movsd	%xmm1, 8(%eax)
	movsd	%xmm0, (%eax)
	retl
	.cfi_endproc

	.def	 __ZN7network6common29Checksum...core..clone..Clone5clone20h140c953edc552fa8E5dE;
	.scl	2;
	.type	32;
	.endef
	.globl	__ZN7network6common29Checksum...core..clone..Clone5clone20h140c953edc552fa8E5dE
	.align	16, 0x90
__ZN7network6common29Checksum...core..clone..Clone5clone20h140c953edc552fa8E5dE:
	.cfi_startproc
	movl	4(%esp), %eax
	movzwl	(%eax), %eax
	retl
	.cfi_endproc

	.def	 __ZN7network8ethernet37EthernetIIHeader...core..clone..Clone5clone20h1afc97cda24a8533Q9dE;
	.scl	2;
	.type	32;
	.endef
	.globl	__ZN7network8ethernet37EthernetIIHeader...core..clone..Clone5clone20h1afc97cda24a8533Q9dE
	.align	16, 0x90
__ZN7network8ethernet37EthernetIIHeader...core..clone..Clone5clone20h1afc97cda24a8533Q9dE:
	.cfi_startproc
	movl	4(%esp), %eax
	movl	8(%esp), %ecx
	movw	4(%ecx), %dx
	movw	%dx, 4(%eax)
	movl	(%ecx), %edx
	movl	%edx, (%eax)
	movw	10(%ecx), %dx
	movw	%dx, 10(%eax)
	movl	6(%ecx), %edx
	movl	%edx, 6(%eax)
	movw	12(%ecx), %cx
	movw	%cx, 12(%eax)
	retl
	.cfi_endproc

	.def	 __ZN7network8ethernet20EthernetII.FromBytes10from_bytes20h211954be0bce1159CaeE;
	.scl	2;
	.type	32;
	.endef
	.globl	__ZN7network8ethernet20EthernetII.FromBytes10from_bytes20h211954be0bce1159CaeE
	.align	16, 0x90
__ZN7network8ethernet20EthernetII.FromBytes10from_bytes20h211954be0bce1159CaeE:
	.cfi_startproc
	pushl	%edi
Ltmp330:
	.cfi_def_cfa_offset 8
	pushl	%esi
Ltmp331:
	.cfi_def_cfa_offset 12
	subl	$8, %esp
Ltmp332:
	.cfi_def_cfa_offset 20
Ltmp333:
	.cfi_offset %esi, -12
Ltmp334:
	.cfi_offset %edi, -8
	movl	20(%esp), %esi
	movl	24(%esp), %edi
	movl	4(%edi), %eax
	cmpl	$14, %eax
	jb	LBB70_9
	movl	(%edi), %ecx
	movw	12(%ecx), %dx
	movw	%dx, 16(%esi)
	movl	8(%ecx), %edx
	movl	%edx, 12(%esi)
	movsd	(%ecx), %xmm0
	movsd	%xmm0, 4(%esi)
	leal	20(%esi), %ecx
	addl	$-14, %eax
	movl	%eax, 4(%esp)
	movl	$14, (%esp)
	movl	%edi, %edx
	calll	__ZN6common6vector15Vector$LT$T$GT$3sub19h993462767208734639E
	movl	$1, (%esi)
	jmp	LBB70_2
LBB70_9:
	movsd	_const7029+24, %xmm0
	movsd	%xmm0, 24(%esi)
	movsd	_const7029+16, %xmm0
	movsd	%xmm0, 16(%esi)
	movsd	_const7029+8, %xmm0
	movsd	%xmm0, 8(%esi)
	movsd	_const7029, %xmm0
	movsd	%xmm0, (%esi)
LBB70_2:
	movzbl	8(%edi), %eax
	cmpl	$212, %eax
	jne	LBB70_8
	movl	(%edi), %eax
	testl	%eax, %eax
	je	LBB70_7
	movl	$7344128, %ecx
	.align	16, 0x90
LBB70_5:
	cmpl	%eax, (%ecx)
	jne	LBB70_6
	movl	$0, (%ecx)
LBB70_6:
	addl	$4, %ecx
	cmpl	$11538432, %ecx
	jne	LBB70_5
LBB70_7:
	movl	$0, (%edi)
	movl	$0, 4(%edi)
LBB70_8:
	movl	%esi, %eax
	addl	$8, %esp
	popl	%esi
	popl	%edi
	retl
	.cfi_endproc

	.def	 __ZN7network8ethernet18EthernetII.ToBytes8to_bytes20h03b299cd1fd67679qbeE;
	.scl	2;
	.type	32;
	.endef
	.globl	__ZN7network8ethernet18EthernetII.ToBytes8to_bytes20h03b299cd1fd67679qbeE
	.align	16, 0x90
__ZN7network8ethernet18EthernetII.ToBytes8to_bytes20h03b299cd1fd67679qbeE:
	.cfi_startproc
	pushl	%ebx
Ltmp335:
	.cfi_def_cfa_offset 8
	pushl	%edi
Ltmp336:
	.cfi_def_cfa_offset 12
	pushl	%esi
Ltmp337:
	.cfi_def_cfa_offset 16
	subl	$32, %esp
Ltmp338:
	.cfi_def_cfa_offset 48
Ltmp339:
	.cfi_offset %esi, -16
Ltmp340:
	.cfi_offset %edi, -12
Ltmp341:
	.cfi_offset %ebx, -8
	movl	48(%esp), %esi
	movl	52(%esp), %edx
	movl	$-1, %edi
	movl	$7344128, %ebx
	.align	16, 0x90
LBB71_1:
	movl	%edi, %ecx
	leal	1(%ecx), %edi
	xorl	%eax, %eax
	cmpl	$1048575, %edi
	ja	LBB71_6
	cmpl	$0, (%ebx)
	leal	4(%ebx), %ebx
	jne	LBB71_1
	movl	%edi, %eax
	shll	$12, %eax
	addl	$11538432, %eax
	cmpl	$-1, %edi
	je	LBB71_6
	cmpl	$1048575, %edi
	ja	LBB71_6
	movl	%eax, 7344132(,%ecx,4)
LBB71_6:
	movsd	(%edx), %xmm0
	movl	8(%edx), %ecx
	movw	12(%edx), %di
	movw	%di, 12(%eax)
	movl	%ecx, 8(%eax)
	movsd	%xmm0, (%eax)
	movl	%eax, 20(%esp)
	movl	$14, 24(%esp)
	movb	$-44, 28(%esp)
	movl	20(%edx), %eax
	addl	$16, %edx
	movl	%eax, 4(%esp)
	movl	$0, (%esp)
	leal	8(%esp), %edi
	movl	%edi, %ecx
	calll	__ZN6common6vector15Vector$LT$T$GT$3sub19h993462767208734639E
	movl	%edi, (%esp)
	leal	20(%esp), %edx
	movl	%esi, %ecx
	calll	__ZN6common6vector19Vector$LT$T$GT$.Add3add21h12644329236589256770E
	movl	%esi, %eax
	addl	$32, %esp
	popl	%esi
	popl	%edi
	popl	%ebx
	retl
	.cfi_endproc

	.def	 __ZN7network8ethernet19EthernetII.Response7respond20h845ea6230c4f36080beE;
	.scl	2;
	.type	32;
	.endef
	.globl	__ZN7network8ethernet19EthernetII.Response7respond20h845ea6230c4f36080beE
	.align	16, 0x90
__ZN7network8ethernet19EthernetII.Response7respond20h845ea6230c4f36080beE:
	.cfi_startproc
	pushl	%ebp
Ltmp342:
	.cfi_def_cfa_offset 8
	pushl	%ebx
Ltmp343:
	.cfi_def_cfa_offset 12
	pushl	%edi
Ltmp344:
	.cfi_def_cfa_offset 16
	pushl	%esi
Ltmp345:
	.cfi_def_cfa_offset 20
	subl	$184, %esp
Ltmp346:
	.cfi_def_cfa_offset 204
Ltmp347:
	.cfi_offset %esi, -20
Ltmp348:
	.cfi_offset %edi, -16
Ltmp349:
	.cfi_offset %ebx, -12
Ltmp350:
	.cfi_offset %ebp, -8
	movl	212(%esp), %ebx
	movl	208(%esp), %ebp
	xorl	%eax, %eax
	.align	16, 0x90
LBB72_1:
	cmpl	$5, %eax
	ja	LBB72_7
	movzbl	(%ebp,%eax), %ecx
	movzbl	__ZN7network6common8MAC_ADDR20he66c83ec820712abp1dE(%eax), %edx
	leal	1(%eax), %eax
	cmpl	%edx, %ecx
	je	LBB72_1
	xorl	%eax, %eax
	.align	16, 0x90
LBB72_4:
	cmpl	$5, %eax
	ja	LBB72_7
	movzbl	(%ebp,%eax), %ecx
	movzbl	__ZN7network6common18BROADCAST_MAC_ADDR20he66c83ec820712abf1dE(%eax), %edx
	leal	1(%eax), %eax
	cmpl	%edx, %ecx
	je	LBB72_4
	movl	204(%esp), %eax
	movl	$0, (%eax)
	movl	$0, 4(%eax)
	movb	$-44, 8(%eax)
	jmp	LBB72_116
LBB72_7:
	movzbl	12(%ebp), %eax
	shll	$8, %eax
	movzbl	13(%ebp), %ecx
	orl	%eax, %ecx
	movzwl	%cx, %eax
	cmpl	$2054, %eax
	jne	LBB72_8
	leal	16(%ebp), %edx
	movl	20(%ebp), %eax
	movl	%eax, 4(%esp)
	movl	$0, (%esp)
	leal	172(%esp), %esi
	movl	%esi, %ecx
	calll	__ZN6common6vector15Vector$LT$T$GT$3sub19h993462767208734639E
	movl	176(%esp), %eax
	cmpl	$28, %eax
	jb	LBB72_124
	movl	172(%esp), %ecx
	movl	24(%ecx), %edx
	movl	%edx, 128(%esp)
	movsd	16(%ecx), %xmm0
	movsd	%xmm0, 120(%esp)
	movsd	(%ecx), %xmm0
	movsd	8(%ecx), %xmm1
	movsd	%xmm1, 112(%esp)
	movsd	%xmm0, 104(%esp)
	cmpl	$28, %eax
	jne	LBB72_14
	movl	$0, 132(%esp)
	movl	$0, 136(%esp)
	movb	$-44, 140(%esp)
	jmp	LBB72_36
LBB72_8:
	cmpl	$2048, %eax
	jne	LBB72_9
	leal	16(%ebp), %edx
	movl	20(%ebp), %eax
	movl	%eax, 4(%esp)
	movl	$0, (%esp)
	leal	172(%esp), %esi
	movl	%esi, %ecx
	calll	__ZN6common6vector15Vector$LT$T$GT$3sub19h993462767208734639E
	movl	%esi, 4(%esp)
	leal	100(%esp), %eax
	movl	%eax, (%esp)
	calll	__ZN7network4ipv414IPv4.FromBytes10from_bytes20he555b941d4670c44jAeE
	cmpl	$1, 100(%esp)
	jne	LBB72_11
	leal	104(%esp), %edi
	movl	%ebx, 8(%esp)
	movl	%edi, 4(%esp)
	movl	%esi, (%esp)
	calll	__ZN7network4ipv413IPv4.Response7respond20h079a42c982773d328BeE
	movl	172(%esp), %edx
	movl	176(%esp), %esi
	movb	180(%esp), %al
	movb	%al, 31(%esp)
	movzbl	132(%esp), %eax
	cmpl	$212, %eax
	jne	LBB72_57
	movl	124(%esp), %eax
	testl	%eax, %eax
	je	LBB72_56
	movl	$7344128, %ecx
	.align	16, 0x90
LBB72_54:
	cmpl	%eax, (%ecx)
	jne	LBB72_55
	movl	$0, (%ecx)
LBB72_55:
	addl	$4, %ecx
	cmpl	$11538432, %ecx
	jne	LBB72_54
LBB72_56:
	movl	$0, 124(%esp)
	movl	$0, 128(%esp)
LBB72_57:
	movzbl	144(%esp), %eax
	cmpl	$212, %eax
	jne	LBB72_63
	movl	136(%esp), %eax
	testl	%eax, %eax
	je	LBB72_62
	movl	$7344128, %ecx
	.align	16, 0x90
LBB72_60:
	cmpl	%eax, (%ecx)
	jne	LBB72_61
	movl	$0, (%ecx)
LBB72_61:
	addl	$4, %ecx
	cmpl	$11538432, %ecx
	jne	LBB72_60
LBB72_62:
	movl	$0, 136(%esp)
	movl	$0, 140(%esp)
LBB72_63:
	movl	$488447261, 40(%edi)
	jmp	LBB72_64
LBB72_124:
	movl	_const6974+40, %eax
	movl	%eax, 140(%esp)
	movsd	_const6974+32, %xmm0
	movsd	%xmm0, 132(%esp)
	movaps	_const6974+16, %xmm0
	movups	%xmm0, 116(%esp)
	movapd	_const6974, %xmm0
	movupd	%xmm0, 100(%esp)
	xorl	%eax, %eax
	jmp	LBB72_37
LBB72_9:
	xorl	%esi, %esi
	movb	$-44, 31(%esp)
	xorl	%edx, %edx
	jmp	LBB72_65
LBB72_14:
	leal	-28(%eax), %ecx
	movl	%ecx, 56(%esp)
	xorl	%ecx, %ecx
	xorl	%ebp, %ebp
	xorl	%edi, %edi
LBB72_15:
	leal	7344128(,%ecx,4), %esi
	.align	16, 0x90
LBB72_16:
	movl	%ebp, %ebx
	movl	%ecx, %edx
	cmpl	$1048575, %edx
	ja	LBB72_17
	leal	1(%edx), %ecx
	xorl	%ebp, %ebp
	cmpl	$0, (%esi)
	leal	4(%esi), %esi
	jne	LBB72_16
	testl	%ebx, %ebx
	cmovel	%edx, %edi
	incl	%ebx
	movl	%ebx, %edx
	shll	$12, %edx
	movl	56(%esp), %esi
	cmpl	%esi, %edx
	movl	%ebx, %ebp
	jbe	LBB72_15
	jmp	LBB72_20
LBB72_17:
	movl	56(%esp), %esi
LBB72_20:
	movl	%ebx, %ecx
	shll	$12, %ecx
	xorl	%edx, %edx
	cmpl	%esi, %ecx
	jbe	LBB72_25
	movl	%edi, %edx
	shll	$12, %edx
	addl	$11538432, %edx
	leal	(%edi,%ebx), %ecx
	cmpl	%ecx, %edi
	jae	LBB72_25
	leal	7344128(,%edi,4), %ebp
	.align	16, 0x90
LBB72_23:
	cmpl	$1048576, %edi
	jae	LBB72_24
	movl	%edx, (%ebp)
LBB72_24:
	incl	%edi
	addl	$4, %ebp
	decl	%ebx
	jne	LBB72_23
LBB72_25:
	cmpl	$29, %eax
	jb	LBB72_35
	movl	172(%esp), %edi
	movl	$28, %ebp
	cmpl	$28, %eax
	je	LBB72_34
	movl	%esi, %ebx
	andl	$-32, %ebx
	leal	28(%ebx), %ecx
	movl	$28, %ebp
	cmpl	$28, %ecx
	je	LBB72_33
	movl	%ecx, 52(%esp)
	leal	-1(%eax,%edi), %ecx
	cmpl	%ecx, %edx
	ja	LBB72_30
	leal	-29(%eax,%edx), %ecx
	leal	28(%edi), %esi
	cmpl	%ecx, %esi
	movl	56(%esp), %esi
	jbe	LBB72_33
LBB72_30:
	movl	%esi, %ecx
	leal	16(%edx), %ebp
	leal	44(%edi), %esi
LBB72_31:
	movupd	-16(%esi), %xmm0
	movupd	(%esi), %xmm1
	movupd	%xmm0, -16(%ebp)
	movupd	%xmm1, (%ebp)
	addl	$32, %ebp
	addl	$32, %esi
	addl	$-32, %ebx
	jne	LBB72_31
	movl	52(%esp), %ebp
	movl	%ecx, %esi
LBB72_33:
	cmpl	%ebp, %eax
	je	LBB72_35
	.align	16, 0x90
LBB72_34:
	movb	(%edi,%ebp), %cl
	movb	%cl, -28(%edx,%ebp)
	leal	1(%ebp), %ebp
	cmpl	%eax, %ebp
	jb	LBB72_34
LBB72_35:
	movl	%edx, 132(%esp)
	movl	%esi, 136(%esp)
	movb	$-44, 140(%esp)
	movl	208(%esp), %ebp
	leal	172(%esp), %esi
LBB72_36:
	movl	$1, 100(%esp)
	movl	$1, %eax
LBB72_37:
	movzbl	180(%esp), %ecx
	cmpl	$212, %ecx
	jne	LBB72_44
	movl	172(%esp), %ecx
	testl	%ecx, %ecx
	je	LBB72_43
	movl	$7344128, %eax
	.align	16, 0x90
LBB72_40:
	cmpl	%ecx, (%eax)
	jne	LBB72_41
	movl	$0, (%eax)
LBB72_41:
	addl	$4, %eax
	cmpl	$11538432, %eax
	jne	LBB72_40
	movl	100(%esp), %eax
LBB72_43:
	movl	$0, 172(%esp)
	movl	$0, 176(%esp)
LBB72_44:
	cmpl	$1, %eax
	jne	LBB72_11
	leal	104(%esp), %edi
	movl	%edi, 4(%esp)
	movl	%esi, (%esp)
	calll	__ZN7network3arp12ARP.Response7respond20h05e644b5e209672cfQdE
	movl	172(%esp), %edx
	movl	176(%esp), %esi
	movb	180(%esp), %al
	movb	%al, 31(%esp)
	movzbl	140(%esp), %eax
	cmpl	$212, %eax
	jne	LBB72_64
	movl	132(%esp), %eax
	testl	%eax, %eax
	je	LBB72_50
	movl	$7344128, %ecx
	.align	16, 0x90
LBB72_48:
	cmpl	%eax, (%ecx)
	jne	LBB72_49
	movl	$0, (%ecx)
LBB72_49:
	addl	$4, %ecx
	cmpl	$11538432, %ecx
	jne	LBB72_48
LBB72_50:
	movl	$0, 132(%esp)
	movl	$0, 136(%esp)
LBB72_64:
	movl	$488447261, 36(%edi)
	movl	$488447261, 32(%edi)
	movl	$488447261, 28(%edi)
	movl	$488447261, 24(%edi)
	movl	$488447261, 20(%edi)
	movl	$488447261, 16(%edi)
	movl	$488447261, 12(%edi)
	movl	$488447261, 8(%edi)
	movl	$488447261, 4(%edi)
	movl	$488447261, (%edi)
	jmp	LBB72_65
LBB72_11:
	movb	$-44, 31(%esp)
	xorl	%edx, %edx
	xorl	%esi, %esi
LBB72_65:
	movl	%esi, 24(%esp)
	movl	%edx, 32(%esp)
	xorl	%ebx, %ebx
	movl	%edx, %eax
	orl	%esi, %eax
	movl	$_ref_mut_slice7046, %edi
	cmovnel	%edx, %edi
	movl	%esi, %eax
	cmovel	%ebx, %eax
	testl	%eax, %eax
	je	LBB72_66
	leal	(%eax,%eax,2), %eax
	leal	(%edi,%eax,4), %eax
	movl	%eax, 40(%esp)
	leal	6(%ebp), %eax
	movl	%eax, 36(%esp)
	movb	$-44, %dl
	xorl	%esi, %esi
	xorl	%ebx, %ebx
	.align	16, 0x90
LBB72_68:
	testl	%edi, %edi
	je	LBB72_106
	movl	%ebx, 52(%esp)
	movb	%dl, 56(%esp)
	movw	__ZN7network6common8MAC_ADDR20he66c83ec820712abp1dE+4, %ax
	leal	106(%esp), %ecx
	movw	%ax, 4(%ecx)
	movl	__ZN7network6common8MAC_ADDR20he66c83ec820712abp1dE, %eax
	movl	%eax, (%ecx)
	movl	36(%esp), %ecx
	movw	4(%ecx), %ax
	movw	%ax, 104(%esp)
	movl	(%ecx), %eax
	movl	%eax, 100(%esp)
	movw	12(%ebp), %ax
	movw	%ax, 112(%esp)
	movl	4(%edi), %eax
	movl	%eax, 4(%esp)
	movl	$0, (%esp)
	movl	%edi, %edx
	leal	12(%edi), %edi
	leal	116(%esp), %ecx
	calll	__ZN6common6vector15Vector$LT$T$GT$3sub19h993462767208734639E
	movl	$-1, %eax
	movl	$7344128, %edx
	.align	16, 0x90
LBB72_70:
	movl	%edx, %ecx
	incl	%eax
	xorl	%ebx, %ebx
	cmpl	$1048575, %eax
	ja	LBB72_71
	leal	4(%ecx), %edx
	cmpl	$0, (%ecx)
	jne	LBB72_70
	movl	%esi, 44(%esp)
	movl	%edi, 48(%esp)
	shll	$12, %eax
	addl	$11538432, %eax
	movl	%eax, (%ecx)
	jmp	LBB72_74
	.align	16, 0x90
LBB72_71:
	movl	%esi, 44(%esp)
	movl	%edi, 48(%esp)
	xorl	%eax, %eax
LBB72_74:
	movsd	100(%esp), %xmm0
	movl	108(%esp), %ecx
	movw	112(%esp), %dx
	movw	%dx, 12(%eax)
	movl	%ecx, 8(%eax)
	movsd	%xmm0, (%eax)
	movl	%eax, 172(%esp)
	movl	$14, 176(%esp)
	movb	$-44, 180(%esp)
	movl	120(%esp), %edi
	testl	%edi, %edi
	movl	$0, %ebp
	movl	$0, %edx
	movl	$0, %ecx
	je	LBB72_94
LBB72_75:
	leal	7344128(,%ebx,4), %eax
	.align	16, 0x90
LBB72_76:
	movl	%ebp, %esi
	movl	%ebx, %ecx
	cmpl	$1048575, %ecx
	ja	LBB72_79
	leal	1(%ecx), %ebx
	xorl	%ebp, %ebp
	cmpl	$0, (%eax)
	leal	4(%eax), %eax
	jne	LBB72_76
	testl	%esi, %esi
	cmovel	%ecx, %edx
	incl	%esi
	movl	%esi, %eax
	shll	$12, %eax
	cmpl	%edi, %eax
	movl	%esi, %ebp
	jbe	LBB72_75
	.align	16, 0x90
LBB72_79:
	movl	%esi, %eax
	shll	$12, %eax
	xorl	%ebx, %ebx
	cmpl	%edi, %eax
	movl	$0, %ecx
	jbe	LBB72_84
	movl	%edx, %ecx
	shll	$12, %ecx
	addl	$11538432, %ecx
	leal	(%edx,%esi), %eax
	cmpl	%eax, %edx
	jae	LBB72_84
	leal	7344128(,%edx,4), %ebp
	.align	16, 0x90
LBB72_82:
	cmpl	$1048576, %edx
	jae	LBB72_83
	movl	%ecx, (%ebp)
LBB72_83:
	incl	%edx
	addl	$4, %ebp
	decl	%esi
	jne	LBB72_82
LBB72_84:
	movl	116(%esp), %edx
	testl	%edi, %edi
	je	LBB72_91
	xorl	%ebx, %ebx
	movl	%edi, %ebp
	andl	$-32, %ebp
	je	LBB72_92
	leal	-1(%edx,%edi), %eax
	cmpl	%eax, %ecx
	ja	LBB72_88
	leal	-1(%ecx,%edi), %eax
	cmpl	%eax, %edx
	jbe	LBB72_92
LBB72_88:
	leal	16(%ecx), %esi
	leal	16(%edx), %ebx
	movl	%edi, %eax
	andl	$-32, %eax
	.align	16, 0x90
LBB72_89:
	movupd	-16(%ebx), %xmm0
	movupd	(%ebx), %xmm1
	movupd	%xmm0, -16(%esi)
	movupd	%xmm1, (%esi)
	addl	$32, %esi
	addl	$32, %ebx
	addl	$-32, %eax
	jne	LBB72_89
	movl	%ebp, %ebx
	jmp	LBB72_92
	.align	16, 0x90
LBB72_91:
	movb	(%edx,%ebx), %al
	movb	%al, (%ecx,%ebx)
	leal	1(%ebx), %ebx
LBB72_92:
	cmpl	%ebx, %edi
	jne	LBB72_91
	movl	%edi, %ebx
LBB72_94:
	movl	%ecx, 160(%esp)
	movl	%ebx, 164(%esp)
	movb	$-44, 168(%esp)
	leal	160(%esp), %eax
	movl	%eax, (%esp)
	leal	60(%esp), %ecx
	leal	172(%esp), %edx
	calll	__ZN6common6vector19Vector$LT$T$GT$.Add3add21h12644329236589256770E
	movl	$-1, %edx
	movl	$7344128, %esi
	movl	208(%esp), %ebp
	movl	48(%esp), %edi
	movl	52(%esp), %ebx
	.align	16, 0x90
LBB72_95:
	movl	%edx, %ecx
	leal	1(%ecx), %edx
	xorl	%eax, %eax
	cmpl	$1048575, %edx
	ja	LBB72_100
	cmpl	$0, (%esi)
	leal	4(%esi), %esi
	jne	LBB72_95
	movl	%edx, %eax
	shll	$12, %eax
	addl	$11538432, %eax
	cmpl	$-1, %edx
	je	LBB72_100
	cmpl	$1048575, %edx
	ja	LBB72_100
	movl	%eax, 7344132(,%ecx,4)
	.align	16, 0x90
LBB72_100:
	movl	68(%esp), %ecx
	movl	%ecx, 156(%esp)
	movsd	60(%esp), %xmm0
	movsd	%xmm0, 148(%esp)
	movl	156(%esp), %ecx
	movl	%ecx, 8(%eax)
	movsd	148(%esp), %xmm0
	movsd	%xmm0, (%eax)
	movl	%eax, 72(%esp)
	movl	$1, 76(%esp)
	movb	$-44, 80(%esp)
	movl	44(%esp), %eax
	movl	%eax, 172(%esp)
	movl	%ebx, 176(%esp)
	movb	56(%esp), %al
	movb	%al, 180(%esp)
	movb	98(%esp), %al
	leal	181(%esp), %ecx
	movb	%al, 2(%ecx)
	movw	96(%esp), %ax
	movw	%ax, (%ecx)
	leal	72(%esp), %eax
	movl	%eax, (%esp)
	leal	84(%esp), %ecx
	leal	172(%esp), %edx
	calll	__ZN6common6vector19Vector$LT$T$GT$.Add3add21h18071655391070019005E
	movl	84(%esp), %esi
	movl	88(%esp), %ebx
	movb	92(%esp), %dl
	leal	93(%esp), %eax
	movl	%eax, %ecx
	movb	2(%ecx), %al
	movb	%al, 98(%esp)
	movw	(%ecx), %ax
	movw	%ax, 96(%esp)
	movzbl	124(%esp), %eax
	cmpl	$212, %eax
	jne	LBB72_105
	movl	116(%esp), %eax
	movl	$7344128, %ecx
	testl	%eax, %eax
	je	LBB72_104
	.align	16, 0x90
LBB72_102:
	cmpl	%eax, (%ecx)
	jne	LBB72_103
	movl	$0, (%ecx)
LBB72_103:
	addl	$4, %ecx
	cmpl	$11538432, %ecx
	jne	LBB72_102
LBB72_104:
	movl	$0, 116(%esp)
	movl	$0, 120(%esp)
LBB72_105:
	cmpl	40(%esp), %edi
	jne	LBB72_68
	jmp	LBB72_106
LBB72_66:
	movb	$-44, %dl
	xorl	%esi, %esi
LBB72_106:
	movl	204(%esp), %eax
	movl	%eax, %ecx
	movl	%esi, (%ecx)
	movl	%ebx, 4(%ecx)
	movb	%dl, 8(%ecx)
	movb	98(%esp), %al
	movb	%al, 11(%ecx)
	movw	96(%esp), %ax
	movw	%ax, 9(%ecx)
	movl	%ecx, %eax
	movzbl	31(%esp), %ecx
	cmpl	$212, %ecx
	movl	32(%esp), %ebx
	jne	LBB72_116
	movl	24(%esp), %ebp
	testl	%ebp, %ebp
	je	LBB72_112
	xorl	%edi, %edi
	.align	16, 0x90
LBB72_109:
	leal	(%edi,%edi,2), %esi
	leal	1(%edi), %edi
	movl	(%ebx,%esi,4), %ecx
	testl	%ecx, %ecx
	je	LBB72_111
	movl	$7344128, %edx
	movzbl	8(%ebx,%esi,4), %esi
	cmpl	$212, %esi
	jne	LBB72_111
	.align	16, 0x90
LBB72_117:
	cmpl	%ecx, (%edx)
	jne	LBB72_118
	movl	$0, (%edx)
LBB72_118:
	addl	$4, %edx
	cmpl	$11538432, %edx
	jne	LBB72_117
LBB72_111:
	cmpl	%ebp, %edi
	jne	LBB72_109
LBB72_112:
	testl	%ebx, %ebx
	je	LBB72_116
	movl	$7344128, %ecx
	.align	16, 0x90
LBB72_114:
	cmpl	%ebx, (%ecx)
	jne	LBB72_115
	movl	$0, (%ecx)
LBB72_115:
	addl	$4, %ecx
	cmpl	$11538432, %ecx
	jne	LBB72_114
LBB72_116:
	addl	$184, %esp
	popl	%esi
	popl	%edi
	popl	%ebx
	popl	%ebp
	retl
	.cfi_endproc

	.def	 __ZN7network4ipv414IPv4.FromBytes10from_bytes20he555b941d4670c44jAeE;
	.scl	2;
	.type	32;
	.endef
	.globl	__ZN7network4ipv414IPv4.FromBytes10from_bytes20he555b941d4670c44jAeE
	.align	16, 0x90
__ZN7network4ipv414IPv4.FromBytes10from_bytes20he555b941d4670c44jAeE:
	.cfi_startproc
	pushl	%ebp
Ltmp351:
	.cfi_def_cfa_offset 8
	pushl	%ebx
Ltmp352:
	.cfi_def_cfa_offset 12
	pushl	%edi
Ltmp353:
	.cfi_def_cfa_offset 16
	pushl	%esi
Ltmp354:
	.cfi_def_cfa_offset 20
	subl	$8, %esp
Ltmp355:
	.cfi_def_cfa_offset 28
Ltmp356:
	.cfi_offset %esi, -20
Ltmp357:
	.cfi_offset %edi, -16
Ltmp358:
	.cfi_offset %ebx, -12
Ltmp359:
	.cfi_offset %ebp, -8
	movl	28(%esp), %esi
	movl	32(%esp), %edi
	movl	4(%edi), %ebx
	cmpl	$20, %ebx
	jb	LBB73_9
	movl	(%edi), %eax
	movb	(%eax), %cl
	movb	%cl, 4(%esi)
	shlb	$2, %cl
	andb	$60, %cl
	movzbl	%cl, %ebp
	movb	19(%eax), %cl
	movb	%cl, 23(%esi)
	movw	17(%eax), %cx
	movw	%cx, 21(%esi)
	movsd	1(%eax), %xmm0
	movsd	9(%eax), %xmm1
	movsd	%xmm1, 13(%esi)
	movsd	%xmm0, 5(%esi)
	leal	24(%esi), %ecx
	leal	-20(%ebp), %eax
	movl	%eax, 4(%esp)
	movl	$20, (%esp)
	movl	%edi, %edx
	calll	__ZN6common6vector15Vector$LT$T$GT$3sub19h993462767208734639E
	leal	36(%esi), %ecx
	subl	%ebp, %ebx
	movl	%ebx, 4(%esp)
	movl	%ebp, (%esp)
	movl	%edi, %edx
	calll	__ZN6common6vector15Vector$LT$T$GT$3sub19h993462767208734639E
	movl	$1, (%esi)
	jmp	LBB73_2
LBB73_9:
	movsd	_const7113+40, %xmm0
	movsd	%xmm0, 40(%esi)
	movsd	_const7113+32, %xmm0
	movsd	%xmm0, 32(%esi)
	movsd	_const7113+24, %xmm0
	movsd	%xmm0, 24(%esi)
	movsd	_const7113+16, %xmm0
	movsd	%xmm0, 16(%esi)
	movsd	_const7113+8, %xmm0
	movsd	%xmm0, 8(%esi)
	movsd	_const7113, %xmm0
	movsd	%xmm0, (%esi)
LBB73_2:
	movzbl	8(%edi), %eax
	cmpl	$212, %eax
	jne	LBB73_8
	movl	(%edi), %eax
	testl	%eax, %eax
	je	LBB73_7
	movl	$7344128, %ecx
	.align	16, 0x90
LBB73_5:
	cmpl	%eax, (%ecx)
	jne	LBB73_6
	movl	$0, (%ecx)
LBB73_6:
	addl	$4, %ecx
	cmpl	$11538432, %ecx
	jne	LBB73_5
LBB73_7:
	movl	$0, (%edi)
	movl	$0, 4(%edi)
LBB73_8:
	movl	%esi, %eax
	addl	$8, %esp
	popl	%esi
	popl	%edi
	popl	%ebx
	popl	%ebp
	retl
	.cfi_endproc

	.def	 __ZN7network4ipv413IPv4.Response7respond20h079a42c982773d328BeE;
	.scl	2;
	.type	32;
	.endef
	.globl	__ZN7network4ipv413IPv4.Response7respond20h079a42c982773d328BeE
	.align	16, 0x90
__ZN7network4ipv413IPv4.Response7respond20h079a42c982773d328BeE:
	.cfi_startproc
	pushl	%ebp
Ltmp360:
	.cfi_def_cfa_offset 8
	pushl	%ebx
Ltmp361:
	.cfi_def_cfa_offset 12
	pushl	%edi
Ltmp362:
	.cfi_def_cfa_offset 16
	pushl	%esi
Ltmp363:
	.cfi_def_cfa_offset 20
	subl	$168, %esp
Ltmp364:
	.cfi_def_cfa_offset 188
Ltmp365:
	.cfi_offset %esi, -20
Ltmp366:
	.cfi_offset %edi, -16
Ltmp367:
	.cfi_offset %ebx, -12
Ltmp368:
	.cfi_offset %ebp, -8
	movl	196(%esp), %edi
	movl	192(%esp), %ebx
	movl	$39146762, 88(%esp)
	xorl	%eax, %eax
	.align	16, 0x90
LBB74_1:
	cmpl	$4, %eax
	jae	LBB74_7
	movzbl	16(%ebx,%eax), %ecx
	movzbl	88(%esp,%eax), %edx
	leal	1(%eax), %eax
	cmpl	%edx, %ecx
	je	LBB74_1
	movl	$-11184886, 88(%esp)
	xorl	%eax, %eax
	.align	16, 0x90
LBB74_4:
	cmpl	$4, %eax
	jae	LBB74_7
	movzbl	16(%ebx,%eax), %ecx
	movzbl	88(%esp,%eax), %edx
	leal	1(%eax), %eax
	cmpl	%edx, %ecx
	je	LBB74_4
	movl	188(%esp), %eax
	movl	$0, (%eax)
	movl	$0, 4(%eax)
	movb	$-44, 8(%eax)
	jmp	LBB74_198
LBB74_7:
	movzbl	9(%ebx), %eax
	cmpl	$17, %eax
	je	LBB74_114
	movzbl	%al, %eax
	cmpl	$6, %eax
	jne	LBB74_9
	leal	32(%ebx), %edx
	movl	36(%ebx), %eax
	movl	%eax, 4(%esp)
	movl	$0, (%esp)
	leal	144(%esp), %ecx
	calll	__ZN6common6vector15Vector$LT$T$GT$3sub19h993462767208734639E
	movl	148(%esp), %ebp
	cmpl	$20, %ebp
	jb	LBB74_212
	movl	12(%ebx), %eax
	movl	%eax, 56(%esp)
	movl	16(%ebx), %eax
	movl	%eax, 52(%esp)
	movl	144(%esp), %eax
	movzwl	12(%eax), %edx
	movl	%edx, 40(%esp)
	movl	%edx, %esi
	andl	$240, %esi
	shrl	$2, %esi
	movl	8(%eax), %ecx
	movl	%ecx, 100(%esp)
	movsd	(%eax), %xmm0
	movsd	%xmm0, 92(%esp)
	movb	%dl, 104(%esp)
	movb	%dh, 105(%esp)
	movl	%ebp, %edx
	movw	18(%eax), %cx
	movw	%cx, 110(%esp)
	movl	14(%eax), %eax
	movl	%eax, 106(%esp)
	movl	%edx, %eax
	subl	%esi, %eax
	movl	%esi, %ecx
	cmovbl	%edx, %ecx
	cmpl	$20, %ecx
	jne	LBB74_46
	movl	$0, 112(%esp)
	movl	$0, 116(%esp)
	movb	$-44, 120(%esp)
	movl	%edx, %ecx
	jmp	LBB74_67
LBB74_114:
	leal	32(%ebx), %edx
	movl	36(%ebx), %eax
	movl	%eax, 4(%esp)
	movl	$0, (%esp)
	leal	144(%esp), %esi
	movl	%esi, %ecx
	calll	__ZN6common6vector15Vector$LT$T$GT$3sub19h993462767208734639E
	movl	148(%esp), %eax
	cmpl	$8, %eax
	jb	LBB74_216
	movl	144(%esp), %ecx
	movsd	(%ecx), %xmm0
	movsd	%xmm0, 92(%esp)
	cmpl	$8, %eax
	jne	LBB74_116
	movl	$0, 100(%esp)
	movl	$0, 104(%esp)
	movb	$-44, 108(%esp)
	jmp	LBB74_137
LBB74_9:
	cmpl	$1, %eax
	jne	LBB74_10
	leal	32(%ebx), %edx
	movl	36(%ebx), %eax
	movl	%eax, 4(%esp)
	movl	$0, (%esp)
	leal	144(%esp), %esi
	movl	%esi, %ecx
	calll	__ZN6common6vector15Vector$LT$T$GT$3sub19h993462767208734639E
	movl	148(%esp), %eax
	cmpl	$8, %eax
	jb	LBB74_206
	movl	144(%esp), %ecx
	movsd	(%ecx), %xmm0
	movsd	%xmm0, 92(%esp)
	cmpl	$8, %eax
	jne	LBB74_13
	movl	$0, 100(%esp)
	movl	$0, 104(%esp)
	movb	$-44, 108(%esp)
	jmp	LBB74_34
LBB74_212:
	movsd	_const7160+48, %xmm0
	movsd	%xmm0, 136(%esp)
	movaps	_const7160+32, %xmm0
	movups	%xmm0, 120(%esp)
	movaps	_const7160+16, %xmm0
	movups	%xmm0, 104(%esp)
	movapd	_const7160, %xmm0
	movupd	%xmm0, 88(%esp)
	xorl	%eax, %eax
	jmp	LBB74_93
LBB74_216:
	movsd	_const7066+16, %xmm0
	movsd	%xmm0, 104(%esp)
	movapd	_const7066, %xmm0
	movupd	%xmm0, 88(%esp)
	xorl	%eax, %eax
	jmp	LBB74_138
LBB74_10:
	xorl	%ebp, %ebp
	movb	$-44, 20(%esp)
	xorl	%edx, %edx
	jmp	LBB74_158
LBB74_46:
	movl	%eax, 32(%esp)
	movl	%esi, 44(%esp)
	leal	-20(%ecx), %eax
	movl	%eax, 48(%esp)
	movl	%ecx, 36(%esp)
